
test_speed512:     file format elf64-x86-64


Disassembly of section .init:

0000000000001000 <_init>:
    1000:	f3 0f 1e fa          	endbr64 
    1004:	48 83 ec 08          	sub    rsp,0x8
    1008:	48 8b 05 d9 cf 00 00 	mov    rax,QWORD PTR [rip+0xcfd9]        # dfe8 <__gmon_start__@Base>
    100f:	48 85 c0             	test   rax,rax
    1012:	74 02                	je     1016 <_init+0x16>
    1014:	ff d0                	call   rax
    1016:	48 83 c4 08          	add    rsp,0x8
    101a:	c3                   	ret    

Disassembly of section .plt:

0000000000001020 <.plt>:
    1020:	ff 35 62 cf 00 00    	push   QWORD PTR [rip+0xcf62]        # df88 <_GLOBAL_OFFSET_TABLE_+0x8>
    1026:	f2 ff 25 63 cf 00 00 	bnd jmp QWORD PTR [rip+0xcf63]        # df90 <_GLOBAL_OFFSET_TABLE_+0x10>
    102d:	0f 1f 00             	nop    DWORD PTR [rax]
    1030:	f3 0f 1e fa          	endbr64 
    1034:	68 00 00 00 00       	push   0x0
    1039:	f2 e9 e1 ff ff ff    	bnd jmp 1020 <_init+0x20>
    103f:	90                   	nop
    1040:	f3 0f 1e fa          	endbr64 
    1044:	68 01 00 00 00       	push   0x1
    1049:	f2 e9 d1 ff ff ff    	bnd jmp 1020 <_init+0x20>
    104f:	90                   	nop
    1050:	f3 0f 1e fa          	endbr64 
    1054:	68 02 00 00 00       	push   0x2
    1059:	f2 e9 c1 ff ff ff    	bnd jmp 1020 <_init+0x20>
    105f:	90                   	nop
    1060:	f3 0f 1e fa          	endbr64 
    1064:	68 03 00 00 00       	push   0x3
    1069:	f2 e9 b1 ff ff ff    	bnd jmp 1020 <_init+0x20>
    106f:	90                   	nop
    1070:	f3 0f 1e fa          	endbr64 
    1074:	68 04 00 00 00       	push   0x4
    1079:	f2 e9 a1 ff ff ff    	bnd jmp 1020 <_init+0x20>
    107f:	90                   	nop
    1080:	f3 0f 1e fa          	endbr64 
    1084:	68 05 00 00 00       	push   0x5
    1089:	f2 e9 91 ff ff ff    	bnd jmp 1020 <_init+0x20>
    108f:	90                   	nop
    1090:	f3 0f 1e fa          	endbr64 
    1094:	68 06 00 00 00       	push   0x6
    1099:	f2 e9 81 ff ff ff    	bnd jmp 1020 <_init+0x20>
    109f:	90                   	nop
    10a0:	f3 0f 1e fa          	endbr64 
    10a4:	68 07 00 00 00       	push   0x7
    10a9:	f2 e9 71 ff ff ff    	bnd jmp 1020 <_init+0x20>
    10af:	90                   	nop

Disassembly of section .plt.got:

00000000000010b0 <__cxa_finalize@plt>:
    10b0:	f3 0f 1e fa          	endbr64 
    10b4:	f2 ff 25 3d cf 00 00 	bnd jmp QWORD PTR [rip+0xcf3d]        # dff8 <__cxa_finalize@GLIBC_2.2.5>
    10bb:	0f 1f 44 00 00       	nop    DWORD PTR [rax+rax*1+0x0]

Disassembly of section .plt.sec:

00000000000010c0 <putchar@plt>:
    10c0:	f3 0f 1e fa          	endbr64 
    10c4:	f2 ff 25 cd ce 00 00 	bnd jmp QWORD PTR [rip+0xcecd]        # df98 <putchar@GLIBC_2.2.5>
    10cb:	0f 1f 44 00 00       	nop    DWORD PTR [rax+rax*1+0x0]

00000000000010d0 <abort@plt>:
    10d0:	f3 0f 1e fa          	endbr64 
    10d4:	f2 ff 25 c5 ce 00 00 	bnd jmp QWORD PTR [rip+0xcec5]        # dfa0 <abort@GLIBC_2.2.5>
    10db:	0f 1f 44 00 00       	nop    DWORD PTR [rax+rax*1+0x0]

00000000000010e0 <__errno_location@plt>:
    10e0:	f3 0f 1e fa          	endbr64 
    10e4:	f2 ff 25 bd ce 00 00 	bnd jmp QWORD PTR [rip+0xcebd]        # dfa8 <__errno_location@GLIBC_2.2.5>
    10eb:	0f 1f 44 00 00       	nop    DWORD PTR [rax+rax*1+0x0]

00000000000010f0 <puts@plt>:
    10f0:	f3 0f 1e fa          	endbr64 
    10f4:	f2 ff 25 b5 ce 00 00 	bnd jmp QWORD PTR [rip+0xceb5]        # dfb0 <puts@GLIBC_2.2.5>
    10fb:	0f 1f 44 00 00       	nop    DWORD PTR [rax+rax*1+0x0]

0000000000001100 <__stack_chk_fail@plt>:
    1100:	f3 0f 1e fa          	endbr64 
    1104:	f2 ff 25 ad ce 00 00 	bnd jmp QWORD PTR [rip+0xcead]        # dfb8 <__stack_chk_fail@GLIBC_2.4>
    110b:	0f 1f 44 00 00       	nop    DWORD PTR [rax+rax*1+0x0]

0000000000001110 <syscall@plt>:
    1110:	f3 0f 1e fa          	endbr64 
    1114:	f2 ff 25 a5 ce 00 00 	bnd jmp QWORD PTR [rip+0xcea5]        # dfc0 <syscall@GLIBC_2.2.5>
    111b:	0f 1f 44 00 00       	nop    DWORD PTR [rax+rax*1+0x0]

0000000000001120 <__printf_chk@plt>:
    1120:	f3 0f 1e fa          	endbr64 
    1124:	f2 ff 25 9d ce 00 00 	bnd jmp QWORD PTR [rip+0xce9d]        # dfc8 <__printf_chk@GLIBC_2.3.4>
    112b:	0f 1f 44 00 00       	nop    DWORD PTR [rax+rax*1+0x0]

0000000000001130 <fwrite@plt>:
    1130:	f3 0f 1e fa          	endbr64 
    1134:	f2 ff 25 95 ce 00 00 	bnd jmp QWORD PTR [rip+0xce95]        # dfd0 <fwrite@GLIBC_2.2.5>
    113b:	0f 1f 44 00 00       	nop    DWORD PTR [rax+rax*1+0x0]

Disassembly of section .text:

0000000000001140 <main>:
    1140:	f3 0f 1e fa          	endbr64 
    1144:	41 56                	push   r14
    1146:	41 55                	push   r13
    1148:	41 54                	push   r12
    114a:	55                   	push   rbp
    114b:	48 81 ec b8 0c 00 00 	sub    rsp,0xcb8
    1152:	4c 8d ac 24 40 06 00 	lea    r13,[rsp+0x640]
    1159:	00 
    115a:	4c 8d b4 24 20 03 00 	lea    r14,[rsp+0x320]
    1161:	00 
    1162:	48 89 e5             	mov    rbp,rsp
    1165:	64 48 8b 04 25 28 00 	mov    rax,QWORD PTR fs:0x28
    116c:	00 00 
    116e:	48 89 84 24 a8 0c 00 	mov    QWORD PTR [rsp+0xca8],rax
    1175:	00 
    1176:	31 c0                	xor    eax,eax
    1178:	4c 89 ee             	mov    rsi,r13
    117b:	4c 89 f7             	mov    rdi,r14
    117e:	4c 8d 64 24 20       	lea    r12,[rsp+0x20]
    1183:	e8 e8 03 00 00       	call   1570 <pqcrystals_kyber512_ref_keypair>
    1188:	4c 89 f2             	mov    rdx,r14
    118b:	48 89 ee             	mov    rsi,rbp
    118e:	4c 89 e7             	mov    rdi,r12
    1191:	e8 7a 04 00 00       	call   1610 <pqcrystals_kyber512_ref_enc>
    1196:	48 89 ef             	mov    rdi,rbp
    1199:	4c 89 ea             	mov    rdx,r13
    119c:	4c 89 e6             	mov    rsi,r12
    119f:	e8 4c 05 00 00       	call   16f0 <pqcrystals_kyber512_ref_dec>
    11a4:	48 8d 3d 17 a2 00 00 	lea    rdi,[rip+0xa217]        # b3c2 <KeccakF_RoundConstants+0x122>
    11ab:	e8 40 ff ff ff       	call   10f0 <puts@plt>
    11b0:	48 8b 84 24 a8 0c 00 	mov    rax,QWORD PTR [rsp+0xca8]
    11b7:	00 
    11b8:	64 48 2b 04 25 28 00 	sub    rax,QWORD PTR fs:0x28
    11bf:	00 00 
    11c1:	75 11                	jne    11d4 <main+0x94>
    11c3:	48 81 c4 b8 0c 00 00 	add    rsp,0xcb8
    11ca:	31 c0                	xor    eax,eax
    11cc:	5d                   	pop    rbp
    11cd:	41 5c                	pop    r12
    11cf:	41 5d                	pop    r13
    11d1:	41 5e                	pop    r14
    11d3:	c3                   	ret    
    11d4:	e8 27 ff ff ff       	call   1100 <__stack_chk_fail@plt>
    11d9:	0f 1f 80 00 00 00 00 	nop    DWORD PTR [rax+0x0]

00000000000011e0 <_start>:
    11e0:	f3 0f 1e fa          	endbr64 
    11e4:	31 ed                	xor    ebp,ebp
    11e6:	49 89 d1             	mov    r9,rdx
    11e9:	5e                   	pop    rsi
    11ea:	48 89 e2             	mov    rdx,rsp
    11ed:	48 83 e4 f0          	and    rsp,0xfffffffffffffff0
    11f1:	50                   	push   rax
    11f2:	54                   	push   rsp
    11f3:	45 31 c0             	xor    r8d,r8d
    11f6:	31 c9                	xor    ecx,ecx
    11f8:	48 8d 3d 41 ff ff ff 	lea    rdi,[rip+0xffffffffffffff41]        # 1140 <main>
    11ff:	ff 15 d3 cd 00 00    	call   QWORD PTR [rip+0xcdd3]        # dfd8 <__libc_start_main@GLIBC_2.34>
    1205:	f4                   	hlt    
    1206:	66 2e 0f 1f 84 00 00 	cs nop WORD PTR [rax+rax*1+0x0]
    120d:	00 00 00 

0000000000001210 <deregister_tm_clones>:
    1210:	48 8d 3d 01 ce 00 00 	lea    rdi,[rip+0xce01]        # e018 <__TMC_END__>
    1217:	48 8d 05 fa cd 00 00 	lea    rax,[rip+0xcdfa]        # e018 <__TMC_END__>
    121e:	48 39 f8             	cmp    rax,rdi
    1221:	74 15                	je     1238 <deregister_tm_clones+0x28>
    1223:	48 8b 05 b6 cd 00 00 	mov    rax,QWORD PTR [rip+0xcdb6]        # dfe0 <_ITM_deregisterTMCloneTable@Base>
    122a:	48 85 c0             	test   rax,rax
    122d:	74 09                	je     1238 <deregister_tm_clones+0x28>
    122f:	ff e0                	jmp    rax
    1231:	0f 1f 80 00 00 00 00 	nop    DWORD PTR [rax+0x0]
    1238:	c3                   	ret    
    1239:	0f 1f 80 00 00 00 00 	nop    DWORD PTR [rax+0x0]

0000000000001240 <register_tm_clones>:
    1240:	48 8d 3d d1 cd 00 00 	lea    rdi,[rip+0xcdd1]        # e018 <__TMC_END__>
    1247:	48 8d 35 ca cd 00 00 	lea    rsi,[rip+0xcdca]        # e018 <__TMC_END__>
    124e:	48 29 fe             	sub    rsi,rdi
    1251:	48 89 f0             	mov    rax,rsi
    1254:	48 c1 ee 3f          	shr    rsi,0x3f
    1258:	48 c1 f8 03          	sar    rax,0x3
    125c:	48 01 c6             	add    rsi,rax
    125f:	48 d1 fe             	sar    rsi,1
    1262:	74 14                	je     1278 <register_tm_clones+0x38>
    1264:	48 8b 05 85 cd 00 00 	mov    rax,QWORD PTR [rip+0xcd85]        # dff0 <_ITM_registerTMCloneTable@Base>
    126b:	48 85 c0             	test   rax,rax
    126e:	74 08                	je     1278 <register_tm_clones+0x38>
    1270:	ff e0                	jmp    rax
    1272:	66 0f 1f 44 00 00    	nop    WORD PTR [rax+rax*1+0x0]
    1278:	c3                   	ret    
    1279:	0f 1f 80 00 00 00 00 	nop    DWORD PTR [rax+0x0]

0000000000001280 <__do_global_dtors_aux>:
    1280:	f3 0f 1e fa          	endbr64 
    1284:	80 3d 9d cd 00 00 00 	cmp    BYTE PTR [rip+0xcd9d],0x0        # e028 <completed.0>
    128b:	75 2b                	jne    12b8 <__do_global_dtors_aux+0x38>
    128d:	55                   	push   rbp
    128e:	48 83 3d 62 cd 00 00 	cmp    QWORD PTR [rip+0xcd62],0x0        # dff8 <__cxa_finalize@GLIBC_2.2.5>
    1295:	00 
    1296:	48 89 e5             	mov    rbp,rsp
    1299:	74 0c                	je     12a7 <__do_global_dtors_aux+0x27>
    129b:	48 8b 3d 66 cd 00 00 	mov    rdi,QWORD PTR [rip+0xcd66]        # e008 <__dso_handle>
    12a2:	e8 09 fe ff ff       	call   10b0 <__cxa_finalize@plt>
    12a7:	e8 64 ff ff ff       	call   1210 <deregister_tm_clones>
    12ac:	c6 05 75 cd 00 00 01 	mov    BYTE PTR [rip+0xcd75],0x1        # e028 <completed.0>
    12b3:	5d                   	pop    rbp
    12b4:	c3                   	ret    
    12b5:	0f 1f 00             	nop    DWORD PTR [rax]
    12b8:	c3                   	ret    
    12b9:	0f 1f 80 00 00 00 00 	nop    DWORD PTR [rax+0x0]

00000000000012c0 <frame_dummy>:
    12c0:	f3 0f 1e fa          	endbr64 
    12c4:	e9 77 ff ff ff       	jmp    1240 <register_tm_clones>
    12c9:	0f 1f 80 00 00 00 00 	nop    DWORD PTR [rax+0x0]

00000000000012d0 <kex_uake_initA>:
    12d0:	f3 0f 1e fa          	endbr64 
    12d4:	41 54                	push   r12
    12d6:	49 89 cc             	mov    r12,rcx
    12d9:	55                   	push   rbp
    12da:	48 89 f5             	mov    rbp,rsi
    12dd:	48 89 d6             	mov    rsi,rdx
    12e0:	53                   	push   rbx
    12e1:	48 89 fb             	mov    rbx,rdi
    12e4:	e8 87 02 00 00       	call   1570 <pqcrystals_kyber512_ref_keypair>
    12e9:	48 8d bb 20 03 00 00 	lea    rdi,[rbx+0x320]
    12f0:	4c 89 e2             	mov    rdx,r12
    12f3:	5b                   	pop    rbx
    12f4:	48 89 ee             	mov    rsi,rbp
    12f7:	5d                   	pop    rbp
    12f8:	41 5c                	pop    r12
    12fa:	e9 11 03 00 00       	jmp    1610 <pqcrystals_kyber512_ref_enc>
    12ff:	90                   	nop

0000000000001300 <kex_uake_sharedB>:
    1300:	f3 0f 1e fa          	endbr64 
    1304:	41 55                	push   r13
    1306:	41 54                	push   r12
    1308:	49 89 cc             	mov    r12,rcx
    130b:	55                   	push   rbp
    130c:	48 89 f5             	mov    rbp,rsi
    130f:	53                   	push   rbx
    1310:	48 89 d3             	mov    rbx,rdx
    1313:	48 83 ec 58          	sub    rsp,0x58
    1317:	64 48 8b 04 25 28 00 	mov    rax,QWORD PTR fs:0x28
    131e:	00 00 
    1320:	48 89 44 24 48       	mov    QWORD PTR [rsp+0x48],rax
    1325:	31 c0                	xor    eax,eax
    1327:	49 89 e5             	mov    r13,rsp
    132a:	4c 89 ee             	mov    rsi,r13
    132d:	e8 de 02 00 00       	call   1610 <pqcrystals_kyber512_ref_enc>
    1332:	48 8d b3 20 03 00 00 	lea    rsi,[rbx+0x320]
    1339:	48 8d 7c 24 20       	lea    rdi,[rsp+0x20]
    133e:	4c 89 e2             	mov    rdx,r12
    1341:	e8 aa 03 00 00       	call   16f0 <pqcrystals_kyber512_ref_dec>
    1346:	b9 40 00 00 00       	mov    ecx,0x40
    134b:	4c 89 ea             	mov    rdx,r13
    134e:	48 89 ef             	mov    rdi,rbp
    1351:	be 20 00 00 00       	mov    esi,0x20
    1356:	e8 65 84 00 00       	call   97c0 <pqcrystals_kyber_fips202_ref_shake256>
    135b:	48 8b 44 24 48       	mov    rax,QWORD PTR [rsp+0x48]
    1360:	64 48 2b 04 25 28 00 	sub    rax,QWORD PTR fs:0x28
    1367:	00 00 
    1369:	75 0b                	jne    1376 <kex_uake_sharedB+0x76>
    136b:	48 83 c4 58          	add    rsp,0x58
    136f:	5b                   	pop    rbx
    1370:	5d                   	pop    rbp
    1371:	41 5c                	pop    r12
    1373:	41 5d                	pop    r13
    1375:	c3                   	ret    
    1376:	e8 85 fd ff ff       	call   1100 <__stack_chk_fail@plt>
    137b:	0f 1f 44 00 00       	nop    DWORD PTR [rax+rax*1+0x0]

0000000000001380 <kex_uake_sharedA>:
    1380:	f3 0f 1e fa          	endbr64 
    1384:	41 54                	push   r12
    1386:	55                   	push   rbp
    1387:	48 89 fd             	mov    rbp,rdi
    138a:	53                   	push   rbx
    138b:	48 89 d3             	mov    rbx,rdx
    138e:	48 89 ca             	mov    rdx,rcx
    1391:	48 83 ec 50          	sub    rsp,0x50
    1395:	64 48 8b 04 25 28 00 	mov    rax,QWORD PTR fs:0x28
    139c:	00 00 
    139e:	48 89 44 24 48       	mov    QWORD PTR [rsp+0x48],rax
    13a3:	31 c0                	xor    eax,eax
    13a5:	49 89 e4             	mov    r12,rsp
    13a8:	4c 89 e7             	mov    rdi,r12
    13ab:	e8 40 03 00 00       	call   16f0 <pqcrystals_kyber512_ref_dec>
    13b0:	f3 0f 6f 03          	movdqu xmm0,XMMWORD PTR [rbx]
    13b4:	4c 89 e2             	mov    rdx,r12
    13b7:	48 89 ef             	mov    rdi,rbp
    13ba:	f3 0f 6f 4b 10       	movdqu xmm1,XMMWORD PTR [rbx+0x10]
    13bf:	b9 40 00 00 00       	mov    ecx,0x40
    13c4:	be 20 00 00 00       	mov    esi,0x20
    13c9:	0f 29 44 24 20       	movaps XMMWORD PTR [rsp+0x20],xmm0
    13ce:	0f 29 4c 24 30       	movaps XMMWORD PTR [rsp+0x30],xmm1
    13d3:	e8 e8 83 00 00       	call   97c0 <pqcrystals_kyber_fips202_ref_shake256>
    13d8:	48 8b 44 24 48       	mov    rax,QWORD PTR [rsp+0x48]
    13dd:	64 48 2b 04 25 28 00 	sub    rax,QWORD PTR fs:0x28
    13e4:	00 00 
    13e6:	75 09                	jne    13f1 <kex_uake_sharedA+0x71>
    13e8:	48 83 c4 50          	add    rsp,0x50
    13ec:	5b                   	pop    rbx
    13ed:	5d                   	pop    rbp
    13ee:	41 5c                	pop    r12
    13f0:	c3                   	ret    
    13f1:	e8 0a fd ff ff       	call   1100 <__stack_chk_fail@plt>
    13f6:	66 2e 0f 1f 84 00 00 	cs nop WORD PTR [rax+rax*1+0x0]
    13fd:	00 00 00 

0000000000001400 <kex_ake_initA>:
    1400:	f3 0f 1e fa          	endbr64 
    1404:	41 54                	push   r12
    1406:	49 89 cc             	mov    r12,rcx
    1409:	55                   	push   rbp
    140a:	48 89 f5             	mov    rbp,rsi
    140d:	48 89 d6             	mov    rsi,rdx
    1410:	53                   	push   rbx
    1411:	48 89 fb             	mov    rbx,rdi
    1414:	e8 57 01 00 00       	call   1570 <pqcrystals_kyber512_ref_keypair>
    1419:	48 8d bb 20 03 00 00 	lea    rdi,[rbx+0x320]
    1420:	4c 89 e2             	mov    rdx,r12
    1423:	5b                   	pop    rbx
    1424:	48 89 ee             	mov    rsi,rbp
    1427:	5d                   	pop    rbp
    1428:	41 5c                	pop    r12
    142a:	e9 e1 01 00 00       	jmp    1610 <pqcrystals_kyber512_ref_enc>
    142f:	90                   	nop

0000000000001430 <kex_ake_sharedB>:
    1430:	f3 0f 1e fa          	endbr64 
    1434:	41 57                	push   r15
    1436:	41 56                	push   r14
    1438:	4d 89 c6             	mov    r14,r8
    143b:	41 55                	push   r13
    143d:	49 89 cd             	mov    r13,rcx
    1440:	41 54                	push   r12
    1442:	49 89 f4             	mov    r12,rsi
    1445:	55                   	push   rbp
    1446:	48 89 fd             	mov    rbp,rdi
    1449:	53                   	push   rbx
    144a:	48 89 d3             	mov    rbx,rdx
    144d:	48 83 ec 78          	sub    rsp,0x78
    1451:	64 48 8b 04 25 28 00 	mov    rax,QWORD PTR fs:0x28
    1458:	00 00 
    145a:	48 89 44 24 68       	mov    QWORD PTR [rsp+0x68],rax
    145f:	31 c0                	xor    eax,eax
    1461:	49 89 e7             	mov    r15,rsp
    1464:	4c 89 fe             	mov    rsi,r15
    1467:	e8 a4 01 00 00       	call   1610 <pqcrystals_kyber512_ref_enc>
    146c:	48 8d 74 24 20       	lea    rsi,[rsp+0x20]
    1471:	48 8d bd 00 03 00 00 	lea    rdi,[rbp+0x300]
    1478:	4c 89 f2             	mov    rdx,r14
    147b:	e8 90 01 00 00       	call   1610 <pqcrystals_kyber512_ref_enc>
    1480:	48 8d b3 20 03 00 00 	lea    rsi,[rbx+0x320]
    1487:	48 8d 7c 24 40       	lea    rdi,[rsp+0x40]
    148c:	4c 89 ea             	mov    rdx,r13
    148f:	e8 5c 02 00 00       	call   16f0 <pqcrystals_kyber512_ref_dec>
    1494:	b9 60 00 00 00       	mov    ecx,0x60
    1499:	4c 89 fa             	mov    rdx,r15
    149c:	4c 89 e7             	mov    rdi,r12
    149f:	be 20 00 00 00       	mov    esi,0x20
    14a4:	e8 17 83 00 00       	call   97c0 <pqcrystals_kyber_fips202_ref_shake256>
    14a9:	48 8b 44 24 68       	mov    rax,QWORD PTR [rsp+0x68]
    14ae:	64 48 2b 04 25 28 00 	sub    rax,QWORD PTR fs:0x28
    14b5:	00 00 
    14b7:	75 0f                	jne    14c8 <kex_ake_sharedB+0x98>
    14b9:	48 83 c4 78          	add    rsp,0x78
    14bd:	5b                   	pop    rbx
    14be:	5d                   	pop    rbp
    14bf:	41 5c                	pop    r12
    14c1:	41 5d                	pop    r13
    14c3:	41 5e                	pop    r14
    14c5:	41 5f                	pop    r15
    14c7:	c3                   	ret    
    14c8:	e8 33 fc ff ff       	call   1100 <__stack_chk_fail@plt>
    14cd:	0f 1f 00             	nop    DWORD PTR [rax]

00000000000014d0 <kex_ake_sharedA>:
    14d0:	f3 0f 1e fa          	endbr64 
    14d4:	41 56                	push   r14
    14d6:	41 55                	push   r13
    14d8:	4d 89 c5             	mov    r13,r8
    14db:	41 54                	push   r12
    14dd:	49 89 fc             	mov    r12,rdi
    14e0:	55                   	push   rbp
    14e1:	48 89 d5             	mov    rbp,rdx
    14e4:	48 89 ca             	mov    rdx,rcx
    14e7:	53                   	push   rbx
    14e8:	48 89 f3             	mov    rbx,rsi
    14eb:	48 83 ec 70          	sub    rsp,0x70
    14ef:	64 48 8b 04 25 28 00 	mov    rax,QWORD PTR fs:0x28
    14f6:	00 00 
    14f8:	48 89 44 24 68       	mov    QWORD PTR [rsp+0x68],rax
    14fd:	31 c0                	xor    eax,eax
    14ff:	49 89 e6             	mov    r14,rsp
    1502:	4c 89 f7             	mov    rdi,r14
    1505:	e8 e6 01 00 00       	call   16f0 <pqcrystals_kyber512_ref_dec>
    150a:	48 8d b3 00 03 00 00 	lea    rsi,[rbx+0x300]
    1511:	48 8d 7c 24 20       	lea    rdi,[rsp+0x20]
    1516:	4c 89 ea             	mov    rdx,r13
    1519:	e8 d2 01 00 00       	call   16f0 <pqcrystals_kyber512_ref_dec>
    151e:	f3 0f 6f 45 00       	movdqu xmm0,XMMWORD PTR [rbp+0x0]
    1523:	4c 89 f2             	mov    rdx,r14
    1526:	4c 89 e7             	mov    rdi,r12
    1529:	f3 0f 6f 4d 10       	movdqu xmm1,XMMWORD PTR [rbp+0x10]
    152e:	b9 60 00 00 00       	mov    ecx,0x60
    1533:	be 20 00 00 00       	mov    esi,0x20
    1538:	0f 29 44 24 40       	movaps XMMWORD PTR [rsp+0x40],xmm0
    153d:	0f 29 4c 24 50       	movaps XMMWORD PTR [rsp+0x50],xmm1
    1542:	e8 79 82 00 00       	call   97c0 <pqcrystals_kyber_fips202_ref_shake256>
    1547:	48 8b 44 24 68       	mov    rax,QWORD PTR [rsp+0x68]
    154c:	64 48 2b 04 25 28 00 	sub    rax,QWORD PTR fs:0x28
    1553:	00 00 
    1555:	75 0d                	jne    1564 <kex_ake_sharedA+0x94>
    1557:	48 83 c4 70          	add    rsp,0x70
    155b:	5b                   	pop    rbx
    155c:	5d                   	pop    rbp
    155d:	41 5c                	pop    r12
    155f:	41 5d                	pop    r13
    1561:	41 5e                	pop    r14
    1563:	c3                   	ret    
    1564:	e8 97 fb ff ff       	call   1100 <__stack_chk_fail@plt>
    1569:	0f 1f 80 00 00 00 00 	nop    DWORD PTR [rax+0x0]

0000000000001570 <pqcrystals_kyber512_ref_keypair>:
    1570:	f3 0f 1e fa          	endbr64 
    1574:	55                   	push   rbp
    1575:	48 89 fd             	mov    rbp,rdi
    1578:	53                   	push   rbx
    1579:	48 89 f3             	mov    rbx,rsi
    157c:	48 83 ec 08          	sub    rsp,0x8
    1580:	e8 eb 04 00 00       	call   1a70 <pqcrystals_kyber512_ref_indcpa_keypair>
    1585:	48 89 d8             	mov    rax,rbx
    1588:	48 29 e8             	sub    rax,rbp
    158b:	48 05 ff 02 00 00    	add    rax,0x2ff
    1591:	48 83 f8 0e          	cmp    rax,0xe
    1595:	b8 00 00 00 00       	mov    eax,0x0
    159a:	76 54                	jbe    15f0 <pqcrystals_kyber512_ref_keypair+0x80>
    159c:	0f 1f 40 00          	nop    DWORD PTR [rax+0x0]
    15a0:	f3 0f 6f 44 05 00    	movdqu xmm0,XMMWORD PTR [rbp+rax*1+0x0]
    15a6:	0f 11 84 03 00 03 00 	movups XMMWORD PTR [rbx+rax*1+0x300],xmm0
    15ad:	00 
    15ae:	48 83 c0 10          	add    rax,0x10
    15b2:	48 3d 20 03 00 00    	cmp    rax,0x320
    15b8:	75 e6                	jne    15a0 <pqcrystals_kyber512_ref_keypair+0x30>
    15ba:	48 8d bb 20 06 00 00 	lea    rdi,[rbx+0x620]
    15c1:	48 89 ee             	mov    rsi,rbp
    15c4:	ba 20 03 00 00       	mov    edx,0x320
    15c9:	e8 c2 88 00 00       	call   9e90 <pqcrystals_kyber_fips202_ref_sha3_256>
    15ce:	48 8d bb 40 06 00 00 	lea    rdi,[rbx+0x640]
    15d5:	be 20 00 00 00       	mov    esi,0x20
    15da:	e8 f1 91 00 00       	call   a7d0 <randombytes>
    15df:	48 83 c4 08          	add    rsp,0x8
    15e3:	31 c0                	xor    eax,eax
    15e5:	5b                   	pop    rbx
    15e6:	5d                   	pop    rbp
    15e7:	c3                   	ret    
    15e8:	0f 1f 84 00 00 00 00 	nop    DWORD PTR [rax+rax*1+0x0]
    15ef:	00 
    15f0:	0f b6 54 05 00       	movzx  edx,BYTE PTR [rbp+rax*1+0x0]
    15f5:	88 94 03 00 03 00 00 	mov    BYTE PTR [rbx+rax*1+0x300],dl
    15fc:	48 83 c0 01          	add    rax,0x1
    1600:	48 3d 20 03 00 00    	cmp    rax,0x320
    1606:	75 e8                	jne    15f0 <pqcrystals_kyber512_ref_keypair+0x80>
    1608:	eb b0                	jmp    15ba <pqcrystals_kyber512_ref_keypair+0x4a>
    160a:	66 0f 1f 44 00 00    	nop    WORD PTR [rax+rax*1+0x0]

0000000000001610 <pqcrystals_kyber512_ref_enc>:
    1610:	f3 0f 1e fa          	endbr64 
    1614:	41 57                	push   r15
    1616:	41 56                	push   r14
    1618:	49 89 f6             	mov    r14,rsi
    161b:	be 20 00 00 00       	mov    esi,0x20
    1620:	41 55                	push   r13
    1622:	49 89 d5             	mov    r13,rdx
    1625:	41 54                	push   r12
    1627:	49 89 fc             	mov    r12,rdi
    162a:	55                   	push   rbp
    162b:	53                   	push   rbx
    162c:	48 81 ec 98 00 00 00 	sub    rsp,0x98
    1633:	64 48 8b 04 25 28 00 	mov    rax,QWORD PTR fs:0x28
    163a:	00 00 
    163c:	48 89 84 24 88 00 00 	mov    QWORD PTR [rsp+0x88],rax
    1643:	00 
    1644:	31 c0                	xor    eax,eax
    1646:	48 89 e5             	mov    rbp,rsp
    1649:	4c 8d 7c 24 40       	lea    r15,[rsp+0x40]
    164e:	48 8d 5c 24 60       	lea    rbx,[rsp+0x60]
    1653:	48 89 ef             	mov    rdi,rbp
    1656:	e8 75 91 00 00       	call   a7d0 <randombytes>
    165b:	ba 20 00 00 00       	mov    edx,0x20
    1660:	48 89 ee             	mov    rsi,rbp
    1663:	48 89 ef             	mov    rdi,rbp
    1666:	e8 25 88 00 00       	call   9e90 <pqcrystals_kyber_fips202_ref_sha3_256>
    166b:	48 8d 7c 24 20       	lea    rdi,[rsp+0x20]
    1670:	ba 20 03 00 00       	mov    edx,0x320
    1675:	4c 89 ee             	mov    rsi,r13
    1678:	e8 13 88 00 00       	call   9e90 <pqcrystals_kyber_fips202_ref_sha3_256>
    167d:	ba 40 00 00 00       	mov    edx,0x40
    1682:	48 89 ee             	mov    rsi,rbp
    1685:	4c 89 ff             	mov    rdi,r15
    1688:	e8 93 8a 00 00       	call   a120 <pqcrystals_kyber_fips202_ref_sha3_512>
    168d:	48 89 d9             	mov    rcx,rbx
    1690:	4c 89 ea             	mov    rdx,r13
    1693:	48 89 ee             	mov    rsi,rbp
    1696:	4c 89 e7             	mov    rdi,r12
    1699:	e8 72 05 00 00       	call   1c10 <pqcrystals_kyber512_ref_indcpa_enc>
    169e:	ba 00 03 00 00       	mov    edx,0x300
    16a3:	4c 89 e6             	mov    rsi,r12
    16a6:	48 89 df             	mov    rdi,rbx
    16a9:	e8 e2 87 00 00       	call   9e90 <pqcrystals_kyber_fips202_ref_sha3_256>
    16ae:	b9 40 00 00 00       	mov    ecx,0x40
    16b3:	4c 89 fa             	mov    rdx,r15
    16b6:	4c 89 f7             	mov    rdi,r14
    16b9:	be 20 00 00 00       	mov    esi,0x20
    16be:	e8 fd 80 00 00       	call   97c0 <pqcrystals_kyber_fips202_ref_shake256>
    16c3:	48 8b 84 24 88 00 00 	mov    rax,QWORD PTR [rsp+0x88]
    16ca:	00 
    16cb:	64 48 2b 04 25 28 00 	sub    rax,QWORD PTR fs:0x28
    16d2:	00 00 
    16d4:	75 14                	jne    16ea <pqcrystals_kyber512_ref_enc+0xda>
    16d6:	48 81 c4 98 00 00 00 	add    rsp,0x98
    16dd:	31 c0                	xor    eax,eax
    16df:	5b                   	pop    rbx
    16e0:	5d                   	pop    rbp
    16e1:	41 5c                	pop    r12
    16e3:	41 5d                	pop    r13
    16e5:	41 5e                	pop    r14
    16e7:	41 5f                	pop    r15
    16e9:	c3                   	ret    
    16ea:	e8 11 fa ff ff       	call   1100 <__stack_chk_fail@plt>
    16ef:	90                   	nop

00000000000016f0 <pqcrystals_kyber512_ref_dec>:
    16f0:	f3 0f 1e fa          	endbr64 
    16f4:	41 57                	push   r15
    16f6:	41 56                	push   r14
    16f8:	41 55                	push   r13
    16fa:	49 89 fd             	mov    r13,rdi
    16fd:	41 54                	push   r12
    16ff:	49 89 f4             	mov    r12,rsi
    1702:	55                   	push   rbp
    1703:	53                   	push   rbx
    1704:	48 89 d3             	mov    rbx,rdx
    1707:	48 81 ec a8 03 00 00 	sub    rsp,0x3a8
    170e:	64 48 8b 04 25 28 00 	mov    rax,QWORD PTR fs:0x28
    1715:	00 00 
    1717:	48 89 84 24 98 03 00 	mov    QWORD PTR [rsp+0x398],rax
    171e:	00 
    171f:	31 c0                	xor    eax,eax
    1721:	48 8d 6c 24 10       	lea    rbp,[rsp+0x10]
    1726:	4c 8d 74 24 50       	lea    r14,[rsp+0x50]
    172b:	48 89 ef             	mov    rdi,rbp
    172e:	4c 8d 7c 24 70       	lea    r15,[rsp+0x70]
    1733:	e8 e8 06 00 00       	call   1e20 <pqcrystals_kyber512_ref_indcpa_dec>
    1738:	48 89 ee             	mov    rsi,rbp
    173b:	ba 40 00 00 00       	mov    edx,0x40
    1740:	4c 89 f7             	mov    rdi,r14
    1743:	f3 0f 6f 83 20 06 00 	movdqu xmm0,XMMWORD PTR [rbx+0x620]
    174a:	00 
    174b:	f3 0f 6f 8b 30 06 00 	movdqu xmm1,XMMWORD PTR [rbx+0x630]
    1752:	00 
    1753:	0f 29 44 24 30       	movaps XMMWORD PTR [rsp+0x30],xmm0
    1758:	0f 29 4c 24 40       	movaps XMMWORD PTR [rsp+0x40],xmm1
    175d:	e8 be 89 00 00       	call   a120 <pqcrystals_kyber_fips202_ref_sha3_512>
    1762:	4c 8d 84 24 90 00 00 	lea    r8,[rsp+0x90]
    1769:	00 
    176a:	4c 89 f9             	mov    rcx,r15
    176d:	48 89 ee             	mov    rsi,rbp
    1770:	4c 89 c7             	mov    rdi,r8
    1773:	48 8d 93 00 03 00 00 	lea    rdx,[rbx+0x300]
    177a:	4c 89 44 24 08       	mov    QWORD PTR [rsp+0x8],r8
    177f:	e8 8c 04 00 00       	call   1c10 <pqcrystals_kyber512_ref_indcpa_enc>
    1784:	48 8b 74 24 08       	mov    rsi,QWORD PTR [rsp+0x8]
    1789:	ba 00 03 00 00       	mov    edx,0x300
    178e:	4c 89 e7             	mov    rdi,r12
    1791:	e8 ea 43 00 00       	call   5b80 <pqcrystals_kyber512_ref_verify>
    1796:	ba 00 03 00 00       	mov    edx,0x300
    179b:	4c 89 e6             	mov    rsi,r12
    179e:	4c 89 ff             	mov    rdi,r15
    17a1:	89 c5                	mov    ebp,eax
    17a3:	e8 e8 86 00 00       	call   9e90 <pqcrystals_kyber_fips202_ref_sha3_256>
    17a8:	40 0f b6 cd          	movzx  ecx,bpl
    17ac:	ba 20 00 00 00       	mov    edx,0x20
    17b1:	4c 89 f7             	mov    rdi,r14
    17b4:	48 8d b3 40 06 00 00 	lea    rsi,[rbx+0x640]
    17bb:	e8 c0 45 00 00       	call   5d80 <pqcrystals_kyber512_ref_cmov>
    17c0:	b9 40 00 00 00       	mov    ecx,0x40
    17c5:	4c 89 f2             	mov    rdx,r14
    17c8:	4c 89 ef             	mov    rdi,r13
    17cb:	be 20 00 00 00       	mov    esi,0x20
    17d0:	e8 eb 7f 00 00       	call   97c0 <pqcrystals_kyber_fips202_ref_shake256>
    17d5:	48 8b 84 24 98 03 00 	mov    rax,QWORD PTR [rsp+0x398]
    17dc:	00 
    17dd:	64 48 2b 04 25 28 00 	sub    rax,QWORD PTR fs:0x28
    17e4:	00 00 
    17e6:	75 14                	jne    17fc <pqcrystals_kyber512_ref_dec+0x10c>
    17e8:	48 81 c4 a8 03 00 00 	add    rsp,0x3a8
    17ef:	31 c0                	xor    eax,eax
    17f1:	5b                   	pop    rbx
    17f2:	5d                   	pop    rbp
    17f3:	41 5c                	pop    r12
    17f5:	41 5d                	pop    r13
    17f7:	41 5e                	pop    r14
    17f9:	41 5f                	pop    r15
    17fb:	c3                   	ret    
    17fc:	e8 ff f8 ff ff       	call   1100 <__stack_chk_fail@plt>
    1801:	66 2e 0f 1f 84 00 00 	cs nop WORD PTR [rax+rax*1+0x0]
    1808:	00 00 00 
    180b:	0f 1f 44 00 00       	nop    DWORD PTR [rax+rax*1+0x0]

0000000000001810 <pqcrystals_kyber512_ref_gen_matrix>:
    1810:	f3 0f 1e fa          	endbr64 
    1814:	41 57                	push   r15
    1816:	41 56                	push   r14
    1818:	41 55                	push   r13
    181a:	41 54                	push   r12
    181c:	55                   	push   rbp
    181d:	53                   	push   rbx
    181e:	48 81 ec 18 03 00 00 	sub    rsp,0x318
    1825:	48 89 74 24 28       	mov    QWORD PTR [rsp+0x28],rsi
    182a:	4c 8d ac 24 00 01 00 	lea    r13,[rsp+0x100]
    1831:	00 
    1832:	48 8d 6c 24 30       	lea    rbp,[rsp+0x30]
    1837:	89 54 24 14          	mov    DWORD PTR [rsp+0x14],edx
    183b:	4d 89 ef             	mov    r15,r13
    183e:	64 48 8b 04 25 28 00 	mov    rax,QWORD PTR fs:0x28
    1845:	00 00 
    1847:	48 89 84 24 08 03 00 	mov    QWORD PTR [rsp+0x308],rax
    184e:	00 
    184f:	31 c0                	xor    eax,eax
    1851:	48 8d 84 24 f8 02 00 	lea    rax,[rsp+0x2f8]
    1858:	00 
    1859:	48 89 7c 24 20       	mov    QWORD PTR [rsp+0x20],rdi
    185e:	c7 44 24 10 02 00 00 	mov    DWORD PTR [rsp+0x10],0x2
    1865:	00 
    1866:	48 89 44 24 18       	mov    QWORD PTR [rsp+0x18],rax
    186b:	b8 02 00 00 00       	mov    eax,0x2
    1870:	2b 44 24 10          	sub    eax,DWORD PTR [rsp+0x10]
    1874:	48 8b 5c 24 20       	mov    rbx,QWORD PTR [rsp+0x20]
    1879:	4d 89 fe             	mov    r14,r15
    187c:	89 44 24 0c          	mov    DWORD PTR [rsp+0xc],eax
    1880:	8b 44 24 14          	mov    eax,DWORD PTR [rsp+0x14]
    1884:	c7 44 24 08 00 00 00 	mov    DWORD PTR [rsp+0x8],0x0
    188b:	00 
    188c:	85 c0                	test   eax,eax
    188e:	0f 84 c2 00 00 00    	je     1956 <pqcrystals_kyber512_ref_gen_matrix+0x146>
    1894:	8b 4c 24 08          	mov    ecx,DWORD PTR [rsp+0x8]
    1898:	8b 54 24 0c          	mov    edx,DWORD PTR [rsp+0xc]
    189c:	48 89 ef             	mov    rdi,rbp
    189f:	48 8b 74 24 28       	mov    rsi,QWORD PTR [rsp+0x28]
    18a4:	e8 67 8e 00 00       	call   a710 <pqcrystals_kyber512_ref_kyber_shake128_absorb>
    18a9:	4c 89 f7             	mov    rdi,r14
    18ac:	48 89 ea             	mov    rdx,rbp
    18af:	be 03 00 00 00       	mov    esi,0x3
    18b4:	45 31 ff             	xor    r15d,r15d
    18b7:	e8 74 66 00 00       	call   7f30 <pqcrystals_kyber_fips202_ref_shake128_squeezeblocks>
    18bc:	48 8b 7c 24 18       	mov    rdi,QWORD PTR [rsp+0x18]
    18c1:	4c 89 f1             	mov    rcx,r14
    18c4:	eb 17                	jmp    18dd <pqcrystals_kyber512_ref_gen_matrix+0xcd>
    18c6:	66 2e 0f 1f 84 00 00 	cs nop WORD PTR [rax+rax*1+0x0]
    18cd:	00 00 00 
    18d0:	48 83 c1 03          	add    rcx,0x3
    18d4:	48 39 cf             	cmp    rdi,rcx
    18d7:	0f 84 b7 00 00 00    	je     1994 <pqcrystals_kyber512_ref_gen_matrix+0x184>
    18dd:	0f b6 41 01          	movzx  eax,BYTE PTR [rcx+0x1]
    18e1:	0f b6 31             	movzx  esi,BYTE PTR [rcx]
    18e4:	89 c2                	mov    edx,eax
    18e6:	c0 e8 04             	shr    al,0x4
    18e9:	c1 e2 08             	shl    edx,0x8
    18ec:	0f b6 c0             	movzx  eax,al
    18ef:	09 f2                	or     edx,esi
    18f1:	0f b6 71 02          	movzx  esi,BYTE PTR [rcx+0x2]
    18f5:	66 81 e2 ff 0f       	and    dx,0xfff
    18fa:	c1 e6 04             	shl    esi,0x4
    18fd:	09 f0                	or     eax,esi
    18ff:	66 81 fa 00 0d       	cmp    dx,0xd00
    1904:	77 0b                	ja     1911 <pqcrystals_kyber512_ref_gen_matrix+0x101>
    1906:	44 89 fe             	mov    esi,r15d
    1909:	41 83 c7 01          	add    r15d,0x1
    190d:	66 89 14 73          	mov    WORD PTR [rbx+rsi*2],dx
    1911:	41 81 ff ff 00 00 00 	cmp    r15d,0xff
    1918:	77 11                	ja     192b <pqcrystals_kyber512_ref_gen_matrix+0x11b>
    191a:	66 3d 00 0d          	cmp    ax,0xd00
    191e:	77 0b                	ja     192b <pqcrystals_kyber512_ref_gen_matrix+0x11b>
    1920:	44 89 fa             	mov    edx,r15d
    1923:	41 83 c7 01          	add    r15d,0x1
    1927:	66 89 04 53          	mov    WORD PTR [rbx+rdx*2],ax
    192b:	41 81 ff 00 01 00 00 	cmp    r15d,0x100
    1932:	75 9c                	jne    18d0 <pqcrystals_kyber512_ref_gen_matrix+0xc0>
    1934:	48 81 c3 00 02 00 00 	add    rbx,0x200
    193b:	83 7c 24 08 01       	cmp    DWORD PTR [rsp+0x8],0x1
    1940:	74 2e                	je     1970 <pqcrystals_kyber512_ref_gen_matrix+0x160>
    1942:	8b 44 24 14          	mov    eax,DWORD PTR [rsp+0x14]
    1946:	c7 44 24 08 01 00 00 	mov    DWORD PTR [rsp+0x8],0x1
    194d:	00 
    194e:	85 c0                	test   eax,eax
    1950:	0f 85 3e ff ff ff    	jne    1894 <pqcrystals_kyber512_ref_gen_matrix+0x84>
    1956:	8b 4c 24 0c          	mov    ecx,DWORD PTR [rsp+0xc]
    195a:	8b 54 24 08          	mov    edx,DWORD PTR [rsp+0x8]
    195e:	48 89 ef             	mov    rdi,rbp
    1961:	48 8b 74 24 28       	mov    rsi,QWORD PTR [rsp+0x28]
    1966:	e8 a5 8d 00 00       	call   a710 <pqcrystals_kyber512_ref_kyber_shake128_absorb>
    196b:	e9 39 ff ff ff       	jmp    18a9 <pqcrystals_kyber512_ref_gen_matrix+0x99>
    1970:	48 81 44 24 20 00 04 	add    QWORD PTR [rsp+0x20],0x400
    1977:	00 00 
    1979:	83 7c 24 10 01       	cmp    DWORD PTR [rsp+0x10],0x1
    197e:	4d 89 f7             	mov    r15,r14
    1981:	0f 84 b8 00 00 00    	je     1a3f <pqcrystals_kyber512_ref_gen_matrix+0x22f>
    1987:	c7 44 24 10 01 00 00 	mov    DWORD PTR [rsp+0x10],0x1
    198e:	00 
    198f:	e9 d7 fe ff ff       	jmp    186b <pqcrystals_kyber512_ref_gen_matrix+0x5b>
    1994:	4d 8d ae a8 00 00 00 	lea    r13,[r14+0xa8]
    199b:	41 bc 00 01 00 00    	mov    r12d,0x100
    19a1:	0f 1f 80 00 00 00 00 	nop    DWORD PTR [rax+0x0]
    19a8:	be 01 00 00 00       	mov    esi,0x1
    19ad:	4c 89 f7             	mov    rdi,r14
    19b0:	48 89 ea             	mov    rdx,rbp
    19b3:	e8 78 65 00 00       	call   7f30 <pqcrystals_kyber_fips202_ref_shake128_squeezeblocks>
    19b8:	44 89 e7             	mov    edi,r12d
    19bb:	44 89 f8             	mov    eax,r15d
    19be:	4c 89 f1             	mov    rcx,r14
    19c1:	44 29 ff             	sub    edi,r15d
    19c4:	4c 8d 04 43          	lea    r8,[rbx+rax*2]
    19c8:	31 f6                	xor    esi,esi
    19ca:	eb 21                	jmp    19ed <pqcrystals_kyber512_ref_gen_matrix+0x1dd>
    19cc:	0f 1f 40 00          	nop    DWORD PTR [rax+0x0]
    19d0:	66 3d 00 0d          	cmp    ax,0xd00
    19d4:	77 0a                	ja     19e0 <pqcrystals_kyber512_ref_gen_matrix+0x1d0>
    19d6:	89 f2                	mov    edx,esi
    19d8:	83 c6 01             	add    esi,0x1
    19db:	66 41 89 04 50       	mov    WORD PTR [r8+rdx*2],ax
    19e0:	39 f7                	cmp    edi,esi
    19e2:	76 46                	jbe    1a2a <pqcrystals_kyber512_ref_gen_matrix+0x21a>
    19e4:	48 83 c1 03          	add    rcx,0x3
    19e8:	49 39 cd             	cmp    r13,rcx
    19eb:	74 3d                	je     1a2a <pqcrystals_kyber512_ref_gen_matrix+0x21a>
    19ed:	0f b6 41 01          	movzx  eax,BYTE PTR [rcx+0x1]
    19f1:	44 0f b6 09          	movzx  r9d,BYTE PTR [rcx]
    19f5:	89 c2                	mov    edx,eax
    19f7:	c0 e8 04             	shr    al,0x4
    19fa:	c1 e2 08             	shl    edx,0x8
    19fd:	0f b6 c0             	movzx  eax,al
    1a00:	44 09 ca             	or     edx,r9d
    1a03:	44 0f b6 49 02       	movzx  r9d,BYTE PTR [rcx+0x2]
    1a08:	66 81 e2 ff 0f       	and    dx,0xfff
    1a0d:	41 c1 e1 04          	shl    r9d,0x4
    1a11:	44 09 c8             	or     eax,r9d
    1a14:	66 81 fa 00 0d       	cmp    dx,0xd00
    1a19:	77 0b                	ja     1a26 <pqcrystals_kyber512_ref_gen_matrix+0x216>
    1a1b:	41 89 f1             	mov    r9d,esi
    1a1e:	83 c6 01             	add    esi,0x1
    1a21:	66 43 89 14 48       	mov    WORD PTR [r8+r9*2],dx
    1a26:	39 f7                	cmp    edi,esi
    1a28:	77 a6                	ja     19d0 <pqcrystals_kyber512_ref_gen_matrix+0x1c0>
    1a2a:	41 01 f7             	add    r15d,esi
    1a2d:	41 81 ff ff 00 00 00 	cmp    r15d,0xff
    1a34:	0f 86 6e ff ff ff    	jbe    19a8 <pqcrystals_kyber512_ref_gen_matrix+0x198>
    1a3a:	e9 f5 fe ff ff       	jmp    1934 <pqcrystals_kyber512_ref_gen_matrix+0x124>
    1a3f:	48 8b 84 24 08 03 00 	mov    rax,QWORD PTR [rsp+0x308]
    1a46:	00 
    1a47:	64 48 2b 04 25 28 00 	sub    rax,QWORD PTR fs:0x28
    1a4e:	00 00 
    1a50:	75 12                	jne    1a64 <pqcrystals_kyber512_ref_gen_matrix+0x254>
    1a52:	48 81 c4 18 03 00 00 	add    rsp,0x318
    1a59:	5b                   	pop    rbx
    1a5a:	5d                   	pop    rbp
    1a5b:	41 5c                	pop    r12
    1a5d:	41 5d                	pop    r13
    1a5f:	41 5e                	pop    r14
    1a61:	41 5f                	pop    r15
    1a63:	c3                   	ret    
    1a64:	e8 97 f6 ff ff       	call   1100 <__stack_chk_fail@plt>
    1a69:	0f 1f 80 00 00 00 00 	nop    DWORD PTR [rax+0x0]

0000000000001a70 <pqcrystals_kyber512_ref_indcpa_keypair>:
    1a70:	f3 0f 1e fa          	endbr64 
    1a74:	41 57                	push   r15
    1a76:	41 56                	push   r14
    1a78:	41 55                	push   r13
    1a7a:	41 54                	push   r12
    1a7c:	55                   	push   rbp
    1a7d:	53                   	push   rbx
    1a7e:	48 81 ec 00 10 00 00 	sub    rsp,0x1000
    1a85:	48 83 0c 24 00       	or     QWORD PTR [rsp],0x0
    1a8a:	48 81 ec 58 04 00 00 	sub    rsp,0x458
    1a91:	64 48 8b 04 25 28 00 	mov    rax,QWORD PTR fs:0x28
    1a98:	00 00 
    1a9a:	48 89 84 24 48 14 00 	mov    QWORD PTR [rsp+0x1448],rax
    1aa1:	00 
    1aa2:	31 c0                	xor    eax,eax
    1aa4:	48 8d ac 24 00 14 00 	lea    rbp,[rsp+0x1400]
    1aab:	00 
    1aac:	48 89 fb             	mov    rbx,rdi
    1aaf:	49 89 f5             	mov    r13,rsi
    1ab2:	48 89 ef             	mov    rdi,rbp
    1ab5:	be 20 00 00 00       	mov    esi,0x20
    1aba:	49 89 e6             	mov    r14,rsp
    1abd:	e8 0e 8d 00 00       	call   a7d0 <randombytes>
    1ac2:	48 89 ee             	mov    rsi,rbp
    1ac5:	48 89 ef             	mov    rdi,rbp
    1ac8:	4c 8d bc 24 00 0c 00 	lea    r15,[rsp+0xc00]
    1acf:	00 
    1ad0:	ba 20 00 00 00       	mov    edx,0x20
    1ad5:	4c 8d a4 24 00 08 00 	lea    r12,[rsp+0x800]
    1adc:	00 
    1add:	e8 3e 86 00 00       	call   a120 <pqcrystals_kyber_fips202_ref_sha3_512>
    1ae2:	48 89 ee             	mov    rsi,rbp
    1ae5:	4c 89 ff             	mov    rdi,r15
    1ae8:	31 d2                	xor    edx,edx
    1aea:	e8 21 fd ff ff       	call   1810 <pqcrystals_kyber512_ref_gen_matrix>
    1aef:	48 8d ac 24 20 14 00 	lea    rbp,[rsp+0x1420]
    1af6:	00 
    1af7:	31 d2                	xor    edx,edx
    1af9:	4c 89 e7             	mov    rdi,r12
    1afc:	48 89 ee             	mov    rsi,rbp
    1aff:	e8 8c 33 00 00       	call   4e90 <pqcrystals_kyber512_ref_poly_getnoise_eta1>
    1b04:	48 89 ee             	mov    rsi,rbp
    1b07:	ba 01 00 00 00       	mov    edx,0x1
    1b0c:	48 8d bc 24 00 0a 00 	lea    rdi,[rsp+0xa00]
    1b13:	00 
    1b14:	e8 77 33 00 00       	call   4e90 <pqcrystals_kyber512_ref_poly_getnoise_eta1>
    1b19:	48 89 ee             	mov    rsi,rbp
    1b1c:	ba 02 00 00 00       	mov    edx,0x2
    1b21:	4c 89 f7             	mov    rdi,r14
    1b24:	e8 67 33 00 00       	call   4e90 <pqcrystals_kyber512_ref_poly_getnoise_eta1>
    1b29:	48 89 ee             	mov    rsi,rbp
    1b2c:	ba 03 00 00 00       	mov    edx,0x3
    1b31:	48 8d bc 24 00 02 00 	lea    rdi,[rsp+0x200]
    1b38:	00 
    1b39:	e8 52 33 00 00       	call   4e90 <pqcrystals_kyber512_ref_poly_getnoise_eta1>
    1b3e:	4c 89 e7             	mov    rdi,r12
    1b41:	48 8d ac 24 00 04 00 	lea    rbp,[rsp+0x400]
    1b48:	00 
    1b49:	e8 e2 06 00 00       	call   2230 <pqcrystals_kyber512_ref_polyvec_ntt>
    1b4e:	4c 89 f7             	mov    rdi,r14
    1b51:	e8 da 06 00 00       	call   2230 <pqcrystals_kyber512_ref_polyvec_ntt>
    1b56:	4c 89 fe             	mov    rsi,r15
    1b59:	4c 89 e2             	mov    rdx,r12
    1b5c:	48 89 ef             	mov    rdi,rbp
    1b5f:	e8 0c 07 00 00       	call   2270 <pqcrystals_kyber512_ref_polyvec_basemul_acc_montgomery>
    1b64:	4c 8d bc 24 00 06 00 	lea    r15,[rsp+0x600]
    1b6b:	00 
    1b6c:	48 89 ef             	mov    rdi,rbp
    1b6f:	e8 cc 34 00 00       	call   5040 <pqcrystals_kyber512_ref_poly_tomont>
    1b74:	48 8d b4 24 00 10 00 	lea    rsi,[rsp+0x1000]
    1b7b:	00 
    1b7c:	4c 89 e2             	mov    rdx,r12
    1b7f:	4c 89 ff             	mov    rdi,r15
    1b82:	e8 e9 06 00 00       	call   2270 <pqcrystals_kyber512_ref_polyvec_basemul_acc_montgomery>
    1b87:	4c 89 ff             	mov    rdi,r15
    1b8a:	e8 b1 34 00 00       	call   5040 <pqcrystals_kyber512_ref_poly_tomont>
    1b8f:	4c 89 f2             	mov    rdx,r14
    1b92:	48 89 ee             	mov    rsi,rbp
    1b95:	48 89 ef             	mov    rdi,rbp
    1b98:	e8 83 07 00 00       	call   2320 <pqcrystals_kyber512_ref_polyvec_add>
    1b9d:	48 89 ef             	mov    rdi,rbp
    1ba0:	e8 5b 07 00 00       	call   2300 <pqcrystals_kyber512_ref_polyvec_reduce>
    1ba5:	4c 89 e6             	mov    rsi,r12
    1ba8:	4c 89 ef             	mov    rdi,r13
    1bab:	e8 20 06 00 00       	call   21d0 <pqcrystals_kyber512_ref_polyvec_tobytes>
    1bb0:	48 89 ee             	mov    rsi,rbp
    1bb3:	48 89 df             	mov    rdi,rbx
    1bb6:	e8 15 06 00 00       	call   21d0 <pqcrystals_kyber512_ref_polyvec_tobytes>
    1bbb:	66 0f 6f 84 24 00 14 	movdqa xmm0,XMMWORD PTR [rsp+0x1400]
    1bc2:	00 00 
    1bc4:	66 0f 6f 8c 24 10 14 	movdqa xmm1,XMMWORD PTR [rsp+0x1410]
    1bcb:	00 00 
    1bcd:	0f 11 83 00 03 00 00 	movups XMMWORD PTR [rbx+0x300],xmm0
    1bd4:	0f 11 8b 10 03 00 00 	movups XMMWORD PTR [rbx+0x310],xmm1
    1bdb:	48 8b 84 24 48 14 00 	mov    rax,QWORD PTR [rsp+0x1448]
    1be2:	00 
    1be3:	64 48 2b 04 25 28 00 	sub    rax,QWORD PTR fs:0x28
    1bea:	00 00 
    1bec:	75 12                	jne    1c00 <pqcrystals_kyber512_ref_indcpa_keypair+0x190>
    1bee:	48 81 c4 58 14 00 00 	add    rsp,0x1458
    1bf5:	5b                   	pop    rbx
    1bf6:	5d                   	pop    rbp
    1bf7:	41 5c                	pop    r12
    1bf9:	41 5d                	pop    r13
    1bfb:	41 5e                	pop    r14
    1bfd:	41 5f                	pop    r15
    1bff:	c3                   	ret    
    1c00:	e8 fb f4 ff ff       	call   1100 <__stack_chk_fail@plt>
    1c05:	66 66 2e 0f 1f 84 00 	data16 cs nop WORD PTR [rax+rax*1+0x0]
    1c0c:	00 00 00 00 

0000000000001c10 <pqcrystals_kyber512_ref_indcpa_enc>:
    1c10:	f3 0f 1e fa          	endbr64 
    1c14:	41 57                	push   r15
    1c16:	41 56                	push   r14
    1c18:	41 55                	push   r13
    1c1a:	41 54                	push   r12
    1c1c:	55                   	push   rbp
    1c1d:	53                   	push   rbx
    1c1e:	48 81 ec 00 10 00 00 	sub    rsp,0x1000
    1c25:	48 83 0c 24 00       	or     QWORD PTR [rsp],0x0
    1c2a:	48 81 ec 58 0e 00 00 	sub    rsp,0xe58
    1c31:	49 89 d4             	mov    r12,rdx
    1c34:	48 89 fb             	mov    rbx,rdi
    1c37:	49 89 f5             	mov    r13,rsi
    1c3a:	48 89 d6             	mov    rsi,rdx
    1c3d:	64 48 8b 04 25 28 00 	mov    rax,QWORD PTR fs:0x28
    1c44:	00 00 
    1c46:	48 89 84 24 48 1e 00 	mov    QWORD PTR [rsp+0x1e48],rax
    1c4d:	00 
    1c4e:	31 c0                	xor    eax,eax
    1c50:	4c 8d 8c 24 20 0a 00 	lea    r9,[rsp+0xa20]
    1c57:	00 
    1c58:	48 89 cd             	mov    rbp,rcx
    1c5b:	4c 8d b4 24 20 02 00 	lea    r14,[rsp+0x220]
    1c62:	00 
    1c63:	4c 89 cf             	mov    rdi,r9
    1c66:	4c 89 4c 24 18       	mov    QWORD PTR [rsp+0x18],r9
    1c6b:	4c 8d bc 24 20 04 00 	lea    r15,[rsp+0x420]
    1c72:	00 
    1c73:	e8 88 05 00 00       	call   2200 <pqcrystals_kyber512_ref_polyvec_frombytes>
    1c78:	4c 89 ee             	mov    rsi,r13
    1c7b:	4c 89 f7             	mov    rdi,r14
    1c7e:	f3 41 0f 6f 84 24 00 	movdqu xmm0,XMMWORD PTR [r12+0x300]
    1c85:	03 00 00 
    1c88:	f3 41 0f 6f 8c 24 10 	movdqu xmm1,XMMWORD PTR [r12+0x310]
    1c8f:	03 00 00 
    1c92:	4c 8d ac 24 20 06 00 	lea    r13,[rsp+0x620]
    1c99:	00 
    1c9a:	4c 8d a4 24 20 12 00 	lea    r12,[rsp+0x1220]
    1ca1:	00 
    1ca2:	0f 29 84 24 20 1e 00 	movaps XMMWORD PTR [rsp+0x1e20],xmm0
    1ca9:	00 
    1caa:	0f 29 8c 24 30 1e 00 	movaps XMMWORD PTR [rsp+0x1e30],xmm1
    1cb1:	00 
    1cb2:	e8 49 15 00 00       	call   3200 <pqcrystals_kyber512_ref_poly_frommsg>
    1cb7:	4c 8d 94 24 20 16 00 	lea    r10,[rsp+0x1620]
    1cbe:	00 
    1cbf:	ba 01 00 00 00       	mov    edx,0x1
    1cc4:	48 8d b4 24 20 1e 00 	lea    rsi,[rsp+0x1e20]
    1ccb:	00 
    1ccc:	4c 89 d7             	mov    rdi,r10
    1ccf:	4c 89 54 24 10       	mov    QWORD PTR [rsp+0x10],r10
    1cd4:	e8 37 fb ff ff       	call   1810 <pqcrystals_kyber512_ref_gen_matrix>
    1cd9:	31 d2                	xor    edx,edx
    1cdb:	48 89 ee             	mov    rsi,rbp
    1cde:	4c 89 ef             	mov    rdi,r13
    1ce1:	e8 aa 31 00 00       	call   4e90 <pqcrystals_kyber512_ref_poly_getnoise_eta1>
    1ce6:	48 89 ee             	mov    rsi,rbp
    1ce9:	ba 01 00 00 00       	mov    edx,0x1
    1cee:	48 8d bc 24 20 08 00 	lea    rdi,[rsp+0x820]
    1cf5:	00 
    1cf6:	e8 95 31 00 00       	call   4e90 <pqcrystals_kyber512_ref_poly_getnoise_eta1>
    1cfb:	4c 8d 84 24 20 0e 00 	lea    r8,[rsp+0xe20]
    1d02:	00 
    1d03:	48 89 ee             	mov    rsi,rbp
    1d06:	ba 02 00 00 00       	mov    edx,0x2
    1d0b:	4c 89 c7             	mov    rdi,r8
    1d0e:	4c 89 44 24 08       	mov    QWORD PTR [rsp+0x8],r8
    1d13:	e8 e8 31 00 00       	call   4f00 <pqcrystals_kyber512_ref_poly_getnoise_eta2>
    1d18:	48 89 ee             	mov    rsi,rbp
    1d1b:	ba 03 00 00 00       	mov    edx,0x3
    1d20:	48 8d bc 24 20 10 00 	lea    rdi,[rsp+0x1020]
    1d27:	00 
    1d28:	e8 d3 31 00 00       	call   4f00 <pqcrystals_kyber512_ref_poly_getnoise_eta2>
    1d2d:	48 89 ee             	mov    rsi,rbp
    1d30:	ba 04 00 00 00       	mov    edx,0x4
    1d35:	4c 89 ff             	mov    rdi,r15
    1d38:	e8 c3 31 00 00       	call   4f00 <pqcrystals_kyber512_ref_poly_getnoise_eta2>
    1d3d:	4c 89 ef             	mov    rdi,r13
    1d40:	48 8d 6c 24 20       	lea    rbp,[rsp+0x20]
    1d45:	e8 e6 04 00 00       	call   2230 <pqcrystals_kyber512_ref_polyvec_ntt>
    1d4a:	48 8b 74 24 10       	mov    rsi,QWORD PTR [rsp+0x10]
    1d4f:	4c 89 ea             	mov    rdx,r13
    1d52:	4c 89 e7             	mov    rdi,r12
    1d55:	e8 16 05 00 00       	call   2270 <pqcrystals_kyber512_ref_polyvec_basemul_acc_montgomery>
    1d5a:	48 8d b4 24 20 1a 00 	lea    rsi,[rsp+0x1a20]
    1d61:	00 
    1d62:	48 8d bc 24 20 14 00 	lea    rdi,[rsp+0x1420]
    1d69:	00 
    1d6a:	4c 89 ea             	mov    rdx,r13
    1d6d:	e8 fe 04 00 00       	call   2270 <pqcrystals_kyber512_ref_polyvec_basemul_acc_montgomery>
    1d72:	48 8b 74 24 18       	mov    rsi,QWORD PTR [rsp+0x18]
    1d77:	4c 89 ea             	mov    rdx,r13
    1d7a:	48 89 ef             	mov    rdi,rbp
    1d7d:	e8 ee 04 00 00       	call   2270 <pqcrystals_kyber512_ref_polyvec_basemul_acc_montgomery>
    1d82:	4c 89 e7             	mov    rdi,r12
    1d85:	e8 c6 04 00 00       	call   2250 <pqcrystals_kyber512_ref_polyvec_invntt_tomont>
    1d8a:	48 89 ef             	mov    rdi,rbp
    1d8d:	e8 1e 32 00 00       	call   4fb0 <pqcrystals_kyber512_ref_poly_invntt_tomont>
    1d92:	48 8b 54 24 08       	mov    rdx,QWORD PTR [rsp+0x8]
    1d97:	4c 89 e6             	mov    rsi,r12
    1d9a:	4c 89 e7             	mov    rdi,r12
    1d9d:	e8 7e 05 00 00       	call   2320 <pqcrystals_kyber512_ref_polyvec_add>
    1da2:	4c 89 fa             	mov    rdx,r15
    1da5:	48 89 ee             	mov    rsi,rbp
    1da8:	48 89 ef             	mov    rdi,rbp
    1dab:	e8 10 33 00 00       	call   50c0 <pqcrystals_kyber512_ref_poly_add>
    1db0:	4c 89 f2             	mov    rdx,r14
    1db3:	48 89 ee             	mov    rsi,rbp
    1db6:	48 89 ef             	mov    rdi,rbp
    1db9:	e8 02 33 00 00       	call   50c0 <pqcrystals_kyber512_ref_poly_add>
    1dbe:	4c 89 e7             	mov    rdi,r12
    1dc1:	e8 3a 05 00 00       	call   2300 <pqcrystals_kyber512_ref_polyvec_reduce>
    1dc6:	48 89 ef             	mov    rdi,rbp
    1dc9:	e8 b2 32 00 00       	call   5080 <pqcrystals_kyber512_ref_poly_reduce>
    1dce:	4c 89 e6             	mov    rsi,r12
    1dd1:	48 89 df             	mov    rdi,rbx
    1dd4:	e8 27 01 00 00       	call   1f00 <pqcrystals_kyber512_ref_polyvec_compress>
    1dd9:	48 8d bb 80 02 00 00 	lea    rdi,[rbx+0x280]
    1de0:	48 89 ee             	mov    rsi,rbp
    1de3:	e8 78 05 00 00       	call   2360 <pqcrystals_kyber512_ref_poly_compress>
    1de8:	48 8b 84 24 48 1e 00 	mov    rax,QWORD PTR [rsp+0x1e48]
    1def:	00 
    1df0:	64 48 2b 04 25 28 00 	sub    rax,QWORD PTR fs:0x28
    1df7:	00 00 
    1df9:	75 12                	jne    1e0d <pqcrystals_kyber512_ref_indcpa_enc+0x1fd>
    1dfb:	48 81 c4 58 1e 00 00 	add    rsp,0x1e58
    1e02:	5b                   	pop    rbx
    1e03:	5d                   	pop    rbp
    1e04:	41 5c                	pop    r12
    1e06:	41 5d                	pop    r13
    1e08:	41 5e                	pop    r14
    1e0a:	41 5f                	pop    r15
    1e0c:	c3                   	ret    
    1e0d:	e8 ee f2 ff ff       	call   1100 <__stack_chk_fail@plt>
    1e12:	66 66 2e 0f 1f 84 00 	data16 cs nop WORD PTR [rax+rax*1+0x0]
    1e19:	00 00 00 00 
    1e1d:	0f 1f 00             	nop    DWORD PTR [rax]

0000000000001e20 <pqcrystals_kyber512_ref_indcpa_dec>:
    1e20:	f3 0f 1e fa          	endbr64 
    1e24:	41 57                	push   r15
    1e26:	41 56                	push   r14
    1e28:	49 89 d6             	mov    r14,rdx
    1e2b:	41 55                	push   r13
    1e2d:	41 54                	push   r12
    1e2f:	49 89 fc             	mov    r12,rdi
    1e32:	55                   	push   rbp
    1e33:	48 89 f5             	mov    rbp,rsi
    1e36:	53                   	push   rbx
    1e37:	48 81 ec 18 0c 00 00 	sub    rsp,0xc18
    1e3e:	64 48 8b 04 25 28 00 	mov    rax,QWORD PTR fs:0x28
    1e45:	00 00 
    1e47:	48 89 84 24 08 0c 00 	mov    QWORD PTR [rsp+0xc08],rax
    1e4e:	00 
    1e4f:	31 c0                	xor    eax,eax
    1e51:	4c 8d ac 24 00 04 00 	lea    r13,[rsp+0x400]
    1e58:	00 
    1e59:	49 89 e7             	mov    r15,rsp
    1e5c:	48 8d 9c 24 00 08 00 	lea    rbx,[rsp+0x800]
    1e63:	00 
    1e64:	4c 89 ef             	mov    rdi,r13
    1e67:	e8 44 02 00 00       	call   20b0 <pqcrystals_kyber512_ref_polyvec_decompress>
    1e6c:	48 8d b5 80 02 00 00 	lea    rsi,[rbp+0x280]
    1e73:	4c 89 ff             	mov    rdi,r15
    1e76:	48 8d ac 24 00 02 00 	lea    rbp,[rsp+0x200]
    1e7d:	00 
    1e7e:	e8 7d 0d 00 00       	call   2c00 <pqcrystals_kyber512_ref_poly_decompress>
    1e83:	4c 89 f6             	mov    rsi,r14
    1e86:	48 89 df             	mov    rdi,rbx
    1e89:	e8 72 03 00 00       	call   2200 <pqcrystals_kyber512_ref_polyvec_frombytes>
    1e8e:	4c 89 ef             	mov    rdi,r13
    1e91:	e8 9a 03 00 00       	call   2230 <pqcrystals_kyber512_ref_polyvec_ntt>
    1e96:	4c 89 ea             	mov    rdx,r13
    1e99:	48 89 de             	mov    rsi,rbx
    1e9c:	48 89 ef             	mov    rdi,rbp
    1e9f:	e8 cc 03 00 00       	call   2270 <pqcrystals_kyber512_ref_polyvec_basemul_acc_montgomery>
    1ea4:	48 89 ef             	mov    rdi,rbp
    1ea7:	e8 04 31 00 00       	call   4fb0 <pqcrystals_kyber512_ref_poly_invntt_tomont>
    1eac:	4c 89 fe             	mov    rsi,r15
    1eaf:	48 89 ea             	mov    rdx,rbp
    1eb2:	48 89 ef             	mov    rdi,rbp
    1eb5:	e8 36 32 00 00       	call   50f0 <pqcrystals_kyber512_ref_poly_sub>
    1eba:	48 89 ef             	mov    rdi,rbp
    1ebd:	e8 be 31 00 00       	call   5080 <pqcrystals_kyber512_ref_poly_reduce>
    1ec2:	48 89 ee             	mov    rsi,rbp
    1ec5:	4c 89 e7             	mov    rdi,r12
    1ec8:	e8 e3 1b 00 00       	call   3ab0 <pqcrystals_kyber512_ref_poly_tomsg>
    1ecd:	48 8b 84 24 08 0c 00 	mov    rax,QWORD PTR [rsp+0xc08]
    1ed4:	00 
    1ed5:	64 48 2b 04 25 28 00 	sub    rax,QWORD PTR fs:0x28
    1edc:	00 00 
    1ede:	75 12                	jne    1ef2 <pqcrystals_kyber512_ref_indcpa_dec+0xd2>
    1ee0:	48 81 c4 18 0c 00 00 	add    rsp,0xc18
    1ee7:	5b                   	pop    rbx
    1ee8:	5d                   	pop    rbp
    1ee9:	41 5c                	pop    r12
    1eeb:	41 5d                	pop    r13
    1eed:	41 5e                	pop    r14
    1eef:	41 5f                	pop    r15
    1ef1:	c3                   	ret    
    1ef2:	e8 09 f2 ff ff       	call   1100 <__stack_chk_fail@plt>
    1ef7:	66 0f 1f 84 00 00 00 	nop    WORD PTR [rax+rax*1+0x0]
    1efe:	00 00 

0000000000001f00 <pqcrystals_kyber512_ref_polyvec_compress>:
    1f00:	f3 0f 1e fa          	endbr64 
    1f04:	41 54                	push   r12
    1f06:	49 89 f8             	mov    r8,rdi
    1f09:	48 89 f7             	mov    rdi,rsi
    1f0c:	55                   	push   rbp
    1f0d:	49 8d b0 40 01 00 00 	lea    rsi,[r8+0x140]
    1f14:	49 81 c0 c0 03 00 00 	add    r8,0x3c0
    1f1b:	53                   	push   rbx
    1f1c:	48 8d 96 c0 fe ff ff 	lea    rdx,[rsi-0x140]
    1f23:	48 89 f9             	mov    rcx,rdi
    1f26:	66 2e 0f 1f 84 00 00 	cs nop WORD PTR [rax+rax*1+0x0]
    1f2d:	00 00 00 
    1f30:	44 0f b7 09          	movzx  r9d,WORD PTR [rcx]
    1f34:	44 89 c8             	mov    eax,r9d
    1f37:	66 c1 f8 0f          	sar    ax,0xf
    1f3b:	66 25 01 0d          	and    ax,0xd01
    1f3f:	44 01 c8             	add    eax,r9d
    1f42:	0f b7 c0             	movzx  eax,ax
    1f45:	c1 e0 0a             	shl    eax,0xa
    1f48:	44 8d 88 80 06 00 00 	lea    r9d,[rax+0x680]
    1f4f:	4c 89 c8             	mov    rax,r9
    1f52:	4d 69 c9 81 76 fb 3a 	imul   r9,r9,0x3afb7681
    1f59:	49 c1 e9 20          	shr    r9,0x20
    1f5d:	44 29 c8             	sub    eax,r9d
    1f60:	d1 e8                	shr    eax,1
    1f62:	44 01 c8             	add    eax,r9d
    1f65:	c1 e8 0b             	shr    eax,0xb
    1f68:	89 c3                	mov    ebx,eax
    1f6a:	0f b7 41 02          	movzx  eax,WORD PTR [rcx+0x2]
    1f6e:	66 81 e3 ff 03       	and    bx,0x3ff
    1f73:	41 89 c3             	mov    r11d,eax
    1f76:	66 41 c1 fb 0f       	sar    r11w,0xf
    1f7b:	66 41 81 e3 01 0d    	and    r11w,0xd01
    1f81:	41 01 c3             	add    r11d,eax
    1f84:	45 0f b7 db          	movzx  r11d,r11w
    1f88:	41 c1 e3 0a          	shl    r11d,0xa
    1f8c:	41 8d 83 80 06 00 00 	lea    eax,[r11+0x680]
    1f93:	49 89 c3             	mov    r11,rax
    1f96:	48 69 c0 81 76 fb 3a 	imul   rax,rax,0x3afb7681
    1f9d:	48 c1 e8 20          	shr    rax,0x20
    1fa1:	41 29 c3             	sub    r11d,eax
    1fa4:	41 d1 eb             	shr    r11d,1
    1fa7:	41 01 c3             	add    r11d,eax
    1faa:	0f b7 41 04          	movzx  eax,WORD PTR [rcx+0x4]
    1fae:	41 c1 eb 0b          	shr    r11d,0xb
    1fb2:	41 89 c2             	mov    r10d,eax
    1fb5:	45 89 dc             	mov    r12d,r11d
    1fb8:	66 41 c1 fa 0f       	sar    r10w,0xf
    1fbd:	66 41 81 e4 ff 03    	and    r12w,0x3ff
    1fc3:	66 41 81 e2 01 0d    	and    r10w,0xd01
    1fc9:	41 01 c2             	add    r10d,eax
    1fcc:	45 0f b7 d2          	movzx  r10d,r10w
    1fd0:	41 c1 e2 0a          	shl    r10d,0xa
    1fd4:	41 8d 82 80 06 00 00 	lea    eax,[r10+0x680]
    1fdb:	49 89 c2             	mov    r10,rax
    1fde:	48 69 c0 81 76 fb 3a 	imul   rax,rax,0x3afb7681
    1fe5:	48 c1 e8 20          	shr    rax,0x20
    1fe9:	41 29 c2             	sub    r10d,eax
    1fec:	41 d1 ea             	shr    r10d,1
    1fef:	41 01 c2             	add    r10d,eax
    1ff2:	0f b7 41 06          	movzx  eax,WORD PTR [rcx+0x6]
    1ff6:	88 1a                	mov    BYTE PTR [rdx],bl
    1ff8:	41 c1 ea 0b          	shr    r10d,0xb
    1ffc:	44 89 d5             	mov    ebp,r10d
    1fff:	41 89 c1             	mov    r9d,eax
    2002:	66 81 e5 ff 03       	and    bp,0x3ff
    2007:	66 41 c1 f9 0f       	sar    r9w,0xf
    200c:	48 83 c2 05          	add    rdx,0x5
    2010:	48 83 c1 08          	add    rcx,0x8
    2014:	66 c1 eb 08          	shr    bx,0x8
    2018:	66 41 81 e1 01 0d    	and    r9w,0xd01
    201e:	41 c1 e3 02          	shl    r11d,0x2
    2022:	66 41 c1 ec 06       	shr    r12w,0x6
    2027:	41 01 c1             	add    r9d,eax
    202a:	41 c1 e2 04          	shl    r10d,0x4
    202e:	41 09 db             	or     r11d,ebx
    2031:	45 0f b7 c9          	movzx  r9d,r9w
    2035:	66 c1 ed 04          	shr    bp,0x4
    2039:	45 09 e2             	or     r10d,r12d
    203c:	44 88 5a fc          	mov    BYTE PTR [rdx-0x4],r11b
    2040:	41 c1 e1 0a          	shl    r9d,0xa
    2044:	44 88 52 fd          	mov    BYTE PTR [rdx-0x3],r10b
    2048:	41 8d 81 80 06 00 00 	lea    eax,[r9+0x680]
    204f:	49 89 c1             	mov    r9,rax
    2052:	48 69 c0 81 76 fb 3a 	imul   rax,rax,0x3afb7681
    2059:	48 c1 e8 20          	shr    rax,0x20
    205d:	41 29 c1             	sub    r9d,eax
    2060:	41 d1 e9             	shr    r9d,1
    2063:	41 01 c1             	add    r9d,eax
    2066:	44 89 c8             	mov    eax,r9d
    2069:	c1 e8 0b             	shr    eax,0xb
    206c:	41 89 c1             	mov    r9d,eax
    206f:	c1 e0 06             	shl    eax,0x6
    2072:	66 41 81 e1 ff 03    	and    r9w,0x3ff
    2078:	09 e8                	or     eax,ebp
    207a:	66 41 c1 e9 02       	shr    r9w,0x2
    207f:	88 42 fe             	mov    BYTE PTR [rdx-0x2],al
    2082:	44 88 4a ff          	mov    BYTE PTR [rdx-0x1],r9b
    2086:	48 39 f2             	cmp    rdx,rsi
    2089:	0f 85 a1 fe ff ff    	jne    1f30 <pqcrystals_kyber512_ref_polyvec_compress+0x30>
    208f:	48 8d b2 40 01 00 00 	lea    rsi,[rdx+0x140]
    2096:	48 81 c7 00 02 00 00 	add    rdi,0x200
    209d:	49 39 f0             	cmp    r8,rsi
    20a0:	0f 85 76 fe ff ff    	jne    1f1c <pqcrystals_kyber512_ref_polyvec_compress+0x1c>
    20a6:	5b                   	pop    rbx
    20a7:	5d                   	pop    rbp
    20a8:	41 5c                	pop    r12
    20aa:	c3                   	ret    
    20ab:	0f 1f 44 00 00       	nop    DWORD PTR [rax+rax*1+0x0]

00000000000020b0 <pqcrystals_kyber512_ref_polyvec_decompress>:
    20b0:	f3 0f 1e fa          	endbr64 
    20b4:	55                   	push   rbp
    20b5:	48 81 c6 40 01 00 00 	add    rsi,0x140
    20bc:	45 31 c0             	xor    r8d,r8d
    20bf:	53                   	push   rbx
    20c0:	4c 89 c1             	mov    rcx,r8
    20c3:	48 8d 96 c0 fe ff ff 	lea    rdx,[rsi-0x140]
    20ca:	48 c1 e1 09          	shl    rcx,0x9
    20ce:	48 01 f9             	add    rcx,rdi
    20d1:	0f 1f 80 00 00 00 00 	nop    DWORD PTR [rax+0x0]
    20d8:	44 0f b6 52 01       	movzx  r10d,BYTE PTR [rdx+0x1]
    20dd:	0f b6 42 02          	movzx  eax,BYTE PTR [rdx+0x2]
    20e1:	48 83 c2 05          	add    rdx,0x5
    20e5:	0f b6 6a fe          	movzx  ebp,BYTE PTR [rdx-0x2]
    20e9:	0f b6 5a ff          	movzx  ebx,BYTE PTR [rdx-0x1]
    20ed:	41 c0 ea 02          	shr    r10b,0x2
    20f1:	41 89 c3             	mov    r11d,eax
    20f4:	c1 e0 06             	shl    eax,0x6
    20f7:	44 0f b7 4a fb       	movzx  r9d,WORD PTR [rdx-0x5]
    20fc:	41 c0 eb 04          	shr    r11b,0x4
    2100:	45 0f b6 d2          	movzx  r10d,r10b
    2104:	c1 e3 02             	shl    ebx,0x2
    2107:	41 09 c2             	or     r10d,eax
    210a:	89 e8                	mov    eax,ebp
    210c:	45 0f b6 db          	movzx  r11d,r11b
    2110:	c1 e5 04             	shl    ebp,0x4
    2113:	c0 e8 06             	shr    al,0x6
    2116:	41 09 eb             	or     r11d,ebp
    2119:	41 81 e2 ff 03 00 00 	and    r10d,0x3ff
    2120:	41 81 e1 ff 03 00 00 	and    r9d,0x3ff
    2127:	83 e0 03             	and    eax,0x3
    212a:	41 81 e3 ff 03 00 00 	and    r11d,0x3ff
    2131:	09 d8                	or     eax,ebx
    2133:	45 69 db 01 0d 00 00 	imul   r11d,r11d,0xd01
    213a:	69 c0 01 0d 00 00    	imul   eax,eax,0xd01
    2140:	45 69 d2 01 0d 00 00 	imul   r10d,r10d,0xd01
    2147:	41 81 c3 00 02 00 00 	add    r11d,0x200
    214e:	45 69 c9 01 0d 00 00 	imul   r9d,r9d,0xd01
    2155:	05 00 02 00 00       	add    eax,0x200
    215a:	41 c1 eb 0a          	shr    r11d,0xa
    215e:	c1 e8 0a             	shr    eax,0xa
    2161:	41 81 c2 00 02 00 00 	add    r10d,0x200
    2168:	45 0f b7 db          	movzx  r11d,r11w
    216c:	0f b7 c0             	movzx  eax,ax
    216f:	41 c1 ea 0a          	shr    r10d,0xa
    2173:	41 81 c1 00 02 00 00 	add    r9d,0x200
    217a:	48 c1 e0 10          	shl    rax,0x10
    217e:	45 0f b7 d2          	movzx  r10d,r10w
    2182:	41 c1 e9 0a          	shr    r9d,0xa
    2186:	4c 09 d8             	or     rax,r11
    2189:	45 0f b7 c9          	movzx  r9d,r9w
    218d:	48 c1 e0 10          	shl    rax,0x10
    2191:	4c 09 d0             	or     rax,r10
    2194:	48 c1 e0 10          	shl    rax,0x10
    2198:	4c 09 c8             	or     rax,r9
    219b:	48 83 c1 08          	add    rcx,0x8
    219f:	48 89 41 f8          	mov    QWORD PTR [rcx-0x8],rax
    21a3:	48 39 f2             	cmp    rdx,rsi
    21a6:	0f 85 2c ff ff ff    	jne    20d8 <pqcrystals_kyber512_ref_polyvec_decompress+0x28>
    21ac:	48 81 c6 40 01 00 00 	add    rsi,0x140
    21b3:	49 83 f8 01          	cmp    r8,0x1
    21b7:	74 0b                	je     21c4 <pqcrystals_kyber512_ref_polyvec_decompress+0x114>
    21b9:	41 b8 01 00 00 00    	mov    r8d,0x1
    21bf:	e9 fc fe ff ff       	jmp    20c0 <pqcrystals_kyber512_ref_polyvec_decompress+0x10>
    21c4:	5b                   	pop    rbx
    21c5:	5d                   	pop    rbp
    21c6:	c3                   	ret    
    21c7:	66 0f 1f 84 00 00 00 	nop    WORD PTR [rax+rax*1+0x0]
    21ce:	00 00 

00000000000021d0 <pqcrystals_kyber512_ref_polyvec_tobytes>:
    21d0:	f3 0f 1e fa          	endbr64 
    21d4:	55                   	push   rbp
    21d5:	48 89 f5             	mov    rbp,rsi
    21d8:	53                   	push   rbx
    21d9:	48 89 fb             	mov    rbx,rdi
    21dc:	48 83 ec 08          	sub    rsp,0x8
    21e0:	e8 6b 0f 00 00       	call   3150 <pqcrystals_kyber512_ref_poly_tobytes>
    21e5:	48 83 c4 08          	add    rsp,0x8
    21e9:	48 8d b5 00 02 00 00 	lea    rsi,[rbp+0x200]
    21f0:	48 8d bb 80 01 00 00 	lea    rdi,[rbx+0x180]
    21f7:	5b                   	pop    rbx
    21f8:	5d                   	pop    rbp
    21f9:	e9 52 0f 00 00       	jmp    3150 <pqcrystals_kyber512_ref_poly_tobytes>
    21fe:	66 90                	xchg   ax,ax

0000000000002200 <pqcrystals_kyber512_ref_polyvec_frombytes>:
    2200:	f3 0f 1e fa          	endbr64 
    2204:	55                   	push   rbp
    2205:	48 89 f5             	mov    rbp,rsi
    2208:	53                   	push   rbx
    2209:	48 89 fb             	mov    rbx,rdi
    220c:	48 83 ec 08          	sub    rsp,0x8
    2210:	e8 9b 0f 00 00       	call   31b0 <pqcrystals_kyber512_ref_poly_frombytes>
    2215:	48 83 c4 08          	add    rsp,0x8
    2219:	48 8d b5 80 01 00 00 	lea    rsi,[rbp+0x180]
    2220:	48 8d bb 00 02 00 00 	lea    rdi,[rbx+0x200]
    2227:	5b                   	pop    rbx
    2228:	5d                   	pop    rbp
    2229:	e9 82 0f 00 00       	jmp    31b0 <pqcrystals_kyber512_ref_poly_frombytes>
    222e:	66 90                	xchg   ax,ax

0000000000002230 <pqcrystals_kyber512_ref_polyvec_ntt>:
    2230:	f3 0f 1e fa          	endbr64 
    2234:	53                   	push   rbx
    2235:	48 89 fb             	mov    rbx,rdi
    2238:	e8 33 2d 00 00       	call   4f70 <pqcrystals_kyber512_ref_poly_ntt>
    223d:	48 8d bb 00 02 00 00 	lea    rdi,[rbx+0x200]
    2244:	5b                   	pop    rbx
    2245:	e9 26 2d 00 00       	jmp    4f70 <pqcrystals_kyber512_ref_poly_ntt>
    224a:	66 0f 1f 44 00 00    	nop    WORD PTR [rax+rax*1+0x0]

0000000000002250 <pqcrystals_kyber512_ref_polyvec_invntt_tomont>:
    2250:	f3 0f 1e fa          	endbr64 
    2254:	53                   	push   rbx
    2255:	48 89 fb             	mov    rbx,rdi
    2258:	e8 53 2d 00 00       	call   4fb0 <pqcrystals_kyber512_ref_poly_invntt_tomont>
    225d:	48 8d bb 00 02 00 00 	lea    rdi,[rbx+0x200]
    2264:	5b                   	pop    rbx
    2265:	e9 46 2d 00 00       	jmp    4fb0 <pqcrystals_kyber512_ref_poly_invntt_tomont>
    226a:	66 0f 1f 44 00 00    	nop    WORD PTR [rax+rax*1+0x0]

0000000000002270 <pqcrystals_kyber512_ref_polyvec_basemul_acc_montgomery>:
    2270:	f3 0f 1e fa          	endbr64 
    2274:	41 54                	push   r12
    2276:	49 89 d4             	mov    r12,rdx
    2279:	55                   	push   rbp
    227a:	48 89 fd             	mov    rbp,rdi
    227d:	53                   	push   rbx
    227e:	48 89 f3             	mov    rbx,rsi
    2281:	48 81 ec 10 02 00 00 	sub    rsp,0x210
    2288:	64 48 8b 04 25 28 00 	mov    rax,QWORD PTR fs:0x28
    228f:	00 00 
    2291:	48 89 84 24 08 02 00 	mov    QWORD PTR [rsp+0x208],rax
    2298:	00 
    2299:	31 c0                	xor    eax,eax
    229b:	e8 20 2d 00 00       	call   4fc0 <pqcrystals_kyber512_ref_poly_basemul_montgomery>
    22a0:	49 8d 94 24 00 02 00 	lea    rdx,[r12+0x200]
    22a7:	00 
    22a8:	49 89 e4             	mov    r12,rsp
    22ab:	48 8d b3 00 02 00 00 	lea    rsi,[rbx+0x200]
    22b2:	4c 89 e7             	mov    rdi,r12
    22b5:	e8 06 2d 00 00       	call   4fc0 <pqcrystals_kyber512_ref_poly_basemul_montgomery>
    22ba:	48 89 ef             	mov    rdi,rbp
    22bd:	4c 89 e2             	mov    rdx,r12
    22c0:	48 89 ee             	mov    rsi,rbp
    22c3:	e8 f8 2d 00 00       	call   50c0 <pqcrystals_kyber512_ref_poly_add>
    22c8:	48 89 ef             	mov    rdi,rbp
    22cb:	e8 b0 2d 00 00       	call   5080 <pqcrystals_kyber512_ref_poly_reduce>
    22d0:	48 8b 84 24 08 02 00 	mov    rax,QWORD PTR [rsp+0x208]
    22d7:	00 
    22d8:	64 48 2b 04 25 28 00 	sub    rax,QWORD PTR fs:0x28
    22df:	00 00 
    22e1:	75 0c                	jne    22ef <pqcrystals_kyber512_ref_polyvec_basemul_acc_montgomery+0x7f>
    22e3:	48 81 c4 10 02 00 00 	add    rsp,0x210
    22ea:	5b                   	pop    rbx
    22eb:	5d                   	pop    rbp
    22ec:	41 5c                	pop    r12
    22ee:	c3                   	ret    
    22ef:	e8 0c ee ff ff       	call   1100 <__stack_chk_fail@plt>
    22f4:	66 66 2e 0f 1f 84 00 	data16 cs nop WORD PTR [rax+rax*1+0x0]
    22fb:	00 00 00 00 
    22ff:	90                   	nop

0000000000002300 <pqcrystals_kyber512_ref_polyvec_reduce>:
    2300:	f3 0f 1e fa          	endbr64 
    2304:	53                   	push   rbx
    2305:	48 89 fb             	mov    rbx,rdi
    2308:	e8 73 2d 00 00       	call   5080 <pqcrystals_kyber512_ref_poly_reduce>
    230d:	48 8d bb 00 02 00 00 	lea    rdi,[rbx+0x200]
    2314:	5b                   	pop    rbx
    2315:	e9 66 2d 00 00       	jmp    5080 <pqcrystals_kyber512_ref_poly_reduce>
    231a:	66 0f 1f 44 00 00    	nop    WORD PTR [rax+rax*1+0x0]

0000000000002320 <pqcrystals_kyber512_ref_polyvec_add>:
    2320:	f3 0f 1e fa          	endbr64 
    2324:	41 54                	push   r12
    2326:	49 89 d4             	mov    r12,rdx
    2329:	55                   	push   rbp
    232a:	48 89 f5             	mov    rbp,rsi
    232d:	53                   	push   rbx
    232e:	48 89 fb             	mov    rbx,rdi
    2331:	e8 8a 2d 00 00       	call   50c0 <pqcrystals_kyber512_ref_poly_add>
    2336:	49 8d 94 24 00 02 00 	lea    rdx,[r12+0x200]
    233d:	00 
    233e:	48 8d b5 00 02 00 00 	lea    rsi,[rbp+0x200]
    2345:	48 8d bb 00 02 00 00 	lea    rdi,[rbx+0x200]
    234c:	5b                   	pop    rbx
    234d:	5d                   	pop    rbp
    234e:	41 5c                	pop    r12
    2350:	e9 6b 2d 00 00       	jmp    50c0 <pqcrystals_kyber512_ref_poly_add>
    2355:	66 2e 0f 1f 84 00 00 	cs nop WORD PTR [rax+rax*1+0x0]
    235c:	00 00 00 
    235f:	90                   	nop

0000000000002360 <pqcrystals_kyber512_ref_poly_compress>:
    2360:	f3 0f 1e fa          	endbr64 
    2364:	48 8d 86 00 02 00 00 	lea    rax,[rsi+0x200]
    236b:	41 54                	push   r12
    236d:	48 89 f9             	mov    rcx,rdi
    2370:	48 89 f2             	mov    rdx,rsi
    2373:	55                   	push   rbp
    2374:	53                   	push   rbx
    2375:	48 39 c7             	cmp    rdi,rax
    2378:	73 0d                	jae    2387 <pqcrystals_kyber512_ref_poly_compress+0x27>
    237a:	48 83 ef 80          	sub    rdi,0xffffffffffffff80
    237e:	48 39 fe             	cmp    rsi,rdi
    2381:	0f 82 71 06 00 00    	jb     29f8 <pqcrystals_kyber512_ref_poly_compress+0x698>
    2387:	66 0f 6f 15 a1 8c 00 	movdqa xmm2,XMMWORD PTR [rip+0x8ca1]        # b030 <_IO_stdin_used+0x30>
    238e:	00 
    238f:	66 0f ef ff          	pxor   xmm7,xmm7
    2393:	66 44 0f 6f 1d 84 8c 	movdqa xmm11,XMMWORD PTR [rip+0x8c84]        # b020 <_IO_stdin_used+0x20>
    239a:	00 00 
    239c:	66 44 0f 6f c7       	movdqa xmm8,xmm7
    23a1:	66 44 0f 66 c2       	pcmpgtd xmm8,xmm2
    23a6:	66 2e 0f 1f 84 00 00 	cs nop WORD PTR [rax+rax*1+0x0]
    23ad:	00 00 00 
    23b0:	f3 0f 6f 0a          	movdqu xmm1,XMMWORD PTR [rdx]
    23b4:	f3 44 0f 6f 6a 10    	movdqu xmm13,XMMWORD PTR [rdx+0x10]
    23ba:	48 83 c2 40          	add    rdx,0x40
    23be:	48 83 c1 10          	add    rcx,0x10
    23c2:	f3 44 0f 6f 52 f0    	movdqu xmm10,XMMWORD PTR [rdx-0x10]
    23c8:	f3 0f 6f 6a e0       	movdqu xmm5,XMMWORD PTR [rdx-0x20]
    23cd:	66 0f 6f d9          	movdqa xmm3,xmm1
    23d1:	66 44 0f 6f e1       	movdqa xmm12,xmm1
    23d6:	66 41 0f 61 cd       	punpcklwd xmm1,xmm13
    23db:	66 41 0f 61 dd       	punpcklwd xmm3,xmm13
    23e0:	66 45 0f 69 e5       	punpckhwd xmm12,xmm13
    23e5:	66 0f 6f c5          	movdqa xmm0,xmm5
    23e9:	0f 29 6c 24 f0       	movaps XMMWORD PTR [rsp-0x10],xmm5
    23ee:	66 44 0f 6f fb       	movdqa xmm15,xmm3
    23f3:	66 41 0f 61 dc       	punpcklwd xmm3,xmm12
    23f8:	66 41 0f 61 ea       	punpcklwd xmm5,xmm10
    23fd:	66 45 0f 69 fc       	punpckhwd xmm15,xmm12
    2402:	66 41 0f 69 c2       	punpckhwd xmm0,xmm10
    2407:	66 44 0f 6f f5       	movdqa xmm14,xmm5
    240c:	66 41 0f 61 df       	punpcklwd xmm3,xmm15
    2411:	66 44 0f 69 f0       	punpckhwd xmm14,xmm0
    2416:	66 0f 61 e8          	punpcklwd xmm5,xmm0
    241a:	66 0f 6f e3          	movdqa xmm4,xmm3
    241e:	66 41 0f 61 ee       	punpcklwd xmm5,xmm14
    2423:	66 44 0f 6f c8       	movdqa xmm9,xmm0
    2428:	66 0f 71 e4 0f       	psraw  xmm4,0xf
    242d:	66 0f db 25 db 8b 00 	pand   xmm4,XMMWORD PTR [rip+0x8bdb]        # b010 <_IO_stdin_used+0x10>
    2434:	00 
    2435:	66 41 0f 61 cc       	punpcklwd xmm1,xmm12
    243a:	66 41 0f 69 cf       	punpckhwd xmm1,xmm15
    243f:	66 44 0f 6f ff       	movdqa xmm15,xmm7
    2444:	66 0f fd e3          	paddw  xmm4,xmm3
    2448:	66 0f 6f dd          	movdqa xmm3,xmm5
    244c:	66 0f 71 e3 0f       	psraw  xmm3,0xf
    2451:	66 0f db 1d b7 8b 00 	pand   xmm3,XMMWORD PTR [rip+0x8bb7]        # b010 <_IO_stdin_used+0x10>
    2458:	00 
    2459:	66 0f 6f f4          	movdqa xmm6,xmm4
    245d:	66 0f fd dd          	paddw  xmm3,xmm5
    2461:	66 0f ef ed          	pxor   xmm5,xmm5
    2465:	66 0f 6f c3          	movdqa xmm0,xmm3
    2469:	66 0f 61 f5          	punpcklwd xmm6,xmm5
    246d:	66 0f 69 e5          	punpckhwd xmm4,xmm5
    2471:	66 0f 72 f6 04       	pslld  xmm6,0x4
    2476:	66 0f 72 f4 04       	pslld  xmm4,0x4
    247b:	66 0f 61 c5          	punpcklwd xmm0,xmm5
    247f:	66 0f 6f e8          	movdqa xmm5,xmm0
    2483:	66 0f ef c0          	pxor   xmm0,xmm0
    2487:	66 41 0f fe f3       	paddd  xmm6,xmm11
    248c:	66 0f 69 d8          	punpckhwd xmm3,xmm0
    2490:	66 0f 6f 44 24 f0    	movdqa xmm0,XMMWORD PTR [rsp-0x10]
    2496:	66 41 0f fe e3       	paddd  xmm4,xmm11
    249b:	66 0f 72 f5 04       	pslld  xmm5,0x4
    24a0:	66 0f 72 f3 04       	pslld  xmm3,0x4
    24a5:	66 41 0f 61 c2       	punpcklwd xmm0,xmm10
    24aa:	66 44 0f 6f d1       	movdqa xmm10,xmm1
    24af:	66 41 0f fe eb       	paddd  xmm5,xmm11
    24b4:	66 41 0f 61 c1       	punpcklwd xmm0,xmm9
    24b9:	66 41 0f 71 e2 0f    	psraw  xmm10,0xf
    24bf:	66 41 0f fe db       	paddd  xmm3,xmm11
    24c4:	66 44 0f db 15 43 8b 	pand   xmm10,XMMWORD PTR [rip+0x8b43]        # b010 <_IO_stdin_used+0x10>
    24cb:	00 00 
    24cd:	66 41 0f 69 c6       	punpckhwd xmm0,xmm14
    24d2:	66 44 0f 6f c8       	movdqa xmm9,xmm0
    24d7:	66 41 0f 71 e1 0f    	psraw  xmm9,0xf
    24dd:	66 44 0f fd d1       	paddw  xmm10,xmm1
    24e2:	66 41 0f 6f c8       	movdqa xmm1,xmm8
    24e7:	66 44 0f db 0d 20 8b 	pand   xmm9,XMMWORD PTR [rip+0x8b20]        # b010 <_IO_stdin_used+0x10>
    24ee:	00 00 
    24f0:	66 45 0f 6f ea       	movdqa xmm13,xmm10
    24f5:	66 44 0f fd c8       	paddw  xmm9,xmm0
    24fa:	66 0f ef c0          	pxor   xmm0,xmm0
    24fe:	66 44 0f 61 e8       	punpcklwd xmm13,xmm0
    2503:	66 45 0f 6f f1       	movdqa xmm14,xmm9
    2508:	66 44 0f 69 d0       	punpckhwd xmm10,xmm0
    250d:	66 41 0f 72 f5 04    	pslld  xmm13,0x4
    2513:	66 44 0f 61 f0       	punpcklwd xmm14,xmm0
    2518:	66 44 0f 69 c8       	punpckhwd xmm9,xmm0
    251d:	66 45 0f fe eb       	paddd  xmm13,xmm11
    2522:	66 41 0f 72 f2 04    	pslld  xmm10,0x4
    2528:	66 0f 6f c7          	movdqa xmm0,xmm7
    252c:	66 45 0f 6f e5       	movdqa xmm12,xmm13
    2531:	66 45 0f fe d3       	paddd  xmm10,xmm11
    2536:	66 45 0f 62 e5       	punpckldq xmm12,xmm13
    253b:	66 41 0f 72 f6 04    	pslld  xmm14,0x4
    2541:	66 41 0f 66 c4       	pcmpgtd xmm0,xmm12
    2546:	66 41 0f f4 cc       	pmuludq xmm1,xmm12
    254b:	66 45 0f fe f3       	paddd  xmm14,xmm11
    2550:	66 44 0f f4 e2       	pmuludq xmm12,xmm2
    2555:	66 41 0f 72 f1 04    	pslld  xmm9,0x4
    255b:	66 45 0f fe cb       	paddd  xmm9,xmm11
    2560:	66 0f f4 c2          	pmuludq xmm0,xmm2
    2564:	66 0f d4 c1          	paddq  xmm0,xmm1
    2568:	66 41 0f 6f c8       	movdqa xmm1,xmm8
    256d:	66 0f 73 f0 20       	psllq  xmm0,0x20
    2572:	66 44 0f d4 e0       	paddq  xmm12,xmm0
    2577:	66 41 0f 6f c5       	movdqa xmm0,xmm13
    257c:	66 41 0f 6a c5       	punpckhdq xmm0,xmm13
    2581:	66 44 0f 66 f8       	pcmpgtd xmm15,xmm0
    2586:	66 0f f4 c8          	pmuludq xmm1,xmm0
    258a:	66 0f f4 c2          	pmuludq xmm0,xmm2
    258e:	66 44 0f f4 fa       	pmuludq xmm15,xmm2
    2593:	66 44 0f d4 f9       	paddq  xmm15,xmm1
    2598:	66 41 0f 73 f7 20    	psllq  xmm15,0x20
    259e:	66 41 0f d4 c7       	paddq  xmm0,xmm15
    25a3:	66 45 0f 6f f8       	movdqa xmm15,xmm8
    25a8:	66 0f 6f c8          	movdqa xmm1,xmm0
    25ac:	66 41 0f 6f c4       	movdqa xmm0,xmm12
    25b1:	66 44 0f 6f e7       	movdqa xmm12,xmm7
    25b6:	0f c6 c1 dd          	shufps xmm0,xmm1,0xdd
    25ba:	66 41 0f 6f ca       	movdqa xmm1,xmm10
    25bf:	66 41 0f fe c5       	paddd  xmm0,xmm13
    25c4:	66 45 0f 6f e8       	movdqa xmm13,xmm8
    25c9:	66 41 0f 62 ca       	punpckldq xmm1,xmm10
    25ce:	66 0f 72 e0 0b       	psrad  xmm0,0xb
    25d3:	66 44 0f 66 e1       	pcmpgtd xmm12,xmm1
    25d8:	66 44 0f f4 e9       	pmuludq xmm13,xmm1
    25dd:	66 0f f4 ca          	pmuludq xmm1,xmm2
    25e1:	66 44 0f f4 e2       	pmuludq xmm12,xmm2
    25e6:	66 45 0f d4 e5       	paddq  xmm12,xmm13
    25eb:	66 44 0f 6f ef       	movdqa xmm13,xmm7
    25f0:	66 41 0f 73 f4 20    	psllq  xmm12,0x20
    25f6:	66 41 0f d4 cc       	paddq  xmm1,xmm12
    25fb:	66 45 0f 6f e2       	movdqa xmm12,xmm10
    2600:	66 45 0f 6a e2       	punpckhdq xmm12,xmm10
    2605:	66 45 0f 66 ec       	pcmpgtd xmm13,xmm12
    260a:	66 45 0f f4 fc       	pmuludq xmm15,xmm12
    260f:	66 44 0f f4 e2       	pmuludq xmm12,xmm2
    2614:	66 44 0f f4 ea       	pmuludq xmm13,xmm2
    2619:	66 45 0f d4 ef       	paddq  xmm13,xmm15
    261e:	66 41 0f 73 f5 20    	psllq  xmm13,0x20
    2624:	66 45 0f d4 e5       	paddq  xmm12,xmm13
    2629:	66 45 0f 6f e8       	movdqa xmm13,xmm8
    262e:	41 0f c6 cc dd       	shufps xmm1,xmm12,0xdd
    2633:	66 44 0f fe d1       	paddd  xmm10,xmm1
    2638:	66 0f 6f c8          	movdqa xmm1,xmm0
    263c:	66 45 0f 6f e0       	movdqa xmm12,xmm8
    2641:	66 41 0f 72 e2 0b    	psrad  xmm10,0xb
    2647:	66 41 0f 61 c2       	punpcklwd xmm0,xmm10
    264c:	66 41 0f 69 ca       	punpckhwd xmm1,xmm10
    2651:	66 44 0f 6f d0       	movdqa xmm10,xmm0
    2656:	66 0f 61 c1          	punpcklwd xmm0,xmm1
    265a:	66 44 0f 69 d1       	punpckhwd xmm10,xmm1
    265f:	66 41 0f 6f ce       	movdqa xmm1,xmm14
    2664:	66 41 0f 62 ce       	punpckldq xmm1,xmm14
    2669:	66 41 0f 61 c2       	punpcklwd xmm0,xmm10
    266e:	66 44 0f 6f d7       	movdqa xmm10,xmm7
    2673:	66 44 0f 66 d1       	pcmpgtd xmm10,xmm1
    2678:	66 44 0f f4 e1       	pmuludq xmm12,xmm1
    267d:	66 0f db 05 bb 89 00 	pand   xmm0,XMMWORD PTR [rip+0x89bb]        # b040 <_IO_stdin_used+0x40>
    2684:	00 
    2685:	66 0f f4 ca          	pmuludq xmm1,xmm2
    2689:	66 44 0f f4 d2       	pmuludq xmm10,xmm2
    268e:	66 45 0f d4 d4       	paddq  xmm10,xmm12
    2693:	66 44 0f 6f e7       	movdqa xmm12,xmm7
    2698:	66 41 0f 73 f2 20    	psllq  xmm10,0x20
    269e:	66 41 0f d4 ca       	paddq  xmm1,xmm10
    26a3:	66 45 0f 6f d6       	movdqa xmm10,xmm14
    26a8:	66 45 0f 6a d6       	punpckhdq xmm10,xmm14
    26ad:	66 45 0f 66 e2       	pcmpgtd xmm12,xmm10
    26b2:	66 45 0f f4 ea       	pmuludq xmm13,xmm10
    26b7:	66 44 0f f4 d2       	pmuludq xmm10,xmm2
    26bc:	66 44 0f f4 e2       	pmuludq xmm12,xmm2
    26c1:	66 45 0f d4 e5       	paddq  xmm12,xmm13
    26c6:	66 45 0f 6f e8       	movdqa xmm13,xmm8
    26cb:	66 41 0f 73 f4 20    	psllq  xmm12,0x20
    26d1:	66 45 0f d4 d4       	paddq  xmm10,xmm12
    26d6:	66 44 0f 6f e7       	movdqa xmm12,xmm7
    26db:	41 0f c6 ca dd       	shufps xmm1,xmm10,0xdd
    26e0:	66 45 0f 6f d1       	movdqa xmm10,xmm9
    26e5:	66 41 0f fe ce       	paddd  xmm1,xmm14
    26ea:	66 45 0f 6f f0       	movdqa xmm14,xmm8
    26ef:	66 45 0f 62 d1       	punpckldq xmm10,xmm9
    26f4:	66 0f 72 e1 0b       	psrad  xmm1,0xb
    26f9:	66 45 0f 66 e2       	pcmpgtd xmm12,xmm10
    26fe:	66 45 0f f4 ea       	pmuludq xmm13,xmm10
    2703:	66 44 0f f4 d2       	pmuludq xmm10,xmm2
    2708:	66 44 0f f4 e2       	pmuludq xmm12,xmm2
    270d:	66 45 0f d4 e5       	paddq  xmm12,xmm13
    2712:	66 44 0f 6f ef       	movdqa xmm13,xmm7
    2717:	66 41 0f 73 f4 20    	psllq  xmm12,0x20
    271d:	66 45 0f d4 d4       	paddq  xmm10,xmm12
    2722:	66 45 0f 6f e1       	movdqa xmm12,xmm9
    2727:	66 45 0f 6a e1       	punpckhdq xmm12,xmm9
    272c:	66 45 0f 66 ec       	pcmpgtd xmm13,xmm12
    2731:	66 45 0f f4 f4       	pmuludq xmm14,xmm12
    2736:	66 44 0f f4 e2       	pmuludq xmm12,xmm2
    273b:	66 44 0f f4 ea       	pmuludq xmm13,xmm2
    2740:	66 45 0f d4 ee       	paddq  xmm13,xmm14
    2745:	66 41 0f 73 f5 20    	psllq  xmm13,0x20
    274b:	66 45 0f d4 e5       	paddq  xmm12,xmm13
    2750:	45 0f c6 d4 dd       	shufps xmm10,xmm12,0xdd
    2755:	66 45 0f fe ca       	paddd  xmm9,xmm10
    275a:	66 44 0f 6f d1       	movdqa xmm10,xmm1
    275f:	66 45 0f 6f e0       	movdqa xmm12,xmm8
    2764:	66 41 0f 72 e1 0b    	psrad  xmm9,0xb
    276a:	66 41 0f 61 c9       	punpcklwd xmm1,xmm9
    276f:	66 45 0f 69 d1       	punpckhwd xmm10,xmm9
    2774:	66 44 0f 6f c9       	movdqa xmm9,xmm1
    2779:	66 41 0f 61 ca       	punpcklwd xmm1,xmm10
    277e:	66 45 0f 69 ca       	punpckhwd xmm9,xmm10
    2783:	66 45 0f 6f d0       	movdqa xmm10,xmm8
    2788:	66 41 0f 61 c9       	punpcklwd xmm1,xmm9
    278d:	66 0f db 0d ab 88 00 	pand   xmm1,XMMWORD PTR [rip+0x88ab]        # b040 <_IO_stdin_used+0x40>
    2794:	00 
    2795:	66 44 0f 6f cf       	movdqa xmm9,xmm7
    279a:	66 0f 67 c1          	packuswb xmm0,xmm1
    279e:	66 0f 6f ce          	movdqa xmm1,xmm6
    27a2:	66 0f db 05 a6 88 00 	pand   xmm0,XMMWORD PTR [rip+0x88a6]        # b050 <_IO_stdin_used+0x50>
    27a9:	00 
    27aa:	66 0f 62 ce          	punpckldq xmm1,xmm6
    27ae:	66 44 0f 66 c9       	pcmpgtd xmm9,xmm1
    27b3:	66 44 0f f4 d1       	pmuludq xmm10,xmm1
    27b8:	66 0f fc c0          	paddb  xmm0,xmm0
    27bc:	66 0f f4 ca          	pmuludq xmm1,xmm2
    27c0:	66 0f fc c0          	paddb  xmm0,xmm0
    27c4:	66 0f fc c0          	paddb  xmm0,xmm0
    27c8:	66 44 0f f4 ca       	pmuludq xmm9,xmm2
    27cd:	66 0f fc c0          	paddb  xmm0,xmm0
    27d1:	66 45 0f d4 ca       	paddq  xmm9,xmm10
    27d6:	66 44 0f 6f d7       	movdqa xmm10,xmm7
    27db:	66 41 0f 73 f1 20    	psllq  xmm9,0x20
    27e1:	66 41 0f d4 c9       	paddq  xmm1,xmm9
    27e6:	66 44 0f 6f ce       	movdqa xmm9,xmm6
    27eb:	66 44 0f 6a ce       	punpckhdq xmm9,xmm6
    27f0:	66 45 0f 66 d1       	pcmpgtd xmm10,xmm9
    27f5:	66 45 0f f4 e1       	pmuludq xmm12,xmm9
    27fa:	66 44 0f f4 ca       	pmuludq xmm9,xmm2
    27ff:	66 44 0f f4 d2       	pmuludq xmm10,xmm2
    2804:	66 45 0f d4 d4       	paddq  xmm10,xmm12
    2809:	66 45 0f 6f e0       	movdqa xmm12,xmm8
    280e:	66 41 0f 73 f2 20    	psllq  xmm10,0x20
    2814:	66 45 0f d4 ca       	paddq  xmm9,xmm10
    2819:	66 45 0f 6f d0       	movdqa xmm10,xmm8
    281e:	41 0f c6 c9 dd       	shufps xmm1,xmm9,0xdd
    2823:	66 0f fe ce          	paddd  xmm1,xmm6
    2827:	66 0f 6f f4          	movdqa xmm6,xmm4
    282b:	66 44 0f 6f cf       	movdqa xmm9,xmm7
    2830:	66 0f 62 f4          	punpckldq xmm6,xmm4
    2834:	66 0f 72 e1 0b       	psrad  xmm1,0xb
    2839:	66 44 0f 66 ce       	pcmpgtd xmm9,xmm6
    283e:	66 44 0f f4 d6       	pmuludq xmm10,xmm6
    2843:	66 0f f4 f2          	pmuludq xmm6,xmm2
    2847:	66 44 0f f4 ca       	pmuludq xmm9,xmm2
    284c:	66 45 0f d4 ca       	paddq  xmm9,xmm10
    2851:	66 44 0f 6f d7       	movdqa xmm10,xmm7
    2856:	66 41 0f 73 f1 20    	psllq  xmm9,0x20
    285c:	66 41 0f d4 f1       	paddq  xmm6,xmm9
    2861:	66 44 0f 6f cc       	movdqa xmm9,xmm4
    2866:	66 44 0f 6a cc       	punpckhdq xmm9,xmm4
    286b:	66 45 0f 66 d1       	pcmpgtd xmm10,xmm9
    2870:	66 45 0f f4 e1       	pmuludq xmm12,xmm9
    2875:	66 44 0f f4 ca       	pmuludq xmm9,xmm2
    287a:	66 44 0f f4 d2       	pmuludq xmm10,xmm2
    287f:	66 45 0f d4 d4       	paddq  xmm10,xmm12
    2884:	66 41 0f 73 f2 20    	psllq  xmm10,0x20
    288a:	66 45 0f d4 ca       	paddq  xmm9,xmm10
    288f:	66 45 0f 6f d0       	movdqa xmm10,xmm8
    2894:	41 0f c6 f1 dd       	shufps xmm6,xmm9,0xdd
    2899:	66 0f fe e6          	paddd  xmm4,xmm6
    289d:	66 0f 6f f1          	movdqa xmm6,xmm1
    28a1:	66 45 0f 6f c8       	movdqa xmm9,xmm8
    28a6:	66 0f 72 e4 0b       	psrad  xmm4,0xb
    28ab:	66 0f 61 cc          	punpcklwd xmm1,xmm4
    28af:	66 0f 69 f4          	punpckhwd xmm6,xmm4
    28b3:	66 0f 6f e1          	movdqa xmm4,xmm1
    28b7:	66 0f 61 ce          	punpcklwd xmm1,xmm6
    28bb:	66 0f 69 e6          	punpckhwd xmm4,xmm6
    28bf:	66 0f 6f f7          	movdqa xmm6,xmm7
    28c3:	66 0f 61 cc          	punpcklwd xmm1,xmm4
    28c7:	66 0f 6f e5          	movdqa xmm4,xmm5
    28cb:	66 0f db 0d 6d 87 00 	pand   xmm1,XMMWORD PTR [rip+0x876d]        # b040 <_IO_stdin_used+0x40>
    28d2:	00 
    28d3:	66 0f 62 e5          	punpckldq xmm4,xmm5
    28d7:	66 0f 66 f4          	pcmpgtd xmm6,xmm4
    28db:	66 44 0f f4 cc       	pmuludq xmm9,xmm4
    28e0:	66 0f f4 e2          	pmuludq xmm4,xmm2
    28e4:	66 0f f4 f2          	pmuludq xmm6,xmm2
    28e8:	66 41 0f d4 f1       	paddq  xmm6,xmm9
    28ed:	66 44 0f 6f cf       	movdqa xmm9,xmm7
    28f2:	66 0f 73 f6 20       	psllq  xmm6,0x20
    28f7:	66 0f d4 e6          	paddq  xmm4,xmm6
    28fb:	66 0f 6f f5          	movdqa xmm6,xmm5
    28ff:	66 0f 6a f5          	punpckhdq xmm6,xmm5
    2903:	66 44 0f 66 ce       	pcmpgtd xmm9,xmm6
    2908:	66 44 0f f4 d6       	pmuludq xmm10,xmm6
    290d:	66 0f f4 f2          	pmuludq xmm6,xmm2
    2911:	66 44 0f f4 ca       	pmuludq xmm9,xmm2
    2916:	66 45 0f d4 ca       	paddq  xmm9,xmm10
    291b:	66 45 0f 6f d0       	movdqa xmm10,xmm8
    2920:	66 41 0f 73 f1 20    	psllq  xmm9,0x20
    2926:	66 41 0f d4 f1       	paddq  xmm6,xmm9
    292b:	66 45 0f 6f c8       	movdqa xmm9,xmm8
    2930:	0f c6 e6 dd          	shufps xmm4,xmm6,0xdd
    2934:	66 0f fe e5          	paddd  xmm4,xmm5
    2938:	66 0f 6f f7          	movdqa xmm6,xmm7
    293c:	66 0f 6f ec          	movdqa xmm5,xmm4
    2940:	66 0f 6f e3          	movdqa xmm4,xmm3
    2944:	66 0f 62 e3          	punpckldq xmm4,xmm3
    2948:	66 0f 72 e5 0b       	psrad  xmm5,0xb
    294d:	66 0f 66 f4          	pcmpgtd xmm6,xmm4
    2951:	66 44 0f f4 cc       	pmuludq xmm9,xmm4
    2956:	66 0f f4 e2          	pmuludq xmm4,xmm2
    295a:	66 0f f4 f2          	pmuludq xmm6,xmm2
    295e:	66 41 0f d4 f1       	paddq  xmm6,xmm9
    2963:	66 44 0f 6f cf       	movdqa xmm9,xmm7
    2968:	66 0f 73 f6 20       	psllq  xmm6,0x20
    296d:	66 0f d4 e6          	paddq  xmm4,xmm6
    2971:	66 0f 6f f3          	movdqa xmm6,xmm3
    2975:	66 0f 6a f3          	punpckhdq xmm6,xmm3
    2979:	66 44 0f 66 ce       	pcmpgtd xmm9,xmm6
    297e:	66 44 0f f4 d6       	pmuludq xmm10,xmm6
    2983:	66 0f f4 f2          	pmuludq xmm6,xmm2
    2987:	66 44 0f f4 ca       	pmuludq xmm9,xmm2
    298c:	66 45 0f d4 ca       	paddq  xmm9,xmm10
    2991:	66 41 0f 73 f1 20    	psllq  xmm9,0x20
    2997:	66 41 0f d4 f1       	paddq  xmm6,xmm9
    299c:	0f c6 e6 dd          	shufps xmm4,xmm6,0xdd
    29a0:	66 0f fe dc          	paddd  xmm3,xmm4
    29a4:	66 0f 6f e5          	movdqa xmm4,xmm5
    29a8:	66 0f 6f f5          	movdqa xmm6,xmm5
    29ac:	66 0f 72 e3 0b       	psrad  xmm3,0xb
    29b1:	66 0f 61 e3          	punpcklwd xmm4,xmm3
    29b5:	66 0f 69 f3          	punpckhwd xmm6,xmm3
    29b9:	66 0f 6f dc          	movdqa xmm3,xmm4
    29bd:	66 0f 61 e6          	punpcklwd xmm4,xmm6
    29c1:	66 0f 69 de          	punpckhwd xmm3,xmm6
    29c5:	66 0f 61 e3          	punpcklwd xmm4,xmm3
    29c9:	66 0f db 25 6f 86 00 	pand   xmm4,XMMWORD PTR [rip+0x866f]        # b040 <_IO_stdin_used+0x40>
    29d0:	00 
    29d1:	66 0f 67 cc          	packuswb xmm1,xmm4
    29d5:	66 0f db 0d 73 86 00 	pand   xmm1,XMMWORD PTR [rip+0x8673]        # b050 <_IO_stdin_used+0x50>
    29dc:	00 
    29dd:	66 0f eb c1          	por    xmm0,xmm1
    29e1:	0f 11 41 f0          	movups XMMWORD PTR [rcx-0x10],xmm0
    29e5:	48 39 d0             	cmp    rax,rdx
    29e8:	0f 85 c2 f9 ff ff    	jne    23b0 <pqcrystals_kyber512_ref_poly_compress+0x50>
    29ee:	5b                   	pop    rbx
    29ef:	5d                   	pop    rbp
    29f0:	41 5c                	pop    r12
    29f2:	c3                   	ret    
    29f3:	0f 1f 44 00 00       	nop    DWORD PTR [rax+rax*1+0x0]
    29f8:	0f b7 6a 02          	movzx  ebp,WORD PTR [rdx+0x2]
    29fc:	44 0f b7 22          	movzx  r12d,WORD PTR [rdx]
    2a00:	44 0f b7 5a 06       	movzx  r11d,WORD PTR [rdx+0x6]
    2a05:	0f b7 5a 04          	movzx  ebx,WORD PTR [rdx+0x4]
    2a09:	89 e8                	mov    eax,ebp
    2a0b:	44 0f b7 52 08       	movzx  r10d,WORD PTR [rdx+0x8]
    2a10:	44 0f b7 4a 0a       	movzx  r9d,WORD PTR [rdx+0xa]
    2a15:	66 c1 f8 0f          	sar    ax,0xf
    2a19:	44 0f b7 42 0c       	movzx  r8d,WORD PTR [rdx+0xc]
    2a1e:	0f b7 72 0e          	movzx  esi,WORD PTR [rdx+0xe]
    2a22:	66 25 01 0d          	and    ax,0xd01
    2a26:	01 e8                	add    eax,ebp
    2a28:	0f b7 c0             	movzx  eax,ax
    2a2b:	c1 e0 04             	shl    eax,0x4
    2a2e:	8d a8 80 06 00 00    	lea    ebp,[rax+0x680]
    2a34:	48 89 e8             	mov    rax,rbp
    2a37:	48 69 ed 81 76 fb 3a 	imul   rbp,rbp,0x3afb7681
    2a3e:	48 c1 ed 20          	shr    rbp,0x20
    2a42:	29 e8                	sub    eax,ebp
    2a44:	d1 e8                	shr    eax,1
    2a46:	01 c5                	add    ebp,eax
    2a48:	44 89 e0             	mov    eax,r12d
    2a4b:	66 c1 f8 0f          	sar    ax,0xf
    2a4f:	c1 ed 07             	shr    ebp,0x7
    2a52:	66 25 01 0d          	and    ax,0xd01
    2a56:	81 e5 f0 00 00 00    	and    ebp,0xf0
    2a5c:	44 01 e0             	add    eax,r12d
    2a5f:	0f b7 c0             	movzx  eax,ax
    2a62:	c1 e0 04             	shl    eax,0x4
    2a65:	44 8d a0 80 06 00 00 	lea    r12d,[rax+0x680]
    2a6c:	4c 89 e0             	mov    rax,r12
    2a6f:	4d 69 e4 81 76 fb 3a 	imul   r12,r12,0x3afb7681
    2a76:	49 c1 ec 20          	shr    r12,0x20
    2a7a:	44 29 e0             	sub    eax,r12d
    2a7d:	d1 e8                	shr    eax,1
    2a7f:	44 01 e0             	add    eax,r12d
    2a82:	c1 e8 0b             	shr    eax,0xb
    2a85:	83 e0 0f             	and    eax,0xf
    2a88:	09 e8                	or     eax,ebp
    2a8a:	88 01                	mov    BYTE PTR [rcx],al
    2a8c:	44 89 d8             	mov    eax,r11d
    2a8f:	66 c1 f8 0f          	sar    ax,0xf
    2a93:	66 25 01 0d          	and    ax,0xd01
    2a97:	44 01 d8             	add    eax,r11d
    2a9a:	0f b7 c0             	movzx  eax,ax
    2a9d:	c1 e0 04             	shl    eax,0x4
    2aa0:	44 8d 98 80 06 00 00 	lea    r11d,[rax+0x680]
    2aa7:	4c 89 d8             	mov    rax,r11
    2aaa:	4d 69 db 81 76 fb 3a 	imul   r11,r11,0x3afb7681
    2ab1:	49 c1 eb 20          	shr    r11,0x20
    2ab5:	44 29 d8             	sub    eax,r11d
    2ab8:	d1 e8                	shr    eax,1
    2aba:	41 01 c3             	add    r11d,eax
    2abd:	89 d8                	mov    eax,ebx
    2abf:	41 c1 eb 07          	shr    r11d,0x7
    2ac3:	66 c1 f8 0f          	sar    ax,0xf
    2ac7:	66 25 01 0d          	and    ax,0xd01
    2acb:	41 81 e3 f0 00 00 00 	and    r11d,0xf0
    2ad2:	01 d8                	add    eax,ebx
    2ad4:	0f b7 c0             	movzx  eax,ax
    2ad7:	c1 e0 04             	shl    eax,0x4
    2ada:	8d 98 80 06 00 00    	lea    ebx,[rax+0x680]
    2ae0:	48 89 d8             	mov    rax,rbx
    2ae3:	48 69 db 81 76 fb 3a 	imul   rbx,rbx,0x3afb7681
    2aea:	48 c1 eb 20          	shr    rbx,0x20
    2aee:	29 d8                	sub    eax,ebx
    2af0:	d1 e8                	shr    eax,1
    2af2:	01 d8                	add    eax,ebx
    2af4:	c1 e8 0b             	shr    eax,0xb
    2af7:	83 e0 0f             	and    eax,0xf
    2afa:	44 09 d8             	or     eax,r11d
    2afd:	88 41 01             	mov    BYTE PTR [rcx+0x1],al
    2b00:	44 89 c8             	mov    eax,r9d
    2b03:	66 c1 f8 0f          	sar    ax,0xf
    2b07:	66 25 01 0d          	and    ax,0xd01
    2b0b:	44 01 c8             	add    eax,r9d
    2b0e:	0f b7 c0             	movzx  eax,ax
    2b11:	c1 e0 04             	shl    eax,0x4
    2b14:	44 8d 88 80 06 00 00 	lea    r9d,[rax+0x680]
    2b1b:	4c 89 c8             	mov    rax,r9
    2b1e:	4d 69 c9 81 76 fb 3a 	imul   r9,r9,0x3afb7681
    2b25:	49 c1 e9 20          	shr    r9,0x20
    2b29:	44 29 c8             	sub    eax,r9d
    2b2c:	d1 e8                	shr    eax,1
    2b2e:	41 01 c1             	add    r9d,eax
    2b31:	44 89 d0             	mov    eax,r10d
    2b34:	66 c1 f8 0f          	sar    ax,0xf
    2b38:	41 c1 e9 07          	shr    r9d,0x7
    2b3c:	66 25 01 0d          	and    ax,0xd01
    2b40:	41 81 e1 f0 00 00 00 	and    r9d,0xf0
    2b47:	44 01 d0             	add    eax,r10d
    2b4a:	0f b7 c0             	movzx  eax,ax
    2b4d:	c1 e0 04             	shl    eax,0x4
    2b50:	44 8d 90 80 06 00 00 	lea    r10d,[rax+0x680]
    2b57:	4c 89 d0             	mov    rax,r10
    2b5a:	4d 69 d2 81 76 fb 3a 	imul   r10,r10,0x3afb7681
    2b61:	49 c1 ea 20          	shr    r10,0x20
    2b65:	44 29 d0             	sub    eax,r10d
    2b68:	d1 e8                	shr    eax,1
    2b6a:	48 83 c1 04          	add    rcx,0x4
    2b6e:	48 83 c2 10          	add    rdx,0x10
    2b72:	44 01 d0             	add    eax,r10d
    2b75:	c1 e8 0b             	shr    eax,0xb
    2b78:	83 e0 0f             	and    eax,0xf
    2b7b:	44 09 c8             	or     eax,r9d
    2b7e:	88 41 fe             	mov    BYTE PTR [rcx-0x2],al
    2b81:	89 f0                	mov    eax,esi
    2b83:	66 c1 f8 0f          	sar    ax,0xf
    2b87:	66 25 01 0d          	and    ax,0xd01
    2b8b:	01 f0                	add    eax,esi
    2b8d:	0f b7 c0             	movzx  eax,ax
    2b90:	c1 e0 04             	shl    eax,0x4
    2b93:	8d b0 80 06 00 00    	lea    esi,[rax+0x680]
    2b99:	48 89 f0             	mov    rax,rsi
    2b9c:	48 69 f6 81 76 fb 3a 	imul   rsi,rsi,0x3afb7681
    2ba3:	48 c1 ee 20          	shr    rsi,0x20
    2ba7:	29 f0                	sub    eax,esi
    2ba9:	d1 e8                	shr    eax,1
    2bab:	01 c6                	add    esi,eax
    2bad:	44 89 c0             	mov    eax,r8d
    2bb0:	66 c1 f8 0f          	sar    ax,0xf
    2bb4:	c1 ee 07             	shr    esi,0x7
    2bb7:	66 25 01 0d          	and    ax,0xd01
    2bbb:	81 e6 f0 00 00 00    	and    esi,0xf0
    2bc1:	44 01 c0             	add    eax,r8d
    2bc4:	0f b7 c0             	movzx  eax,ax
    2bc7:	c1 e0 04             	shl    eax,0x4
    2bca:	44 8d 80 80 06 00 00 	lea    r8d,[rax+0x680]
    2bd1:	4c 89 c0             	mov    rax,r8
    2bd4:	4d 69 c0 81 76 fb 3a 	imul   r8,r8,0x3afb7681
    2bdb:	49 c1 e8 20          	shr    r8,0x20
    2bdf:	44 29 c0             	sub    eax,r8d
    2be2:	d1 e8                	shr    eax,1
    2be4:	44 01 c0             	add    eax,r8d
    2be7:	c1 e8 0b             	shr    eax,0xb
    2bea:	83 e0 0f             	and    eax,0xf
    2bed:	09 f0                	or     eax,esi
    2bef:	88 41 ff             	mov    BYTE PTR [rcx-0x1],al
    2bf2:	48 39 f9             	cmp    rcx,rdi
    2bf5:	0f 85 fd fd ff ff    	jne    29f8 <pqcrystals_kyber512_ref_poly_compress+0x698>
    2bfb:	e9 ee fd ff ff       	jmp    29ee <pqcrystals_kyber512_ref_poly_compress+0x68e>

0000000000002c00 <pqcrystals_kyber512_ref_poly_decompress>:
    2c00:	f3 0f 1e fa          	endbr64 
    2c04:	48 8d 86 80 00 00 00 	lea    rax,[rsi+0x80]
    2c0b:	48 89 f9             	mov    rcx,rdi
    2c0e:	48 39 c7             	cmp    rdi,rax
    2c11:	73 10                	jae    2c23 <pqcrystals_kyber512_ref_poly_decompress+0x23>
    2c13:	48 8d 87 00 02 00 00 	lea    rax,[rdi+0x200]
    2c1a:	48 39 c6             	cmp    rsi,rax
    2c1d:	0f 82 ea 04 00 00    	jb     310d <pqcrystals_kyber512_ref_poly_decompress+0x50d>
    2c23:	f3 0f 6f 26          	movdqu xmm4,XMMWORD PTR [rsi]
    2c27:	66 0f 6f 1d 21 84 00 	movdqa xmm3,XMMWORD PTR [rip+0x8421]        # b050 <_IO_stdin_used+0x50>
    2c2e:	00 
    2c2f:	66 0f ef d2          	pxor   xmm2,xmm2
    2c33:	66 0f 6f 05 d5 83 00 	movdqa xmm0,XMMWORD PTR [rip+0x83d5]        # b010 <_IO_stdin_used+0x10>
    2c3a:	00 
    2c3b:	66 0f 6f 0d 1d 84 00 	movdqa xmm1,XMMWORD PTR [rip+0x841d]        # b060 <_IO_stdin_used+0x60>
    2c42:	00 
    2c43:	66 0f db e3          	pand   xmm4,xmm3
    2c47:	66 0f 6f f4          	movdqa xmm6,xmm4
    2c4b:	66 0f 6f ec          	movdqa xmm5,xmm4
    2c4f:	f3 0f 6f 26          	movdqu xmm4,XMMWORD PTR [rsi]
    2c53:	66 0f 60 f2          	punpcklbw xmm6,xmm2
    2c57:	66 0f 68 ea          	punpckhbw xmm5,xmm2
    2c5b:	66 0f 71 d4 04       	psrlw  xmm4,0x4
    2c60:	66 0f d5 f0          	pmullw xmm6,xmm0
    2c64:	66 0f db e3          	pand   xmm4,xmm3
    2c68:	66 0f d5 e8          	pmullw xmm5,xmm0
    2c6c:	66 0f 6f fc          	movdqa xmm7,xmm4
    2c70:	66 0f 68 e2          	punpckhbw xmm4,xmm2
    2c74:	66 0f 60 fa          	punpcklbw xmm7,xmm2
    2c78:	66 0f d5 e0          	pmullw xmm4,xmm0
    2c7c:	66 0f d5 f8          	pmullw xmm7,xmm0
    2c80:	66 0f fd f1          	paddw  xmm6,xmm1
    2c84:	66 0f 71 d6 04       	psrlw  xmm6,0x4
    2c89:	66 0f fd e9          	paddw  xmm5,xmm1
    2c8d:	66 0f 71 d5 04       	psrlw  xmm5,0x4
    2c92:	66 44 0f 6f c6       	movdqa xmm8,xmm6
    2c97:	66 0f fd e1          	paddw  xmm4,xmm1
    2c9b:	66 0f fd f9          	paddw  xmm7,xmm1
    2c9f:	66 0f 71 d4 04       	psrlw  xmm4,0x4
    2ca4:	66 0f 71 d7 04       	psrlw  xmm7,0x4
    2ca9:	66 0f 69 f7          	punpckhwd xmm6,xmm7
    2cad:	66 44 0f 61 c7       	punpcklwd xmm8,xmm7
    2cb2:	0f 11 71 10          	movups XMMWORD PTR [rcx+0x10],xmm6
    2cb6:	66 0f 6f f5          	movdqa xmm6,xmm5
    2cba:	66 0f 69 ec          	punpckhwd xmm5,xmm4
    2cbe:	66 0f 61 f4          	punpcklwd xmm6,xmm4
    2cc2:	44 0f 11 01          	movups XMMWORD PTR [rcx],xmm8
    2cc6:	0f 11 71 20          	movups XMMWORD PTR [rcx+0x20],xmm6
    2cca:	0f 11 69 30          	movups XMMWORD PTR [rcx+0x30],xmm5
    2cce:	f3 0f 6f 66 10       	movdqu xmm4,XMMWORD PTR [rsi+0x10]
    2cd3:	66 0f db e3          	pand   xmm4,xmm3
    2cd7:	66 0f 6f f4          	movdqa xmm6,xmm4
    2cdb:	66 0f 6f ec          	movdqa xmm5,xmm4
    2cdf:	f3 0f 6f 66 10       	movdqu xmm4,XMMWORD PTR [rsi+0x10]
    2ce4:	66 0f 60 f2          	punpcklbw xmm6,xmm2
    2ce8:	66 0f 68 ea          	punpckhbw xmm5,xmm2
    2cec:	66 0f 71 d4 04       	psrlw  xmm4,0x4
    2cf1:	66 0f d5 f0          	pmullw xmm6,xmm0
    2cf5:	66 0f db e3          	pand   xmm4,xmm3
    2cf9:	66 0f d5 e8          	pmullw xmm5,xmm0
    2cfd:	66 0f 6f fc          	movdqa xmm7,xmm4
    2d01:	66 0f 68 e2          	punpckhbw xmm4,xmm2
    2d05:	66 0f 60 fa          	punpcklbw xmm7,xmm2
    2d09:	66 0f d5 e0          	pmullw xmm4,xmm0
    2d0d:	66 0f d5 f8          	pmullw xmm7,xmm0
    2d11:	66 0f fd f1          	paddw  xmm6,xmm1
    2d15:	66 0f 71 d6 04       	psrlw  xmm6,0x4
    2d1a:	66 0f fd e9          	paddw  xmm5,xmm1
    2d1e:	66 0f 71 d5 04       	psrlw  xmm5,0x4
    2d23:	66 44 0f 6f c6       	movdqa xmm8,xmm6
    2d28:	66 0f fd e1          	paddw  xmm4,xmm1
    2d2c:	66 0f fd f9          	paddw  xmm7,xmm1
    2d30:	66 0f 71 d4 04       	psrlw  xmm4,0x4
    2d35:	66 0f 71 d7 04       	psrlw  xmm7,0x4
    2d3a:	66 0f 69 f7          	punpckhwd xmm6,xmm7
    2d3e:	66 44 0f 61 c7       	punpcklwd xmm8,xmm7
    2d43:	0f 11 71 50          	movups XMMWORD PTR [rcx+0x50],xmm6
    2d47:	66 0f 6f f5          	movdqa xmm6,xmm5
    2d4b:	66 0f 69 ec          	punpckhwd xmm5,xmm4
    2d4f:	66 0f 61 f4          	punpcklwd xmm6,xmm4
    2d53:	44 0f 11 41 40       	movups XMMWORD PTR [rcx+0x40],xmm8
    2d58:	0f 11 71 60          	movups XMMWORD PTR [rcx+0x60],xmm6
    2d5c:	0f 11 69 70          	movups XMMWORD PTR [rcx+0x70],xmm5
    2d60:	f3 0f 6f 66 20       	movdqu xmm4,XMMWORD PTR [rsi+0x20]
    2d65:	66 0f db e3          	pand   xmm4,xmm3
    2d69:	66 0f 6f f4          	movdqa xmm6,xmm4
    2d6d:	66 0f 6f ec          	movdqa xmm5,xmm4
    2d71:	f3 0f 6f 66 20       	movdqu xmm4,XMMWORD PTR [rsi+0x20]
    2d76:	66 0f 60 f2          	punpcklbw xmm6,xmm2
    2d7a:	66 0f 68 ea          	punpckhbw xmm5,xmm2
    2d7e:	66 0f 71 d4 04       	psrlw  xmm4,0x4
    2d83:	66 0f d5 f0          	pmullw xmm6,xmm0
    2d87:	66 0f db e3          	pand   xmm4,xmm3
    2d8b:	66 0f d5 e8          	pmullw xmm5,xmm0
    2d8f:	66 0f 6f fc          	movdqa xmm7,xmm4
    2d93:	66 0f 68 e2          	punpckhbw xmm4,xmm2
    2d97:	66 0f 60 fa          	punpcklbw xmm7,xmm2
    2d9b:	66 0f d5 e0          	pmullw xmm4,xmm0
    2d9f:	66 0f d5 f8          	pmullw xmm7,xmm0
    2da3:	66 0f fd f1          	paddw  xmm6,xmm1
    2da7:	66 0f 71 d6 04       	psrlw  xmm6,0x4
    2dac:	66 0f fd e9          	paddw  xmm5,xmm1
    2db0:	66 0f 71 d5 04       	psrlw  xmm5,0x4
    2db5:	66 44 0f 6f c6       	movdqa xmm8,xmm6
    2dba:	66 0f fd e1          	paddw  xmm4,xmm1
    2dbe:	66 0f fd f9          	paddw  xmm7,xmm1
    2dc2:	66 0f 71 d4 04       	psrlw  xmm4,0x4
    2dc7:	66 0f 71 d7 04       	psrlw  xmm7,0x4
    2dcc:	66 0f 69 f7          	punpckhwd xmm6,xmm7
    2dd0:	66 44 0f 61 c7       	punpcklwd xmm8,xmm7
    2dd5:	0f 11 b1 90 00 00 00 	movups XMMWORD PTR [rcx+0x90],xmm6
    2ddc:	66 0f 6f f5          	movdqa xmm6,xmm5
    2de0:	66 0f 69 ec          	punpckhwd xmm5,xmm4
    2de4:	66 0f 61 f4          	punpcklwd xmm6,xmm4
    2de8:	44 0f 11 81 80 00 00 	movups XMMWORD PTR [rcx+0x80],xmm8
    2def:	00 
    2df0:	0f 11 b1 a0 00 00 00 	movups XMMWORD PTR [rcx+0xa0],xmm6
    2df7:	0f 11 a9 b0 00 00 00 	movups XMMWORD PTR [rcx+0xb0],xmm5
    2dfe:	f3 0f 6f 66 30       	movdqu xmm4,XMMWORD PTR [rsi+0x30]
    2e03:	66 0f db e3          	pand   xmm4,xmm3
    2e07:	66 0f 6f f4          	movdqa xmm6,xmm4
    2e0b:	66 0f 6f ec          	movdqa xmm5,xmm4
    2e0f:	f3 0f 6f 66 30       	movdqu xmm4,XMMWORD PTR [rsi+0x30]
    2e14:	66 0f 60 f2          	punpcklbw xmm6,xmm2
    2e18:	66 0f 68 ea          	punpckhbw xmm5,xmm2
    2e1c:	66 0f 71 d4 04       	psrlw  xmm4,0x4
    2e21:	66 0f d5 f0          	pmullw xmm6,xmm0
    2e25:	66 0f db e3          	pand   xmm4,xmm3
    2e29:	66 0f d5 e8          	pmullw xmm5,xmm0
    2e2d:	66 0f 6f fc          	movdqa xmm7,xmm4
    2e31:	66 0f 68 e2          	punpckhbw xmm4,xmm2
    2e35:	66 0f 60 fa          	punpcklbw xmm7,xmm2
    2e39:	66 0f d5 e0          	pmullw xmm4,xmm0
    2e3d:	66 0f d5 f8          	pmullw xmm7,xmm0
    2e41:	66 0f fd f1          	paddw  xmm6,xmm1
    2e45:	66 0f 71 d6 04       	psrlw  xmm6,0x4
    2e4a:	66 0f fd e9          	paddw  xmm5,xmm1
    2e4e:	66 0f 71 d5 04       	psrlw  xmm5,0x4
    2e53:	66 44 0f 6f c6       	movdqa xmm8,xmm6
    2e58:	66 0f fd e1          	paddw  xmm4,xmm1
    2e5c:	66 0f fd f9          	paddw  xmm7,xmm1
    2e60:	66 0f 71 d4 04       	psrlw  xmm4,0x4
    2e65:	66 0f 71 d7 04       	psrlw  xmm7,0x4
    2e6a:	66 0f 69 f7          	punpckhwd xmm6,xmm7
    2e6e:	66 44 0f 61 c7       	punpcklwd xmm8,xmm7
    2e73:	0f 11 b1 d0 00 00 00 	movups XMMWORD PTR [rcx+0xd0],xmm6
    2e7a:	66 0f 6f f5          	movdqa xmm6,xmm5
    2e7e:	66 0f 69 ec          	punpckhwd xmm5,xmm4
    2e82:	66 0f 61 f4          	punpcklwd xmm6,xmm4
    2e86:	44 0f 11 81 c0 00 00 	movups XMMWORD PTR [rcx+0xc0],xmm8
    2e8d:	00 
    2e8e:	0f 11 b1 e0 00 00 00 	movups XMMWORD PTR [rcx+0xe0],xmm6
    2e95:	0f 11 a9 f0 00 00 00 	movups XMMWORD PTR [rcx+0xf0],xmm5
    2e9c:	f3 0f 6f 66 40       	movdqu xmm4,XMMWORD PTR [rsi+0x40]
    2ea1:	66 0f db e3          	pand   xmm4,xmm3
    2ea5:	66 0f 6f f4          	movdqa xmm6,xmm4
    2ea9:	66 0f 6f ec          	movdqa xmm5,xmm4
    2ead:	f3 0f 6f 66 40       	movdqu xmm4,XMMWORD PTR [rsi+0x40]
    2eb2:	66 0f 60 f2          	punpcklbw xmm6,xmm2
    2eb6:	66 0f 68 ea          	punpckhbw xmm5,xmm2
    2eba:	66 0f 71 d4 04       	psrlw  xmm4,0x4
    2ebf:	66 0f d5 f0          	pmullw xmm6,xmm0
    2ec3:	66 0f db e3          	pand   xmm4,xmm3
    2ec7:	66 0f d5 e8          	pmullw xmm5,xmm0
    2ecb:	66 0f 6f fc          	movdqa xmm7,xmm4
    2ecf:	66 0f 68 e2          	punpckhbw xmm4,xmm2
    2ed3:	66 0f 60 fa          	punpcklbw xmm7,xmm2
    2ed7:	66 0f d5 e0          	pmullw xmm4,xmm0
    2edb:	66 0f d5 f8          	pmullw xmm7,xmm0
    2edf:	66 0f fd f1          	paddw  xmm6,xmm1
    2ee3:	66 0f 71 d6 04       	psrlw  xmm6,0x4
    2ee8:	66 0f fd e9          	paddw  xmm5,xmm1
    2eec:	66 0f 71 d5 04       	psrlw  xmm5,0x4
    2ef1:	66 44 0f 6f c6       	movdqa xmm8,xmm6
    2ef6:	66 0f fd e1          	paddw  xmm4,xmm1
    2efa:	66 0f fd f9          	paddw  xmm7,xmm1
    2efe:	66 0f 71 d4 04       	psrlw  xmm4,0x4
    2f03:	66 0f 71 d7 04       	psrlw  xmm7,0x4
    2f08:	66 0f 69 f7          	punpckhwd xmm6,xmm7
    2f0c:	66 44 0f 61 c7       	punpcklwd xmm8,xmm7
    2f11:	0f 11 b1 10 01 00 00 	movups XMMWORD PTR [rcx+0x110],xmm6
    2f18:	66 0f 6f f5          	movdqa xmm6,xmm5
    2f1c:	66 0f 69 ec          	punpckhwd xmm5,xmm4
    2f20:	66 0f 61 f4          	punpcklwd xmm6,xmm4
    2f24:	44 0f 11 81 00 01 00 	movups XMMWORD PTR [rcx+0x100],xmm8
    2f2b:	00 
    2f2c:	0f 11 b1 20 01 00 00 	movups XMMWORD PTR [rcx+0x120],xmm6
    2f33:	0f 11 a9 30 01 00 00 	movups XMMWORD PTR [rcx+0x130],xmm5
    2f3a:	f3 0f 6f 66 50       	movdqu xmm4,XMMWORD PTR [rsi+0x50]
    2f3f:	66 0f db e3          	pand   xmm4,xmm3
    2f43:	66 0f 6f f4          	movdqa xmm6,xmm4
    2f47:	66 0f 6f ec          	movdqa xmm5,xmm4
    2f4b:	f3 0f 6f 66 50       	movdqu xmm4,XMMWORD PTR [rsi+0x50]
    2f50:	66 0f 60 f2          	punpcklbw xmm6,xmm2
    2f54:	66 0f 68 ea          	punpckhbw xmm5,xmm2
    2f58:	66 0f 71 d4 04       	psrlw  xmm4,0x4
    2f5d:	66 0f d5 f0          	pmullw xmm6,xmm0
    2f61:	66 0f db e3          	pand   xmm4,xmm3
    2f65:	66 0f d5 e8          	pmullw xmm5,xmm0
    2f69:	66 0f 6f fc          	movdqa xmm7,xmm4
    2f6d:	66 0f 68 e2          	punpckhbw xmm4,xmm2
    2f71:	66 0f 60 fa          	punpcklbw xmm7,xmm2
    2f75:	66 0f d5 e0          	pmullw xmm4,xmm0
    2f79:	66 0f d5 f8          	pmullw xmm7,xmm0
    2f7d:	66 0f fd f1          	paddw  xmm6,xmm1
    2f81:	66 0f 71 d6 04       	psrlw  xmm6,0x4
    2f86:	66 0f fd e9          	paddw  xmm5,xmm1
    2f8a:	66 0f 71 d5 04       	psrlw  xmm5,0x4
    2f8f:	66 44 0f 6f c6       	movdqa xmm8,xmm6
    2f94:	66 0f fd e1          	paddw  xmm4,xmm1
    2f98:	66 0f fd f9          	paddw  xmm7,xmm1
    2f9c:	66 0f 71 d4 04       	psrlw  xmm4,0x4
    2fa1:	66 0f 71 d7 04       	psrlw  xmm7,0x4
    2fa6:	66 0f 69 f7          	punpckhwd xmm6,xmm7
    2faa:	66 44 0f 61 c7       	punpcklwd xmm8,xmm7
    2faf:	0f 11 b1 50 01 00 00 	movups XMMWORD PTR [rcx+0x150],xmm6
    2fb6:	66 0f 6f f5          	movdqa xmm6,xmm5
    2fba:	66 0f 69 ec          	punpckhwd xmm5,xmm4
    2fbe:	66 0f 61 f4          	punpcklwd xmm6,xmm4
    2fc2:	44 0f 11 81 40 01 00 	movups XMMWORD PTR [rcx+0x140],xmm8
    2fc9:	00 
    2fca:	0f 11 b1 60 01 00 00 	movups XMMWORD PTR [rcx+0x160],xmm6
    2fd1:	0f 11 a9 70 01 00 00 	movups XMMWORD PTR [rcx+0x170],xmm5
    2fd8:	f3 0f 6f 66 60       	movdqu xmm4,XMMWORD PTR [rsi+0x60]
    2fdd:	66 0f db e3          	pand   xmm4,xmm3
    2fe1:	66 0f 6f f4          	movdqa xmm6,xmm4
    2fe5:	66 0f 6f ec          	movdqa xmm5,xmm4
    2fe9:	f3 0f 6f 66 60       	movdqu xmm4,XMMWORD PTR [rsi+0x60]
    2fee:	66 0f 60 f2          	punpcklbw xmm6,xmm2
    2ff2:	66 0f 68 ea          	punpckhbw xmm5,xmm2
    2ff6:	66 0f 71 d4 04       	psrlw  xmm4,0x4
    2ffb:	66 0f d5 f0          	pmullw xmm6,xmm0
    2fff:	66 0f db e3          	pand   xmm4,xmm3
    3003:	66 0f d5 e8          	pmullw xmm5,xmm0
    3007:	66 0f 6f fc          	movdqa xmm7,xmm4
    300b:	66 0f 68 e2          	punpckhbw xmm4,xmm2
    300f:	66 0f 60 fa          	punpcklbw xmm7,xmm2
    3013:	66 0f d5 e0          	pmullw xmm4,xmm0
    3017:	66 0f d5 f8          	pmullw xmm7,xmm0
    301b:	66 0f fd f1          	paddw  xmm6,xmm1
    301f:	66 0f 71 d6 04       	psrlw  xmm6,0x4
    3024:	66 0f fd e9          	paddw  xmm5,xmm1
    3028:	66 0f 71 d5 04       	psrlw  xmm5,0x4
    302d:	66 44 0f 6f c6       	movdqa xmm8,xmm6
    3032:	66 0f fd e1          	paddw  xmm4,xmm1
    3036:	66 0f fd f9          	paddw  xmm7,xmm1
    303a:	66 0f 71 d4 04       	psrlw  xmm4,0x4
    303f:	66 0f 71 d7 04       	psrlw  xmm7,0x4
    3044:	66 0f 69 f7          	punpckhwd xmm6,xmm7
    3048:	66 44 0f 61 c7       	punpcklwd xmm8,xmm7
    304d:	0f 11 b1 90 01 00 00 	movups XMMWORD PTR [rcx+0x190],xmm6
    3054:	66 0f 6f f5          	movdqa xmm6,xmm5
    3058:	66 0f 69 ec          	punpckhwd xmm5,xmm4
    305c:	66 0f 61 f4          	punpcklwd xmm6,xmm4
    3060:	44 0f 11 81 80 01 00 	movups XMMWORD PTR [rcx+0x180],xmm8
    3067:	00 
    3068:	0f 11 b1 a0 01 00 00 	movups XMMWORD PTR [rcx+0x1a0],xmm6
    306f:	0f 11 a9 b0 01 00 00 	movups XMMWORD PTR [rcx+0x1b0],xmm5
    3076:	f3 0f 6f 6e 70       	movdqu xmm5,XMMWORD PTR [rsi+0x70]
    307b:	66 0f 6f e5          	movdqa xmm4,xmm5
    307f:	66 0f 71 d5 04       	psrlw  xmm5,0x4
    3084:	66 0f db e3          	pand   xmm4,xmm3
    3088:	66 0f db dd          	pand   xmm3,xmm5
    308c:	66 0f 6f f4          	movdqa xmm6,xmm4
    3090:	66 0f 6f eb          	movdqa xmm5,xmm3
    3094:	66 0f 68 e2          	punpckhbw xmm4,xmm2
    3098:	66 0f 60 f2          	punpcklbw xmm6,xmm2
    309c:	66 0f 60 ea          	punpcklbw xmm5,xmm2
    30a0:	66 0f 68 da          	punpckhbw xmm3,xmm2
    30a4:	66 0f d5 f0          	pmullw xmm6,xmm0
    30a8:	66 0f d5 e8          	pmullw xmm5,xmm0
    30ac:	66 0f d5 e0          	pmullw xmm4,xmm0
    30b0:	66 0f d5 c3          	pmullw xmm0,xmm3
    30b4:	66 0f fd f1          	paddw  xmm6,xmm1
    30b8:	66 0f fd e9          	paddw  xmm5,xmm1
    30bc:	66 0f 71 d6 04       	psrlw  xmm6,0x4
    30c1:	66 0f fd e1          	paddw  xmm4,xmm1
    30c5:	66 0f fd c1          	paddw  xmm0,xmm1
    30c9:	66 0f 71 d5 04       	psrlw  xmm5,0x4
    30ce:	66 0f 71 d4 04       	psrlw  xmm4,0x4
    30d3:	66 0f 6f ce          	movdqa xmm1,xmm6
    30d7:	66 0f 61 cd          	punpcklwd xmm1,xmm5
    30db:	66 0f 71 d0 04       	psrlw  xmm0,0x4
    30e0:	66 0f 69 f5          	punpckhwd xmm6,xmm5
    30e4:	0f 11 89 c0 01 00 00 	movups XMMWORD PTR [rcx+0x1c0],xmm1
    30eb:	66 0f 6f cc          	movdqa xmm1,xmm4
    30ef:	66 0f 69 e0          	punpckhwd xmm4,xmm0
    30f3:	66 0f 61 c8          	punpcklwd xmm1,xmm0
    30f7:	0f 11 b1 d0 01 00 00 	movups XMMWORD PTR [rcx+0x1d0],xmm6
    30fe:	0f 11 89 e0 01 00 00 	movups XMMWORD PTR [rcx+0x1e0],xmm1
    3105:	0f 11 a1 f0 01 00 00 	movups XMMWORD PTR [rcx+0x1f0],xmm4
    310c:	c3                   	ret    
    310d:	31 d2                	xor    edx,edx
    310f:	90                   	nop
    3110:	0f b6 04 16          	movzx  eax,BYTE PTR [rsi+rdx*1]
    3114:	83 e0 0f             	and    eax,0xf
    3117:	69 c0 01 0d 00 00    	imul   eax,eax,0xd01
    311d:	83 c0 08             	add    eax,0x8
    3120:	c1 f8 04             	sar    eax,0x4
    3123:	66 89 04 91          	mov    WORD PTR [rcx+rdx*4],ax
    3127:	0f b6 04 16          	movzx  eax,BYTE PTR [rsi+rdx*1]
    312b:	c0 e8 04             	shr    al,0x4
    312e:	0f b6 c0             	movzx  eax,al
    3131:	69 c0 01 0d 00 00    	imul   eax,eax,0xd01
    3137:	83 c0 08             	add    eax,0x8
    313a:	c1 f8 04             	sar    eax,0x4
    313d:	66 89 44 91 02       	mov    WORD PTR [rcx+rdx*4+0x2],ax
    3142:	48 83 c2 01          	add    rdx,0x1
    3146:	48 81 fa 80 00 00 00 	cmp    rdx,0x80
    314d:	75 c1                	jne    3110 <pqcrystals_kyber512_ref_poly_decompress+0x510>
    314f:	c3                   	ret    

0000000000003150 <pqcrystals_kyber512_ref_poly_tobytes>:
    3150:	f3 0f 1e fa          	endbr64 
    3154:	48 89 f1             	mov    rcx,rsi
    3157:	4c 8d 87 80 01 00 00 	lea    r8,[rdi+0x180]
    315e:	66 90                	xchg   ax,ax
    3160:	0f b7 01             	movzx  eax,WORD PTR [rcx]
    3163:	0f b7 71 02          	movzx  esi,WORD PTR [rcx+0x2]
    3167:	48 83 c7 03          	add    rdi,0x3
    316b:	48 83 c1 04          	add    rcx,0x4
    316f:	89 c2                	mov    edx,eax
    3171:	66 c1 fa 0f          	sar    dx,0xf
    3175:	66 81 e2 01 0d       	and    dx,0xd01
    317a:	01 c2                	add    edx,eax
    317c:	89 f0                	mov    eax,esi
    317e:	66 c1 f8 0f          	sar    ax,0xf
    3182:	88 57 fd             	mov    BYTE PTR [rdi-0x3],dl
    3185:	66 c1 ea 08          	shr    dx,0x8
    3189:	66 25 01 0d          	and    ax,0xd01
    318d:	01 f0                	add    eax,esi
    318f:	89 c6                	mov    esi,eax
    3191:	66 c1 e8 04          	shr    ax,0x4
    3195:	c1 e6 04             	shl    esi,0x4
    3198:	88 47 ff             	mov    BYTE PTR [rdi-0x1],al
    319b:	09 f2                	or     edx,esi
    319d:	88 57 fe             	mov    BYTE PTR [rdi-0x2],dl
    31a0:	49 39 f8             	cmp    r8,rdi
    31a3:	75 bb                	jne    3160 <pqcrystals_kyber512_ref_poly_tobytes+0x10>
    31a5:	c3                   	ret    
    31a6:	66 2e 0f 1f 84 00 00 	cs nop WORD PTR [rax+rax*1+0x0]
    31ad:	00 00 00 

00000000000031b0 <pqcrystals_kyber512_ref_poly_frombytes>:
    31b0:	f3 0f 1e fa          	endbr64 
    31b4:	48 8d 8e 80 01 00 00 	lea    rcx,[rsi+0x180]
    31bb:	0f 1f 44 00 00       	nop    DWORD PTR [rax+rax*1+0x0]
    31c0:	0f b6 56 01          	movzx  edx,BYTE PTR [rsi+0x1]
    31c4:	0f b6 06             	movzx  eax,BYTE PTR [rsi]
    31c7:	48 83 c6 03          	add    rsi,0x3
    31cb:	48 83 c7 04          	add    rdi,0x4
    31cf:	c1 e2 08             	shl    edx,0x8
    31d2:	09 d0                	or     eax,edx
    31d4:	66 25 ff 0f          	and    ax,0xfff
    31d8:	66 89 47 fc          	mov    WORD PTR [rdi-0x4],ax
    31dc:	0f b6 46 fe          	movzx  eax,BYTE PTR [rsi-0x2]
    31e0:	0f b6 56 ff          	movzx  edx,BYTE PTR [rsi-0x1]
    31e4:	c0 e8 04             	shr    al,0x4
    31e7:	0f b6 c0             	movzx  eax,al
    31ea:	c1 e2 04             	shl    edx,0x4
    31ed:	09 d0                	or     eax,edx
    31ef:	66 89 47 fe          	mov    WORD PTR [rdi-0x2],ax
    31f3:	48 39 f1             	cmp    rcx,rsi
    31f6:	75 c8                	jne    31c0 <pqcrystals_kyber512_ref_poly_frombytes+0x10>
    31f8:	c3                   	ret    
    31f9:	0f 1f 80 00 00 00 00 	nop    DWORD PTR [rax+0x0]

0000000000003200 <pqcrystals_kyber512_ref_poly_frommsg>:
    3200:	f3 0f 1e fa          	endbr64 
    3204:	48 8d 4e 20          	lea    rcx,[rsi+0x20]
    3208:	48 89 f8             	mov    rax,rdi
    320b:	48 89 f2             	mov    rdx,rsi
    320e:	48 39 cf             	cmp    rdi,rcx
    3211:	73 10                	jae    3223 <pqcrystals_kyber512_ref_poly_frommsg+0x23>
    3213:	48 8d bf 00 02 00 00 	lea    rdi,[rdi+0x200]
    321a:	48 39 fe             	cmp    rsi,rdi
    321d:	0f 82 cd 07 00 00    	jb     39f0 <pqcrystals_kyber512_ref_poly_frommsg+0x7f0>
    3223:	66 0f 6f 2d 55 7e 00 	movdqa xmm5,XMMWORD PTR [rip+0x7e55]        # b080 <_IO_stdin_used+0x80>
    322a:	00 
    322b:	66 0f ef e4          	pxor   xmm4,xmm4
    322f:	66 0f ef c9          	pxor   xmm1,xmm1
    3233:	f3 0f 6f 02          	movdqu xmm0,XMMWORD PTR [rdx]
    3237:	66 44 0f 6f d9       	movdqa xmm11,xmm1
    323c:	66 44 0f 6f e1       	movdqa xmm12,xmm1
    3241:	66 0f 6f 15 27 7e 00 	movdqa xmm2,XMMWORD PTR [rip+0x7e27]        # b070 <_IO_stdin_used+0x70>
    3248:	00 
    3249:	66 44 0f 6f c9       	movdqa xmm9,xmm1
    324e:	66 44 0f 6f d1       	movdqa xmm10,xmm1
    3253:	66 0f 6f f9          	movdqa xmm7,xmm1
    3257:	48 83 c2 10          	add    rdx,0x10
    325b:	66 0f db d0          	pand   xmm2,xmm0
    325f:	66 44 0f 6f e8       	movdqa xmm13,xmm0
    3264:	66 44 0f 6f c1       	movdqa xmm8,xmm1
    3269:	48 05 00 01 00 00    	add    rax,0x100
    326f:	66 0f 6f da          	movdqa xmm3,xmm2
    3273:	66 0f 68 d4          	punpckhbw xmm2,xmm4
    3277:	66 0f 6f f1          	movdqa xmm6,xmm1
    327b:	66 44 0f f9 da       	psubw  xmm11,xmm2
    3280:	66 0f 6f d0          	movdqa xmm2,xmm0
    3284:	66 0f 60 dc          	punpcklbw xmm3,xmm4
    3288:	66 0f 71 d2 01       	psrlw  xmm2,0x1
    328d:	66 44 0f f9 e3       	psubw  xmm12,xmm3
    3292:	66 44 0f db dd       	pand   xmm11,xmm5
    3297:	66 0f db 15 f1 7d 00 	pand   xmm2,XMMWORD PTR [rip+0x7df1]        # b090 <_IO_stdin_used+0x90>
    329e:	00 
    329f:	66 0f db 15 c9 7d 00 	pand   xmm2,XMMWORD PTR [rip+0x7dc9]        # b070 <_IO_stdin_used+0x70>
    32a6:	00 
    32a7:	66 44 0f db e5       	pand   xmm12,xmm5
    32ac:	66 41 0f c5 f4 00    	pextrw esi,xmm12,0x0
    32b2:	66 41 0f 71 d5 04    	psrlw  xmm13,0x4
    32b8:	66 44 0f db 2d 8f 7d 	pand   xmm13,XMMWORD PTR [rip+0x7d8f]        # b050 <_IO_stdin_used+0x50>
    32bf:	00 00 
    32c1:	66 0f 6f da          	movdqa xmm3,xmm2
    32c5:	66 0f 68 d4          	punpckhbw xmm2,xmm4
    32c9:	66 89 b0 00 ff ff ff 	mov    WORD PTR [rax-0x100],si
    32d0:	66 41 0f c5 f4 01    	pextrw esi,xmm12,0x1
    32d6:	66 44 0f f9 ca       	psubw  xmm9,xmm2
    32db:	66 0f 6f d0          	movdqa xmm2,xmm0
    32df:	66 0f 60 dc          	punpcklbw xmm3,xmm4
    32e3:	66 89 b0 10 ff ff ff 	mov    WORD PTR [rax-0xf0],si
    32ea:	66 0f 71 d2 02       	psrlw  xmm2,0x2
    32ef:	66 44 0f f9 d3       	psubw  xmm10,xmm3
    32f4:	66 0f db 15 a4 7d 00 	pand   xmm2,XMMWORD PTR [rip+0x7da4]        # b0a0 <_IO_stdin_used+0xa0>
    32fb:	00 
    32fc:	66 41 0f c5 f4 02    	pextrw esi,xmm12,0x2
    3302:	66 44 0f db d5       	pand   xmm10,xmm5
    3307:	66 44 0f db cd       	pand   xmm9,xmm5
    330c:	66 0f db 15 5c 7d 00 	pand   xmm2,XMMWORD PTR [rip+0x7d5c]        # b070 <_IO_stdin_used+0x70>
    3313:	00 
    3314:	66 89 b0 20 ff ff ff 	mov    WORD PTR [rax-0xe0],si
    331b:	66 41 0f c5 f4 03    	pextrw esi,xmm12,0x3
    3321:	66 44 0f db 2d 46 7d 	pand   xmm13,XMMWORD PTR [rip+0x7d46]        # b070 <_IO_stdin_used+0x70>
    3328:	00 00 
    332a:	66 89 b0 30 ff ff ff 	mov    WORD PTR [rax-0xd0],si
    3331:	66 41 0f c5 f4 04    	pextrw esi,xmm12,0x4
    3337:	66 0f 6f da          	movdqa xmm3,xmm2
    333b:	66 0f 68 d4          	punpckhbw xmm2,xmm4
    333f:	66 89 b0 40 ff ff ff 	mov    WORD PTR [rax-0xc0],si
    3346:	66 41 0f c5 f4 05    	pextrw esi,xmm12,0x5
    334c:	66 0f f9 fa          	psubw  xmm7,xmm2
    3350:	66 0f 6f d0          	movdqa xmm2,xmm0
    3354:	66 0f 60 dc          	punpcklbw xmm3,xmm4
    3358:	66 89 b0 50 ff ff ff 	mov    WORD PTR [rax-0xb0],si
    335f:	66 0f 71 d2 03       	psrlw  xmm2,0x3
    3364:	66 44 0f f9 c3       	psubw  xmm8,xmm3
    3369:	66 0f db fd          	pand   xmm7,xmm5
    336d:	66 45 0f 6f f5       	movdqa xmm14,xmm13
    3372:	66 41 0f c5 f4 06    	pextrw esi,xmm12,0x6
    3378:	66 44 0f 68 ec       	punpckhbw xmm13,xmm4
    337d:	66 0f db 15 2b 7d 00 	pand   xmm2,XMMWORD PTR [rip+0x7d2b]        # b0b0 <_IO_stdin_used+0xb0>
    3384:	00 
    3385:	66 44 0f 60 f4       	punpcklbw xmm14,xmm4
    338a:	66 44 0f db c5       	pand   xmm8,xmm5
    338f:	66 89 b0 60 ff ff ff 	mov    WORD PTR [rax-0xa0],si
    3396:	66 0f db 15 d2 7c 00 	pand   xmm2,XMMWORD PTR [rip+0x7cd2]        # b070 <_IO_stdin_used+0x70>
    339d:	00 
    339e:	66 41 0f c5 f4 07    	pextrw esi,xmm12,0x7
    33a4:	66 89 b0 70 ff ff ff 	mov    WORD PTR [rax-0x90],si
    33ab:	66 41 0f c5 f3 00    	pextrw esi,xmm11,0x0
    33b1:	66 0f 6f da          	movdqa xmm3,xmm2
    33b5:	66 0f 68 d4          	punpckhbw xmm2,xmm4
    33b9:	66 89 70 80          	mov    WORD PTR [rax-0x80],si
    33bd:	66 41 0f c5 f3 01    	pextrw esi,xmm11,0x1
    33c3:	66 0f 60 dc          	punpcklbw xmm3,xmm4
    33c7:	66 89 70 90          	mov    WORD PTR [rax-0x70],si
    33cb:	66 41 0f c5 f3 02    	pextrw esi,xmm11,0x2
    33d1:	66 0f f9 f3          	psubw  xmm6,xmm3
    33d5:	66 0f 6f d9          	movdqa xmm3,xmm1
    33d9:	66 89 70 a0          	mov    WORD PTR [rax-0x60],si
    33dd:	66 41 0f c5 f3 03    	pextrw esi,xmm11,0x3
    33e3:	66 0f f9 da          	psubw  xmm3,xmm2
    33e7:	66 0f 6f d1          	movdqa xmm2,xmm1
    33eb:	66 89 70 b0          	mov    WORD PTR [rax-0x50],si
    33ef:	66 0f db f5          	pand   xmm6,xmm5
    33f3:	66 41 0f f9 d6       	psubw  xmm2,xmm14
    33f8:	66 44 0f 6f f1       	movdqa xmm14,xmm1
    33fd:	66 41 0f c5 f3 04    	pextrw esi,xmm11,0x4
    3403:	66 45 0f f9 f5       	psubw  xmm14,xmm13
    3408:	66 89 70 c0          	mov    WORD PTR [rax-0x40],si
    340c:	66 0f db dd          	pand   xmm3,xmm5
    3410:	66 0f db d5          	pand   xmm2,xmm5
    3414:	66 44 0f 6f e8       	movdqa xmm13,xmm0
    3419:	66 44 0f db f5       	pand   xmm14,xmm5
    341e:	66 41 0f c5 f3 05    	pextrw esi,xmm11,0x5
    3424:	66 41 0f 71 d5 05    	psrlw  xmm13,0x5
    342a:	44 0f 29 74 24 d8    	movaps XMMWORD PTR [rsp-0x28],xmm14
    3430:	66 44 0f 6f f1       	movdqa xmm14,xmm1
    3435:	66 44 0f db 2d 82 7c 	pand   xmm13,XMMWORD PTR [rip+0x7c82]        # b0c0 <_IO_stdin_used+0xc0>
    343c:	00 00 
    343e:	66 44 0f db 2d 29 7c 	pand   xmm13,XMMWORD PTR [rip+0x7c29]        # b070 <_IO_stdin_used+0x70>
    3445:	00 00 
    3447:	66 89 70 d0          	mov    WORD PTR [rax-0x30],si
    344b:	66 41 0f c5 f3 06    	pextrw esi,xmm11,0x6
    3451:	66 89 70 e0          	mov    WORD PTR [rax-0x20],si
    3455:	66 41 0f c5 f3 07    	pextrw esi,xmm11,0x7
    345b:	66 0f 71 d0 06       	psrlw  xmm0,0x6
    3460:	66 0f db 05 68 7c 00 	pand   xmm0,XMMWORD PTR [rip+0x7c68]        # b0d0 <_IO_stdin_used+0xd0>
    3467:	00 
    3468:	66 45 0f 6f fd       	movdqa xmm15,xmm13
    346d:	66 44 0f 68 ec       	punpckhbw xmm13,xmm4
    3472:	66 89 70 f0          	mov    WORD PTR [rax-0x10],si
    3476:	66 41 0f c5 f2 00    	pextrw esi,xmm10,0x0
    347c:	66 44 0f 60 fc       	punpcklbw xmm15,xmm4
    3481:	66 0f db 05 e7 7b 00 	pand   xmm0,XMMWORD PTR [rip+0x7be7]        # b070 <_IO_stdin_used+0x70>
    3488:	00 
    3489:	66 45 0f f9 f7       	psubw  xmm14,xmm15
    348e:	66 45 0f 6f fe       	movdqa xmm15,xmm14
    3493:	66 44 0f 6f f1       	movdqa xmm14,xmm1
    3498:	66 45 0f f9 f5       	psubw  xmm14,xmm13
    349d:	66 44 0f db fd       	pand   xmm15,xmm5
    34a2:	66 44 0f 6f e8       	movdqa xmm13,xmm0
    34a7:	66 44 0f db f5       	pand   xmm14,xmm5
    34ac:	66 44 0f 60 ec       	punpcklbw xmm13,xmm4
    34b1:	66 0f 68 c4          	punpckhbw xmm0,xmm4
    34b5:	44 0f 29 74 24 e8    	movaps XMMWORD PTR [rsp-0x18],xmm14
    34bb:	66 44 0f 6f f1       	movdqa xmm14,xmm1
    34c0:	66 89 b0 02 ff ff ff 	mov    WORD PTR [rax-0xfe],si
    34c7:	66 41 0f c5 f2 01    	pextrw esi,xmm10,0x1
    34cd:	66 45 0f f9 f5       	psubw  xmm14,xmm13
    34d2:	66 44 0f 6f e9       	movdqa xmm13,xmm1
    34d7:	66 89 b0 12 ff ff ff 	mov    WORD PTR [rax-0xee],si
    34de:	66 41 0f c5 f2 02    	pextrw esi,xmm10,0x2
    34e4:	66 44 0f db f5       	pand   xmm14,xmm5
    34e9:	66 44 0f f9 e8       	psubw  xmm13,xmm0
    34ee:	66 89 b0 22 ff ff ff 	mov    WORD PTR [rax-0xde],si
    34f5:	66 41 0f c5 f2 03    	pextrw esi,xmm10,0x3
    34fb:	66 44 0f db ed       	pand   xmm13,xmm5
    3500:	66 89 b0 32 ff ff ff 	mov    WORD PTR [rax-0xce],si
    3507:	66 41 0f c5 f2 04    	pextrw esi,xmm10,0x4
    350d:	66 89 b0 42 ff ff ff 	mov    WORD PTR [rax-0xbe],si
    3514:	66 41 0f c5 f2 05    	pextrw esi,xmm10,0x5
    351a:	66 89 b0 52 ff ff ff 	mov    WORD PTR [rax-0xae],si
    3521:	66 41 0f c5 f2 06    	pextrw esi,xmm10,0x6
    3527:	66 89 b0 62 ff ff ff 	mov    WORD PTR [rax-0x9e],si
    352e:	66 41 0f c5 f2 07    	pextrw esi,xmm10,0x7
    3534:	66 89 b0 72 ff ff ff 	mov    WORD PTR [rax-0x8e],si
    353b:	66 41 0f c5 f1 00    	pextrw esi,xmm9,0x0
    3541:	66 89 70 82          	mov    WORD PTR [rax-0x7e],si
    3545:	66 41 0f c5 f1 01    	pextrw esi,xmm9,0x1
    354b:	66 89 70 92          	mov    WORD PTR [rax-0x6e],si
    354f:	66 41 0f c5 f1 02    	pextrw esi,xmm9,0x2
    3555:	66 89 70 a2          	mov    WORD PTR [rax-0x5e],si
    3559:	66 41 0f c5 f1 03    	pextrw esi,xmm9,0x3
    355f:	66 89 70 b2          	mov    WORD PTR [rax-0x4e],si
    3563:	66 41 0f c5 f1 04    	pextrw esi,xmm9,0x4
    3569:	66 89 70 c2          	mov    WORD PTR [rax-0x3e],si
    356d:	66 41 0f c5 f1 05    	pextrw esi,xmm9,0x5
    3573:	66 89 70 d2          	mov    WORD PTR [rax-0x2e],si
    3577:	66 41 0f c5 f1 06    	pextrw esi,xmm9,0x6
    357d:	66 89 70 e2          	mov    WORD PTR [rax-0x1e],si
    3581:	66 41 0f c5 f1 07    	pextrw esi,xmm9,0x7
    3587:	66 89 70 f2          	mov    WORD PTR [rax-0xe],si
    358b:	66 41 0f c5 f0 00    	pextrw esi,xmm8,0x0
    3591:	66 89 b0 04 ff ff ff 	mov    WORD PTR [rax-0xfc],si
    3598:	66 41 0f c5 f0 01    	pextrw esi,xmm8,0x1
    359e:	66 89 b0 14 ff ff ff 	mov    WORD PTR [rax-0xec],si
    35a5:	66 41 0f c5 f0 02    	pextrw esi,xmm8,0x2
    35ab:	66 89 b0 24 ff ff ff 	mov    WORD PTR [rax-0xdc],si
    35b2:	66 41 0f c5 f0 03    	pextrw esi,xmm8,0x3
    35b8:	66 89 b0 34 ff ff ff 	mov    WORD PTR [rax-0xcc],si
    35bf:	66 41 0f c5 f0 04    	pextrw esi,xmm8,0x4
    35c5:	66 89 b0 44 ff ff ff 	mov    WORD PTR [rax-0xbc],si
    35cc:	66 41 0f c5 f0 05    	pextrw esi,xmm8,0x5
    35d2:	66 89 b0 54 ff ff ff 	mov    WORD PTR [rax-0xac],si
    35d9:	66 41 0f c5 f0 06    	pextrw esi,xmm8,0x6
    35df:	66 89 b0 64 ff ff ff 	mov    WORD PTR [rax-0x9c],si
    35e6:	66 41 0f c5 f0 07    	pextrw esi,xmm8,0x7
    35ec:	66 89 b0 74 ff ff ff 	mov    WORD PTR [rax-0x8c],si
    35f3:	66 0f c5 f7 00       	pextrw esi,xmm7,0x0
    35f8:	66 89 70 84          	mov    WORD PTR [rax-0x7c],si
    35fc:	66 0f c5 f7 01       	pextrw esi,xmm7,0x1
    3601:	66 89 70 94          	mov    WORD PTR [rax-0x6c],si
    3605:	66 0f c5 f7 02       	pextrw esi,xmm7,0x2
    360a:	66 89 70 a4          	mov    WORD PTR [rax-0x5c],si
    360e:	66 0f c5 f7 03       	pextrw esi,xmm7,0x3
    3613:	66 89 70 b4          	mov    WORD PTR [rax-0x4c],si
    3617:	66 0f c5 f7 04       	pextrw esi,xmm7,0x4
    361c:	66 89 70 c4          	mov    WORD PTR [rax-0x3c],si
    3620:	66 0f c5 f7 05       	pextrw esi,xmm7,0x5
    3625:	66 89 70 d4          	mov    WORD PTR [rax-0x2c],si
    3629:	66 0f c5 f7 06       	pextrw esi,xmm7,0x6
    362e:	66 89 70 e4          	mov    WORD PTR [rax-0x1c],si
    3632:	66 0f c5 f7 07       	pextrw esi,xmm7,0x7
    3637:	66 89 70 f4          	mov    WORD PTR [rax-0xc],si
    363b:	66 0f c5 f6 00       	pextrw esi,xmm6,0x0
    3640:	66 89 b0 06 ff ff ff 	mov    WORD PTR [rax-0xfa],si
    3647:	66 0f c5 f6 01       	pextrw esi,xmm6,0x1
    364c:	66 89 b0 16 ff ff ff 	mov    WORD PTR [rax-0xea],si
    3653:	66 0f c5 f6 02       	pextrw esi,xmm6,0x2
    3658:	66 89 b0 26 ff ff ff 	mov    WORD PTR [rax-0xda],si
    365f:	66 0f c5 f6 03       	pextrw esi,xmm6,0x3
    3664:	66 89 b0 36 ff ff ff 	mov    WORD PTR [rax-0xca],si
    366b:	66 0f c5 f6 04       	pextrw esi,xmm6,0x4
    3670:	66 89 b0 46 ff ff ff 	mov    WORD PTR [rax-0xba],si
    3677:	66 0f c5 f6 05       	pextrw esi,xmm6,0x5
    367c:	66 89 b0 56 ff ff ff 	mov    WORD PTR [rax-0xaa],si
    3683:	66 0f c5 f6 06       	pextrw esi,xmm6,0x6
    3688:	66 89 b0 66 ff ff ff 	mov    WORD PTR [rax-0x9a],si
    368f:	66 0f c5 f6 07       	pextrw esi,xmm6,0x7
    3694:	66 0f 6f 74 24 d8    	movdqa xmm6,XMMWORD PTR [rsp-0x28]
    369a:	66 89 b0 76 ff ff ff 	mov    WORD PTR [rax-0x8a],si
    36a1:	66 0f c5 f3 00       	pextrw esi,xmm3,0x0
    36a6:	66 89 70 86          	mov    WORD PTR [rax-0x7a],si
    36aa:	66 0f c5 f3 01       	pextrw esi,xmm3,0x1
    36af:	66 89 70 96          	mov    WORD PTR [rax-0x6a],si
    36b3:	66 0f c5 f3 02       	pextrw esi,xmm3,0x2
    36b8:	66 89 70 a6          	mov    WORD PTR [rax-0x5a],si
    36bc:	66 0f c5 f3 03       	pextrw esi,xmm3,0x3
    36c1:	66 89 70 b6          	mov    WORD PTR [rax-0x4a],si
    36c5:	66 0f c5 f3 04       	pextrw esi,xmm3,0x4
    36ca:	66 89 70 c6          	mov    WORD PTR [rax-0x3a],si
    36ce:	66 0f c5 f3 05       	pextrw esi,xmm3,0x5
    36d3:	66 89 70 d6          	mov    WORD PTR [rax-0x2a],si
    36d7:	66 0f c5 f3 06       	pextrw esi,xmm3,0x6
    36dc:	66 89 70 e6          	mov    WORD PTR [rax-0x1a],si
    36e0:	66 0f c5 f3 07       	pextrw esi,xmm3,0x7
    36e5:	66 89 70 f6          	mov    WORD PTR [rax-0xa],si
    36e9:	66 0f c5 f2 00       	pextrw esi,xmm2,0x0
    36ee:	66 89 b0 08 ff ff ff 	mov    WORD PTR [rax-0xf8],si
    36f5:	66 0f c5 f2 01       	pextrw esi,xmm2,0x1
    36fa:	66 89 b0 18 ff ff ff 	mov    WORD PTR [rax-0xe8],si
    3701:	66 0f c5 f2 02       	pextrw esi,xmm2,0x2
    3706:	66 89 b0 28 ff ff ff 	mov    WORD PTR [rax-0xd8],si
    370d:	66 0f c5 f2 03       	pextrw esi,xmm2,0x3
    3712:	66 89 b0 38 ff ff ff 	mov    WORD PTR [rax-0xc8],si
    3719:	66 0f c5 f2 04       	pextrw esi,xmm2,0x4
    371e:	66 89 b0 48 ff ff ff 	mov    WORD PTR [rax-0xb8],si
    3725:	66 0f c5 f2 05       	pextrw esi,xmm2,0x5
    372a:	66 89 b0 58 ff ff ff 	mov    WORD PTR [rax-0xa8],si
    3731:	66 0f c5 f2 06       	pextrw esi,xmm2,0x6
    3736:	66 89 b0 68 ff ff ff 	mov    WORD PTR [rax-0x98],si
    373d:	66 0f c5 f2 07       	pextrw esi,xmm2,0x7
    3742:	66 0f 6f d1          	movdqa xmm2,xmm1
    3746:	66 89 b0 78 ff ff ff 	mov    WORD PTR [rax-0x88],si
    374d:	66 0f c5 f6 00       	pextrw esi,xmm6,0x0
    3752:	66 89 70 88          	mov    WORD PTR [rax-0x78],si
    3756:	66 0f c5 f6 01       	pextrw esi,xmm6,0x1
    375b:	66 89 70 98          	mov    WORD PTR [rax-0x68],si
    375f:	66 0f c5 f6 02       	pextrw esi,xmm6,0x2
    3764:	66 89 70 a8          	mov    WORD PTR [rax-0x58],si
    3768:	66 0f c5 f6 03       	pextrw esi,xmm6,0x3
    376d:	66 89 70 b8          	mov    WORD PTR [rax-0x48],si
    3771:	66 0f c5 f6 04       	pextrw esi,xmm6,0x4
    3776:	66 89 70 c8          	mov    WORD PTR [rax-0x38],si
    377a:	66 0f c5 f6 05       	pextrw esi,xmm6,0x5
    377f:	66 89 70 d8          	mov    WORD PTR [rax-0x28],si
    3783:	66 0f c5 f6 06       	pextrw esi,xmm6,0x6
    3788:	66 89 70 e8          	mov    WORD PTR [rax-0x18],si
    378c:	66 0f c5 f6 07       	pextrw esi,xmm6,0x7
    3791:	66 89 70 f8          	mov    WORD PTR [rax-0x8],si
    3795:	66 41 0f c5 f7 00    	pextrw esi,xmm15,0x0
    379b:	66 89 b0 0a ff ff ff 	mov    WORD PTR [rax-0xf6],si
    37a2:	66 41 0f c5 f7 01    	pextrw esi,xmm15,0x1
    37a8:	66 89 b0 1a ff ff ff 	mov    WORD PTR [rax-0xe6],si
    37af:	66 41 0f c5 f7 02    	pextrw esi,xmm15,0x2
    37b5:	66 0f 6f 7c 24 e8    	movdqa xmm7,XMMWORD PTR [rsp-0x18]
    37bb:	66 89 b0 2a ff ff ff 	mov    WORD PTR [rax-0xd6],si
    37c2:	66 41 0f c5 f7 03    	pextrw esi,xmm15,0x3
    37c8:	66 89 b0 3a ff ff ff 	mov    WORD PTR [rax-0xc6],si
    37cf:	66 41 0f c5 f7 04    	pextrw esi,xmm15,0x4
    37d5:	66 89 b0 4a ff ff ff 	mov    WORD PTR [rax-0xb6],si
    37dc:	66 41 0f c5 f7 05    	pextrw esi,xmm15,0x5
    37e2:	66 89 b0 5a ff ff ff 	mov    WORD PTR [rax-0xa6],si
    37e9:	66 41 0f c5 f7 06    	pextrw esi,xmm15,0x6
    37ef:	66 89 b0 6a ff ff ff 	mov    WORD PTR [rax-0x96],si
    37f6:	66 41 0f c5 f7 07    	pextrw esi,xmm15,0x7
    37fc:	66 89 b0 7a ff ff ff 	mov    WORD PTR [rax-0x86],si
    3803:	66 0f c5 f7 00       	pextrw esi,xmm7,0x0
    3808:	66 89 70 8a          	mov    WORD PTR [rax-0x76],si
    380c:	66 0f c5 f7 01       	pextrw esi,xmm7,0x1
    3811:	66 89 70 9a          	mov    WORD PTR [rax-0x66],si
    3815:	66 0f c5 f7 02       	pextrw esi,xmm7,0x2
    381a:	66 89 70 aa          	mov    WORD PTR [rax-0x56],si
    381e:	66 0f c5 f7 03       	pextrw esi,xmm7,0x3
    3823:	66 89 70 ba          	mov    WORD PTR [rax-0x46],si
    3827:	66 0f c5 f7 04       	pextrw esi,xmm7,0x4
    382c:	66 89 70 ca          	mov    WORD PTR [rax-0x36],si
    3830:	66 0f c5 f7 05       	pextrw esi,xmm7,0x5
    3835:	66 89 70 da          	mov    WORD PTR [rax-0x26],si
    3839:	66 0f c5 f7 06       	pextrw esi,xmm7,0x6
    383e:	66 89 70 ea          	mov    WORD PTR [rax-0x16],si
    3842:	66 0f c5 f7 07       	pextrw esi,xmm7,0x7
    3847:	66 89 70 fa          	mov    WORD PTR [rax-0x6],si
    384b:	66 41 0f c5 f6 00    	pextrw esi,xmm14,0x0
    3851:	66 89 b0 0c ff ff ff 	mov    WORD PTR [rax-0xf4],si
    3858:	66 41 0f c5 f6 01    	pextrw esi,xmm14,0x1
    385e:	66 89 b0 1c ff ff ff 	mov    WORD PTR [rax-0xe4],si
    3865:	66 41 0f c5 f6 02    	pextrw esi,xmm14,0x2
    386b:	66 89 b0 2c ff ff ff 	mov    WORD PTR [rax-0xd4],si
    3872:	66 41 0f c5 f6 03    	pextrw esi,xmm14,0x3
    3878:	66 89 b0 3c ff ff ff 	mov    WORD PTR [rax-0xc4],si
    387f:	66 41 0f c5 f6 04    	pextrw esi,xmm14,0x4
    3885:	66 89 b0 4c ff ff ff 	mov    WORD PTR [rax-0xb4],si
    388c:	66 41 0f c5 f6 05    	pextrw esi,xmm14,0x5
    3892:	66 89 b0 5c ff ff ff 	mov    WORD PTR [rax-0xa4],si
    3899:	66 41 0f c5 f6 06    	pextrw esi,xmm14,0x6
    389f:	66 89 b0 6c ff ff ff 	mov    WORD PTR [rax-0x94],si
    38a6:	66 41 0f c5 f6 07    	pextrw esi,xmm14,0x7
    38ac:	66 89 b0 7c ff ff ff 	mov    WORD PTR [rax-0x84],si
    38b3:	66 41 0f c5 f5 00    	pextrw esi,xmm13,0x0
    38b9:	66 89 70 8c          	mov    WORD PTR [rax-0x74],si
    38bd:	66 41 0f c5 f5 01    	pextrw esi,xmm13,0x1
    38c3:	66 89 70 9c          	mov    WORD PTR [rax-0x64],si
    38c7:	66 41 0f c5 f5 02    	pextrw esi,xmm13,0x2
    38cd:	66 89 70 ac          	mov    WORD PTR [rax-0x54],si
    38d1:	66 41 0f c5 f5 03    	pextrw esi,xmm13,0x3
    38d7:	66 89 70 bc          	mov    WORD PTR [rax-0x44],si
    38db:	66 41 0f c5 f5 04    	pextrw esi,xmm13,0x4
    38e1:	66 89 70 cc          	mov    WORD PTR [rax-0x34],si
    38e5:	66 41 0f c5 f5 05    	pextrw esi,xmm13,0x5
    38eb:	66 89 70 dc          	mov    WORD PTR [rax-0x24],si
    38ef:	66 41 0f c5 f5 06    	pextrw esi,xmm13,0x6
    38f5:	66 89 70 ec          	mov    WORD PTR [rax-0x14],si
    38f9:	66 41 0f c5 f5 07    	pextrw esi,xmm13,0x7
    38ff:	66 89 70 fc          	mov    WORD PTR [rax-0x4],si
    3903:	f3 0f 6f 42 f0       	movdqu xmm0,XMMWORD PTR [rdx-0x10]
    3908:	66 0f 71 d0 07       	psrlw  xmm0,0x7
    390d:	66 0f db 05 5b 77 00 	pand   xmm0,XMMWORD PTR [rip+0x775b]        # b070 <_IO_stdin_used+0x70>
    3914:	00 
    3915:	66 0f 6f d8          	movdqa xmm3,xmm0
    3919:	66 0f 68 c4          	punpckhbw xmm0,xmm4
    391d:	66 0f 60 dc          	punpcklbw xmm3,xmm4
    3921:	66 0f f9 d3          	psubw  xmm2,xmm3
    3925:	66 0f 6f d8          	movdqa xmm3,xmm0
    3929:	66 0f 6f c1          	movdqa xmm0,xmm1
    392d:	66 0f db d5          	pand   xmm2,xmm5
    3931:	66 0f f9 c3          	psubw  xmm0,xmm3
    3935:	66 0f c5 f2 00       	pextrw esi,xmm2,0x0
    393a:	66 0f db c5          	pand   xmm0,xmm5
    393e:	66 89 b0 0e ff ff ff 	mov    WORD PTR [rax-0xf2],si
    3945:	66 0f c5 f2 01       	pextrw esi,xmm2,0x1
    394a:	66 89 b0 1e ff ff ff 	mov    WORD PTR [rax-0xe2],si
    3951:	66 0f c5 f2 02       	pextrw esi,xmm2,0x2
    3956:	66 89 b0 2e ff ff ff 	mov    WORD PTR [rax-0xd2],si
    395d:	66 0f c5 f2 03       	pextrw esi,xmm2,0x3
    3962:	66 89 b0 3e ff ff ff 	mov    WORD PTR [rax-0xc2],si
    3969:	66 0f c5 f2 04       	pextrw esi,xmm2,0x4
    396e:	66 89 b0 4e ff ff ff 	mov    WORD PTR [rax-0xb2],si
    3975:	66 0f c5 f2 05       	pextrw esi,xmm2,0x5
    397a:	66 89 b0 5e ff ff ff 	mov    WORD PTR [rax-0xa2],si
    3981:	66 0f c5 f2 06       	pextrw esi,xmm2,0x6
    3986:	66 89 b0 6e ff ff ff 	mov    WORD PTR [rax-0x92],si
    398d:	66 0f c5 f2 07       	pextrw esi,xmm2,0x7
    3992:	66 89 b0 7e ff ff ff 	mov    WORD PTR [rax-0x82],si
    3999:	66 0f c5 f0 00       	pextrw esi,xmm0,0x0
    399e:	66 89 70 8e          	mov    WORD PTR [rax-0x72],si
    39a2:	66 0f c5 f0 01       	pextrw esi,xmm0,0x1
    39a7:	66 89 70 9e          	mov    WORD PTR [rax-0x62],si
    39ab:	66 0f c5 f0 02       	pextrw esi,xmm0,0x2
    39b0:	66 89 70 ae          	mov    WORD PTR [rax-0x52],si
    39b4:	66 0f c5 f0 03       	pextrw esi,xmm0,0x3
    39b9:	66 89 70 be          	mov    WORD PTR [rax-0x42],si
    39bd:	66 0f c5 f0 04       	pextrw esi,xmm0,0x4
    39c2:	66 89 70 ce          	mov    WORD PTR [rax-0x32],si
    39c6:	66 0f c5 f0 05       	pextrw esi,xmm0,0x5
    39cb:	66 89 70 de          	mov    WORD PTR [rax-0x22],si
    39cf:	66 0f c5 f0 06       	pextrw esi,xmm0,0x6
    39d4:	66 89 70 ee          	mov    WORD PTR [rax-0x12],si
    39d8:	66 0f c5 f0 07       	pextrw esi,xmm0,0x7
    39dd:	66 89 70 fe          	mov    WORD PTR [rax-0x2],si
    39e1:	48 39 ca             	cmp    rdx,rcx
    39e4:	0f 85 49 f8 ff ff    	jne    3233 <pqcrystals_kyber512_ref_poly_frommsg+0x33>
    39ea:	c3                   	ret    
    39eb:	0f 1f 44 00 00       	nop    DWORD PTR [rax+rax*1+0x0]
    39f0:	0f b6 0a             	movzx  ecx,BYTE PTR [rdx]
    39f3:	48 83 c0 10          	add    rax,0x10
    39f7:	48 83 c2 01          	add    rdx,0x1
    39fb:	83 e1 01             	and    ecx,0x1
    39fe:	f7 d9                	neg    ecx
    3a00:	66 81 e1 81 06       	and    cx,0x681
    3a05:	66 89 48 f0          	mov    WORD PTR [rax-0x10],cx
    3a09:	0f b6 4a ff          	movzx  ecx,BYTE PTR [rdx-0x1]
    3a0d:	d1 f9                	sar    ecx,1
    3a0f:	83 e1 01             	and    ecx,0x1
    3a12:	f7 d9                	neg    ecx
    3a14:	66 81 e1 81 06       	and    cx,0x681
    3a19:	66 89 48 f2          	mov    WORD PTR [rax-0xe],cx
    3a1d:	0f b6 4a ff          	movzx  ecx,BYTE PTR [rdx-0x1]
    3a21:	c1 f9 02             	sar    ecx,0x2
    3a24:	83 e1 01             	and    ecx,0x1
    3a27:	f7 d9                	neg    ecx
    3a29:	66 81 e1 81 06       	and    cx,0x681
    3a2e:	66 89 48 f4          	mov    WORD PTR [rax-0xc],cx
    3a32:	0f b6 4a ff          	movzx  ecx,BYTE PTR [rdx-0x1]
    3a36:	c1 f9 03             	sar    ecx,0x3
    3a39:	83 e1 01             	and    ecx,0x1
    3a3c:	f7 d9                	neg    ecx
    3a3e:	66 81 e1 81 06       	and    cx,0x681
    3a43:	66 89 48 f6          	mov    WORD PTR [rax-0xa],cx
    3a47:	0f b6 4a ff          	movzx  ecx,BYTE PTR [rdx-0x1]
    3a4b:	c1 f9 04             	sar    ecx,0x4
    3a4e:	83 e1 01             	and    ecx,0x1
    3a51:	f7 d9                	neg    ecx
    3a53:	66 81 e1 81 06       	and    cx,0x681
    3a58:	66 89 48 f8          	mov    WORD PTR [rax-0x8],cx
    3a5c:	0f b6 4a ff          	movzx  ecx,BYTE PTR [rdx-0x1]
    3a60:	c1 f9 05             	sar    ecx,0x5
    3a63:	83 e1 01             	and    ecx,0x1
    3a66:	f7 d9                	neg    ecx
    3a68:	66 81 e1 81 06       	and    cx,0x681
    3a6d:	66 89 48 fa          	mov    WORD PTR [rax-0x6],cx
    3a71:	0f b6 4a ff          	movzx  ecx,BYTE PTR [rdx-0x1]
    3a75:	c1 f9 06             	sar    ecx,0x6
    3a78:	83 e1 01             	and    ecx,0x1
    3a7b:	f7 d9                	neg    ecx
    3a7d:	66 81 e1 81 06       	and    cx,0x681
    3a82:	66 89 48 fc          	mov    WORD PTR [rax-0x4],cx
    3a86:	0f b6 4a ff          	movzx  ecx,BYTE PTR [rdx-0x1]
    3a8a:	c1 f9 07             	sar    ecx,0x7
    3a8d:	f7 d9                	neg    ecx
    3a8f:	66 81 e1 81 06       	and    cx,0x681
    3a94:	66 89 48 fe          	mov    WORD PTR [rax-0x2],cx
    3a98:	48 39 c7             	cmp    rdi,rax
    3a9b:	0f 85 4f ff ff ff    	jne    39f0 <pqcrystals_kyber512_ref_poly_frommsg+0x7f0>
    3aa1:	c3                   	ret    
    3aa2:	66 66 2e 0f 1f 84 00 	data16 cs nop WORD PTR [rax+rax*1+0x0]
    3aa9:	00 00 00 00 
    3aad:	0f 1f 00             	nop    DWORD PTR [rax]

0000000000003ab0 <pqcrystals_kyber512_ref_poly_tomsg>:
    3ab0:	f3 0f 1e fa          	endbr64 
    3ab4:	48 8d 47 20          	lea    rax,[rdi+0x20]
    3ab8:	48 89 f9             	mov    rcx,rdi
    3abb:	48 89 f2             	mov    rdx,rsi
    3abe:	48 39 c6             	cmp    rsi,rax
    3ac1:	73 10                	jae    3ad3 <pqcrystals_kyber512_ref_poly_tomsg+0x23>
    3ac3:	4c 8d 86 00 02 00 00 	lea    r8,[rsi+0x200]
    3aca:	4c 39 c7             	cmp    rdi,r8
    3acd:	0f 82 c5 12 00 00    	jb     4d98 <pqcrystals_kyber512_ref_poly_tomsg+0x12e8>
    3ad3:	66 0f ef ff          	pxor   xmm7,xmm7
    3ad7:	48 83 c1 10          	add    rcx,0x10
    3adb:	48 81 c2 00 01 00 00 	add    rdx,0x100
    3ae2:	0f 11 79 f0          	movups XMMWORD PTR [rcx-0x10],xmm7
    3ae6:	f3 0f 6f aa 00 ff ff 	movdqu xmm5,XMMWORD PTR [rdx-0x100]
    3aed:	ff 
    3aee:	f3 44 0f 6f 82 10 ff 	movdqu xmm8,XMMWORD PTR [rdx-0xf0]
    3af5:	ff ff 
    3af7:	f3 0f 6f b2 20 ff ff 	movdqu xmm6,XMMWORD PTR [rdx-0xe0]
    3afe:	ff 
    3aff:	f3 0f 6f ba 30 ff ff 	movdqu xmm7,XMMWORD PTR [rdx-0xd0]
    3b06:	ff 
    3b07:	66 0f 6f c5          	movdqa xmm0,xmm5
    3b0b:	66 0f 6f d5          	movdqa xmm2,xmm5
    3b0f:	f3 0f 6f 8a 40 ff ff 	movdqu xmm1,XMMWORD PTR [rdx-0xc0]
    3b16:	ff 
    3b17:	66 41 0f 61 e8       	punpcklwd xmm5,xmm8
    3b1c:	66 41 0f 61 c0       	punpcklwd xmm0,xmm8
    3b21:	66 41 0f 69 d0       	punpckhwd xmm2,xmm8
    3b26:	66 44 0f 6f c6       	movdqa xmm8,xmm6
    3b2b:	f3 0f 6f a2 50 ff ff 	movdqu xmm4,XMMWORD PTR [rdx-0xb0]
    3b32:	ff 
    3b33:	66 44 0f 6f d0       	movdqa xmm10,xmm0
    3b38:	66 0f 61 ea          	punpcklwd xmm5,xmm2
    3b3c:	66 44 0f 61 c7       	punpcklwd xmm8,xmm7
    3b41:	f3 0f 6f 9a 60 ff ff 	movdqu xmm3,XMMWORD PTR [rdx-0xa0]
    3b48:	ff 
    3b49:	66 44 0f 69 d2       	punpckhwd xmm10,xmm2
    3b4e:	66 0f 61 c2          	punpcklwd xmm0,xmm2
    3b52:	66 0f 6f d6          	movdqa xmm2,xmm6
    3b56:	f3 44 0f 6f 8a 70 ff 	movdqu xmm9,XMMWORD PTR [rdx-0x90]
    3b5d:	ff ff 
    3b5f:	66 0f 69 d7          	punpckhwd xmm2,xmm7
    3b63:	66 41 0f 61 c2       	punpcklwd xmm0,xmm10
    3b68:	66 41 0f 69 ea       	punpckhwd xmm5,xmm10
    3b6d:	f3 44 0f 6f 62 b0    	movdqu xmm12,XMMWORD PTR [rdx-0x50]
    3b73:	66 45 0f 6f d0       	movdqa xmm10,xmm8
    3b78:	66 0f 61 f7          	punpcklwd xmm6,xmm7
    3b7c:	66 0f 6f f9          	movdqa xmm7,xmm1
    3b80:	66 44 0f 69 d2       	punpckhwd xmm10,xmm2
    3b85:	66 0f 61 fc          	punpcklwd xmm7,xmm4
    3b89:	66 44 0f 61 c2       	punpcklwd xmm8,xmm2
    3b8e:	66 0f 61 f2          	punpcklwd xmm6,xmm2
    3b92:	66 0f 6f d1          	movdqa xmm2,xmm1
    3b96:	66 45 0f 61 c2       	punpcklwd xmm8,xmm10
    3b9b:	66 41 0f 69 f2       	punpckhwd xmm6,xmm10
    3ba0:	66 0f 69 d4          	punpckhwd xmm2,xmm4
    3ba4:	66 44 0f 6f d7       	movdqa xmm10,xmm7
    3ba9:	66 0f 61 cc          	punpcklwd xmm1,xmm4
    3bad:	66 44 0f 69 d2       	punpckhwd xmm10,xmm2
    3bb2:	66 0f 61 fa          	punpcklwd xmm7,xmm2
    3bb6:	66 0f 61 ca          	punpcklwd xmm1,xmm2
    3bba:	66 0f 6f d3          	movdqa xmm2,xmm3
    3bbe:	66 0f 6f e3          	movdqa xmm4,xmm3
    3bc2:	66 41 0f 61 d1       	punpcklwd xmm2,xmm9
    3bc7:	66 41 0f 69 e1       	punpckhwd xmm4,xmm9
    3bcc:	66 41 0f 61 fa       	punpcklwd xmm7,xmm10
    3bd1:	66 41 0f 69 ca       	punpckhwd xmm1,xmm10
    3bd6:	66 41 0f 61 d9       	punpcklwd xmm3,xmm9
    3bdb:	66 44 0f 6f d2       	movdqa xmm10,xmm2
    3be0:	66 44 0f 69 d4       	punpckhwd xmm10,xmm4
    3be5:	66 0f 61 d4          	punpcklwd xmm2,xmm4
    3be9:	66 0f 61 dc          	punpcklwd xmm3,xmm4
    3bed:	66 0f 6f e0          	movdqa xmm4,xmm0
    3bf1:	66 44 0f 6f c8       	movdqa xmm9,xmm0
    3bf6:	66 41 0f 61 d2       	punpcklwd xmm2,xmm10
    3bfb:	66 41 0f 61 e0       	punpcklwd xmm4,xmm8
    3c00:	66 41 0f 69 da       	punpckhwd xmm3,xmm10
    3c05:	66 45 0f 69 c8       	punpckhwd xmm9,xmm8
    3c0a:	66 44 0f 6f d4       	movdqa xmm10,xmm4
    3c0f:	66 41 0f 61 c0       	punpcklwd xmm0,xmm8
    3c14:	66 44 0f 6f c7       	movdqa xmm8,xmm7
    3c19:	66 45 0f 69 d1       	punpckhwd xmm10,xmm9
    3c1e:	66 44 0f 61 c2       	punpcklwd xmm8,xmm2
    3c23:	66 41 0f 61 e1       	punpcklwd xmm4,xmm9
    3c28:	66 41 0f 61 c1       	punpcklwd xmm0,xmm9
    3c2d:	66 44 0f 6f cf       	movdqa xmm9,xmm7
    3c32:	66 41 0f 61 e2       	punpcklwd xmm4,xmm10
    3c37:	66 44 0f 69 ca       	punpckhwd xmm9,xmm2
    3c3c:	66 41 0f 69 c2       	punpckhwd xmm0,xmm10
    3c41:	66 0f 61 fa          	punpcklwd xmm7,xmm2
    3c45:	66 45 0f 6f d0       	movdqa xmm10,xmm8
    3c4a:	66 0f 6f d5          	movdqa xmm2,xmm5
    3c4e:	66 45 0f 61 c1       	punpcklwd xmm8,xmm9
    3c53:	66 45 0f 69 d1       	punpckhwd xmm10,xmm9
    3c58:	66 0f 61 d6          	punpcklwd xmm2,xmm6
    3c5c:	66 41 0f 61 f9       	punpcklwd xmm7,xmm9
    3c61:	66 44 0f 6f cd       	movdqa xmm9,xmm5
    3c66:	66 45 0f 61 c2       	punpcklwd xmm8,xmm10
    3c6b:	66 41 0f 69 fa       	punpckhwd xmm7,xmm10
    3c70:	66 44 0f 69 ce       	punpckhwd xmm9,xmm6
    3c75:	66 44 0f 6f d2       	movdqa xmm10,xmm2
    3c7a:	66 0f 61 ee          	punpcklwd xmm5,xmm6
    3c7e:	66 0f 6f f1          	movdqa xmm6,xmm1
    3c82:	66 45 0f 69 d1       	punpckhwd xmm10,xmm9
    3c87:	66 41 0f 61 d1       	punpcklwd xmm2,xmm9
    3c8c:	66 0f 61 f3          	punpcklwd xmm6,xmm3
    3c90:	66 41 0f 61 e9       	punpcklwd xmm5,xmm9
    3c95:	66 44 0f 6f c9       	movdqa xmm9,xmm1
    3c9a:	66 44 0f 69 cb       	punpckhwd xmm9,xmm3
    3c9f:	66 41 0f 61 d2       	punpcklwd xmm2,xmm10
    3ca4:	66 41 0f 69 ea       	punpckhwd xmm5,xmm10
    3ca9:	66 44 0f 6f dc       	movdqa xmm11,xmm4
    3cae:	66 44 0f 6f d6       	movdqa xmm10,xmm6
    3cb3:	66 0f 61 cb          	punpcklwd xmm1,xmm3
    3cb7:	66 45 0f 69 d1       	punpckhwd xmm10,xmm9
    3cbc:	66 45 0f 61 d8       	punpcklwd xmm11,xmm8
    3cc1:	66 41 0f 61 f1       	punpcklwd xmm6,xmm9
    3cc6:	66 0f 6f dc          	movdqa xmm3,xmm4
    3cca:	66 41 0f 61 f2       	punpcklwd xmm6,xmm10
    3ccf:	66 41 0f 61 c9       	punpcklwd xmm1,xmm9
    3cd4:	66 41 0f 69 d8       	punpckhwd xmm3,xmm8
    3cd9:	66 45 0f 6f cb       	movdqa xmm9,xmm11
    3cde:	66 41 0f 61 e0       	punpcklwd xmm4,xmm8
    3ce3:	66 44 0f 6f ea       	movdqa xmm13,xmm2
    3ce8:	66 44 0f 69 cb       	punpckhwd xmm9,xmm3
    3ced:	66 44 0f 61 db       	punpcklwd xmm11,xmm3
    3cf2:	66 44 0f 61 ee       	punpcklwd xmm13,xmm6
    3cf7:	66 0f 61 e3          	punpcklwd xmm4,xmm3
    3cfb:	66 0f 6f da          	movdqa xmm3,xmm2
    3cff:	66 0f 69 de          	punpckhwd xmm3,xmm6
    3d03:	66 45 0f 61 d9       	punpcklwd xmm11,xmm9
    3d08:	66 41 0f 69 e1       	punpckhwd xmm4,xmm9
    3d0d:	66 45 0f 6f c5       	movdqa xmm8,xmm13
    3d12:	66 0f 61 d6          	punpcklwd xmm2,xmm6
    3d16:	66 44 0f 6f c8       	movdqa xmm9,xmm0
    3d1b:	66 44 0f 69 c3       	punpckhwd xmm8,xmm3
    3d20:	66 44 0f 61 cf       	punpcklwd xmm9,xmm7
    3d25:	66 44 0f 61 eb       	punpcklwd xmm13,xmm3
    3d2a:	66 0f 61 d3          	punpcklwd xmm2,xmm3
    3d2e:	66 0f 6f d8          	movdqa xmm3,xmm0
    3d32:	66 0f 61 c7          	punpcklwd xmm0,xmm7
    3d36:	66 0f 69 df          	punpckhwd xmm3,xmm7
    3d3a:	66 41 0f 6f f1       	movdqa xmm6,xmm9
    3d3f:	66 0f 6f f8          	movdqa xmm7,xmm0
    3d43:	f3 0f 6f 42 d0       	movdqu xmm0,XMMWORD PTR [rdx-0x30]
    3d48:	66 0f 69 f3          	punpckhwd xmm6,xmm3
    3d4c:	66 0f 61 fb          	punpcklwd xmm7,xmm3
    3d50:	66 41 0f 69 ca       	punpckhwd xmm1,xmm10
    3d55:	f3 44 0f 6f 52 c0    	movdqu xmm10,XMMWORD PTR [rdx-0x40]
    3d5b:	66 0f 69 fe          	punpckhwd xmm7,xmm6
    3d5f:	66 44 0f 61 cb       	punpcklwd xmm9,xmm3
    3d64:	66 0f 6f dd          	movdqa xmm3,xmm5
    3d68:	0f 29 7c 24 c8       	movaps XMMWORD PTR [rsp-0x38],xmm7
    3d6d:	66 0f 6f fd          	movdqa xmm7,xmm5
    3d71:	66 0f 69 d9          	punpckhwd xmm3,xmm1
    3d75:	66 44 0f 61 ce       	punpcklwd xmm9,xmm6
    3d7a:	66 0f 61 f9          	punpcklwd xmm7,xmm1
    3d7e:	66 0f 61 e9          	punpcklwd xmm5,xmm1
    3d82:	66 45 0f 61 e8       	punpcklwd xmm13,xmm8
    3d87:	66 0f 6f f7          	movdqa xmm6,xmm7
    3d8b:	66 0f 61 eb          	punpcklwd xmm5,xmm3
    3d8f:	66 0f 61 fb          	punpcklwd xmm7,xmm3
    3d93:	66 0f 69 f3          	punpckhwd xmm6,xmm3
    3d97:	f3 0f 6f 5a 90       	movdqu xmm3,XMMWORD PTR [rdx-0x70]
    3d9c:	66 41 0f 69 d0       	punpckhwd xmm2,xmm8
    3da1:	66 0f 69 ee          	punpckhwd xmm5,xmm6
    3da5:	66 0f 61 fe          	punpcklwd xmm7,xmm6
    3da9:	f3 0f 6f 72 a0       	movdqu xmm6,XMMWORD PTR [rdx-0x60]
    3dae:	0f 29 6c 24 d8       	movaps XMMWORD PTR [rsp-0x28],xmm5
    3db3:	f3 0f 6f 6a 80       	movdqu xmm5,XMMWORD PTR [rdx-0x80]
    3db8:	66 44 0f 6f f6       	movdqa xmm14,xmm6
    3dbd:	66 44 0f 6f fd       	movdqa xmm15,xmm5
    3dc2:	66 0f 6f cd          	movdqa xmm1,xmm5
    3dc6:	66 0f 61 eb          	punpcklwd xmm5,xmm3
    3dca:	66 44 0f 61 fb       	punpcklwd xmm15,xmm3
    3dcf:	66 0f 69 cb          	punpckhwd xmm1,xmm3
    3dd3:	66 45 0f 61 f4       	punpcklwd xmm14,xmm12
    3dd8:	66 45 0f 6f c7       	movdqa xmm8,xmm15
    3ddd:	66 0f 61 e9          	punpcklwd xmm5,xmm1
    3de1:	66 44 0f 61 f9       	punpcklwd xmm15,xmm1
    3de6:	66 44 0f 69 c1       	punpckhwd xmm8,xmm1
    3deb:	66 0f 6f ce          	movdqa xmm1,xmm6
    3def:	66 45 0f 61 f8       	punpcklwd xmm15,xmm8
    3df4:	66 41 0f 69 e8       	punpckhwd xmm5,xmm8
    3df9:	66 44 0f 6f c6       	movdqa xmm8,xmm6
    3dfe:	66 45 0f 61 c4       	punpcklwd xmm8,xmm12
    3e03:	66 41 0f 69 cc       	punpckhwd xmm1,xmm12
    3e08:	66 41 0f 6f d8       	movdqa xmm3,xmm8
    3e0d:	66 44 0f 61 f1       	punpcklwd xmm14,xmm1
    3e12:	66 44 0f 61 c1       	punpcklwd xmm8,xmm1
    3e17:	66 0f 69 d9          	punpckhwd xmm3,xmm1
    3e1b:	66 41 0f 6f ca       	movdqa xmm1,xmm10
    3e20:	66 44 0f 61 c3       	punpcklwd xmm8,xmm3
    3e25:	66 44 0f 69 f3       	punpckhwd xmm14,xmm3
    3e2a:	f3 0f 6f 5a d0       	movdqu xmm3,XMMWORD PTR [rdx-0x30]
    3e2f:	66 0f 69 c8          	punpckhwd xmm1,xmm0
    3e33:	66 41 0f 6f c2       	movdqa xmm0,xmm10
    3e38:	66 0f 61 c3          	punpcklwd xmm0,xmm3
    3e3c:	66 0f 6f f0          	movdqa xmm6,xmm0
    3e40:	66 0f 6f d8          	movdqa xmm3,xmm0
    3e44:	f3 0f 6f 42 d0       	movdqu xmm0,XMMWORD PTR [rdx-0x30]
    3e49:	66 0f 69 d9          	punpckhwd xmm3,xmm1
    3e4d:	66 0f 61 f1          	punpcklwd xmm6,xmm1
    3e51:	66 44 0f 61 d0       	punpcklwd xmm10,xmm0
    3e56:	66 0f 61 f3          	punpcklwd xmm6,xmm3
    3e5a:	f3 0f 6f 42 f0       	movdqu xmm0,XMMWORD PTR [rdx-0x10]
    3e5f:	66 44 0f 61 d1       	punpcklwd xmm10,xmm1
    3e64:	f3 0f 6f 4a f0       	movdqu xmm1,XMMWORD PTR [rdx-0x10]
    3e69:	66 44 0f 69 d3       	punpckhwd xmm10,xmm3
    3e6e:	f3 0f 6f 5a e0       	movdqu xmm3,XMMWORD PTR [rdx-0x20]
    3e73:	66 0f 69 d9          	punpckhwd xmm3,xmm1
    3e77:	f3 0f 6f 4a e0       	movdqu xmm1,XMMWORD PTR [rdx-0x20]
    3e7c:	66 0f 61 c8          	punpcklwd xmm1,xmm0
    3e80:	66 0f 6f c1          	movdqa xmm0,xmm1
    3e84:	66 0f 69 cb          	punpckhwd xmm1,xmm3
    3e88:	66 0f 61 c3          	punpcklwd xmm0,xmm3
    3e8c:	66 44 0f 6f e1       	movdqa xmm12,xmm1
    3e91:	66 0f 6f c8          	movdqa xmm1,xmm0
    3e95:	f3 0f 6f 42 f0       	movdqu xmm0,XMMWORD PTR [rdx-0x10]
    3e9a:	66 41 0f 61 cc       	punpcklwd xmm1,xmm12
    3e9f:	0f 29 4c 24 e8       	movaps XMMWORD PTR [rsp-0x18],xmm1
    3ea4:	f3 0f 6f 4a e0       	movdqu xmm1,XMMWORD PTR [rdx-0x20]
    3ea9:	66 0f 61 c8          	punpcklwd xmm1,xmm0
    3ead:	66 0f 61 cb          	punpcklwd xmm1,xmm3
    3eb1:	66 41 0f 6f df       	movdqa xmm3,xmm15
    3eb6:	66 41 0f 69 cc       	punpckhwd xmm1,xmm12
    3ebb:	66 41 0f 61 d8       	punpcklwd xmm3,xmm8
    3ec0:	66 45 0f 6f e7       	movdqa xmm12,xmm15
    3ec5:	0f 29 4c 24 b8       	movaps XMMWORD PTR [rsp-0x48],xmm1
    3eca:	66 45 0f 69 e0       	punpckhwd xmm12,xmm8
    3ecf:	66 0f 6f c3          	movdqa xmm0,xmm3
    3ed3:	66 0f 6f 4c 24 e8    	movdqa xmm1,XMMWORD PTR [rsp-0x18]
    3ed9:	66 45 0f 61 f8       	punpcklwd xmm15,xmm8
    3ede:	66 41 0f 69 c4       	punpckhwd xmm0,xmm12
    3ee3:	66 41 0f 61 dc       	punpcklwd xmm3,xmm12
    3ee8:	66 45 0f 61 fc       	punpcklwd xmm15,xmm12
    3eed:	66 44 0f 6f c6       	movdqa xmm8,xmm6
    3ef2:	66 44 0f 6f e6       	movdqa xmm12,xmm6
    3ef7:	66 44 0f 69 e1       	punpckhwd xmm12,xmm1
    3efc:	66 44 0f 61 c1       	punpcklwd xmm8,xmm1
    3f01:	66 0f 61 f1          	punpcklwd xmm6,xmm1
    3f05:	66 0f 61 d8          	punpcklwd xmm3,xmm0
    3f09:	66 44 0f 69 f8       	punpckhwd xmm15,xmm0
    3f0e:	66 41 0f 61 f4       	punpcklwd xmm6,xmm12
    3f13:	66 41 0f 6f c0       	movdqa xmm0,xmm8
    3f18:	66 45 0f 61 c4       	punpcklwd xmm8,xmm12
    3f1d:	66 41 0f 69 c4       	punpckhwd xmm0,xmm12
    3f22:	66 44 0f 6f e6       	movdqa xmm12,xmm6
    3f27:	66 44 0f 61 c0       	punpcklwd xmm8,xmm0
    3f2c:	66 44 0f 69 e0       	punpckhwd xmm12,xmm0
    3f31:	66 0f 6f c5          	movdqa xmm0,xmm5
    3f35:	66 41 0f 69 c6       	punpckhwd xmm0,xmm14
    3f3a:	44 0f 29 64 24 e8    	movaps XMMWORD PTR [rsp-0x18],xmm12
    3f40:	66 0f 6f f0          	movdqa xmm6,xmm0
    3f44:	66 0f 6f c5          	movdqa xmm0,xmm5
    3f48:	66 41 0f 61 ee       	punpcklwd xmm5,xmm14
    3f4d:	66 41 0f 61 c6       	punpcklwd xmm0,xmm14
    3f52:	66 0f 61 ee          	punpcklwd xmm5,xmm6
    3f56:	66 44 0f 6f 74 24 b8 	movdqa xmm14,XMMWORD PTR [rsp-0x48]
    3f5d:	66 0f 6f c8          	movdqa xmm1,xmm0
    3f61:	66 0f 69 c6          	punpckhwd xmm0,xmm6
    3f65:	66 0f 61 ce          	punpcklwd xmm1,xmm6
    3f69:	66 0f 69 e8          	punpckhwd xmm5,xmm0
    3f6d:	66 0f 61 c8          	punpcklwd xmm1,xmm0
    3f71:	66 41 0f 6f c2       	movdqa xmm0,xmm10
    3f76:	66 41 0f 69 c6       	punpckhwd xmm0,xmm14
    3f7b:	66 44 0f 6f e0       	movdqa xmm12,xmm0
    3f80:	66 41 0f 6f c2       	movdqa xmm0,xmm10
    3f85:	66 41 0f 61 c6       	punpcklwd xmm0,xmm14
    3f8a:	66 0f 6f f0          	movdqa xmm6,xmm0
    3f8e:	66 41 0f 69 c4       	punpckhwd xmm0,xmm12
    3f93:	66 41 0f 61 f4       	punpcklwd xmm6,xmm12
    3f98:	66 44 0f 6f f0       	movdqa xmm14,xmm0
    3f9d:	66 0f 61 f0          	punpcklwd xmm6,xmm0
    3fa1:	66 41 0f 6f c2       	movdqa xmm0,xmm10
    3fa6:	66 0f 61 44 24 b8    	punpcklwd xmm0,XMMWORD PTR [rsp-0x48]
    3fac:	66 44 0f 6f d3       	movdqa xmm10,xmm3
    3fb1:	66 45 0f 61 d0       	punpcklwd xmm10,xmm8
    3fb6:	66 41 0f 61 c4       	punpcklwd xmm0,xmm12
    3fbb:	66 44 0f 6f e3       	movdqa xmm12,xmm3
    3fc0:	66 45 0f 69 e0       	punpckhwd xmm12,xmm8
    3fc5:	66 41 0f 69 c6       	punpckhwd xmm0,xmm14
    3fca:	66 41 0f 61 d8       	punpcklwd xmm3,xmm8
    3fcf:	66 45 0f 6f f2       	movdqa xmm14,xmm10
    3fd4:	66 41 0f 61 dc       	punpcklwd xmm3,xmm12
    3fd9:	66 45 0f 61 d4       	punpcklwd xmm10,xmm12
    3fde:	0f 29 44 24 b8       	movaps XMMWORD PTR [rsp-0x48],xmm0
    3fe3:	66 45 0f 69 f4       	punpckhwd xmm14,xmm12
    3fe8:	66 44 0f 6f e1       	movdqa xmm12,xmm1
    3fed:	66 44 0f 6f c1       	movdqa xmm8,xmm1
    3ff2:	66 0f 6f 44 24 e8    	movdqa xmm0,XMMWORD PTR [rsp-0x18]
    3ff8:	66 44 0f 61 e6       	punpcklwd xmm12,xmm6
    3ffd:	66 41 0f 69 de       	punpckhwd xmm3,xmm14
    4002:	66 44 0f 69 c6       	punpckhwd xmm8,xmm6
    4007:	66 45 0f 61 d6       	punpcklwd xmm10,xmm14
    400c:	66 0f 61 ce          	punpcklwd xmm1,xmm6
    4010:	66 45 0f 6f f4       	movdqa xmm14,xmm12
    4015:	66 45 0f 69 f0       	punpckhwd xmm14,xmm8
    401a:	66 45 0f 61 e0       	punpcklwd xmm12,xmm8
    401f:	66 41 0f 61 c8       	punpcklwd xmm1,xmm8
    4024:	66 45 0f 6f c7       	movdqa xmm8,xmm15
    4029:	66 41 0f 69 ce       	punpckhwd xmm1,xmm14
    402e:	66 45 0f 61 e6       	punpcklwd xmm12,xmm14
    4033:	66 44 0f 69 c0       	punpckhwd xmm8,xmm0
    4038:	66 41 0f 6f f0       	movdqa xmm6,xmm8
    403d:	66 45 0f 6f c7       	movdqa xmm8,xmm15
    4042:	66 44 0f 61 f8       	punpcklwd xmm15,xmm0
    4047:	66 44 0f 61 c0       	punpcklwd xmm8,xmm0
    404c:	66 44 0f 61 fe       	punpcklwd xmm15,xmm6
    4051:	66 0f 6f 44 24 b8    	movdqa xmm0,XMMWORD PTR [rsp-0x48]
    4057:	66 45 0f 6f f0       	movdqa xmm14,xmm8
    405c:	66 44 0f 61 c6       	punpcklwd xmm8,xmm6
    4061:	66 44 0f 69 f6       	punpckhwd xmm14,xmm6
    4066:	66 0f 6f f5          	movdqa xmm6,xmm5
    406a:	66 45 0f 61 c6       	punpcklwd xmm8,xmm14
    406f:	66 45 0f 69 fe       	punpckhwd xmm15,xmm14
    4074:	66 44 0f 6f f5       	movdqa xmm14,xmm5
    4079:	66 44 0f 69 f0       	punpckhwd xmm14,xmm0
    407e:	66 0f 61 f0          	punpcklwd xmm6,xmm0
    4082:	66 0f 61 e8          	punpcklwd xmm5,xmm0
    4086:	44 0f 29 7c 24 e8    	movaps XMMWORD PTR [rsp-0x18],xmm15
    408c:	66 0f ef c0          	pxor   xmm0,xmm0
    4090:	66 44 0f 6f fe       	movdqa xmm15,xmm6
    4095:	66 41 0f 61 ee       	punpcklwd xmm5,xmm14
    409a:	66 41 0f 65 c5       	pcmpgtw xmm0,xmm13
    409f:	66 45 0f 69 fe       	punpckhwd xmm15,xmm14
    40a4:	66 41 0f 61 f6       	punpcklwd xmm6,xmm14
    40a9:	66 44 0f 6f f5       	movdqa xmm14,xmm5
    40ae:	66 41 0f 61 f7       	punpcklwd xmm6,xmm15
    40b3:	66 45 0f 69 f7       	punpckhwd xmm14,xmm15
    40b8:	66 44 0f 6f f8       	movdqa xmm15,xmm0
    40bd:	66 41 0f 6f c5       	movdqa xmm0,xmm13
    40c2:	44 0f 29 74 24 b8    	movaps XMMWORD PTR [rsp-0x48],xmm14
    40c8:	66 41 0f 61 c7       	punpcklwd xmm0,xmm15
    40cd:	66 45 0f 69 ef       	punpckhwd xmm13,xmm15
    40d2:	66 44 0f 6f f0       	movdqa xmm14,xmm0
    40d7:	66 41 0f 72 f5 01    	pslld  xmm13,0x1
    40dd:	66 44 0f fe 2d fa 6f 	paddd  xmm13,XMMWORD PTR [rip+0x6ffa]        # b0e0 <_IO_stdin_used+0xe0>
    40e4:	00 00 
    40e6:	66 41 0f 72 f6 01    	pslld  xmm14,0x1
    40ec:	66 44 0f fe 35 eb 6f 	paddd  xmm14,XMMWORD PTR [rip+0x6feb]        # b0e0 <_IO_stdin_used+0xe0>
    40f3:	00 00 
    40f5:	66 41 0f 6f c6       	movdqa xmm0,xmm14
    40fa:	66 0f 72 f0 06       	pslld  xmm0,0x6
    40ff:	66 0f 6f e8          	movdqa xmm5,xmm0
    4103:	66 41 0f fa ee       	psubd  xmm5,xmm14
    4108:	66 0f 72 f5 08       	pslld  xmm5,0x8
    410d:	66 41 0f fa ee       	psubd  xmm5,xmm14
    4112:	66 0f 6f c5          	movdqa xmm0,xmm5
    4116:	66 0f 72 f0 02       	pslld  xmm0,0x2
    411b:	66 0f fe e8          	paddd  xmm5,xmm0
    411f:	66 41 0f 6f c5       	movdqa xmm0,xmm13
    4124:	66 0f 72 f0 06       	pslld  xmm0,0x6
    4129:	66 0f 72 d5 1c       	psrld  xmm5,0x1c
    412e:	66 44 0f 6f f0       	movdqa xmm14,xmm0
    4133:	66 0f 6f c5          	movdqa xmm0,xmm5
    4137:	66 45 0f fa f5       	psubd  xmm14,xmm13
    413c:	66 41 0f 72 f6 08    	pslld  xmm14,0x8
    4142:	66 45 0f fa f5       	psubd  xmm14,xmm13
    4147:	66 45 0f 6f ee       	movdqa xmm13,xmm14
    414c:	66 41 0f 72 f5 02    	pslld  xmm13,0x2
    4152:	66 45 0f fe ee       	paddd  xmm13,xmm14
    4157:	66 41 0f 72 d5 1c    	psrld  xmm13,0x1c
    415d:	66 41 0f 69 c5       	punpckhwd xmm0,xmm13
    4162:	66 44 0f 6f f0       	movdqa xmm14,xmm0
    4167:	66 0f 6f c5          	movdqa xmm0,xmm5
    416b:	66 41 0f 61 c5       	punpcklwd xmm0,xmm13
    4170:	66 45 0f 6f ec       	movdqa xmm13,xmm12
    4175:	66 44 0f 6f f8       	movdqa xmm15,xmm0
    417a:	66 41 0f 69 c6       	punpckhwd xmm0,xmm14
    417f:	66 45 0f 61 fe       	punpcklwd xmm15,xmm14
    4184:	66 44 0f 61 f8       	punpcklwd xmm15,xmm0
    4189:	66 0f ef c0          	pxor   xmm0,xmm0
    418d:	66 41 0f 65 c4       	pcmpgtw xmm0,xmm12
    4192:	66 44 0f 61 e8       	punpcklwd xmm13,xmm0
    4197:	66 44 0f 6f f0       	movdqa xmm14,xmm0
    419c:	66 41 0f 72 f5 01    	pslld  xmm13,0x1
    41a2:	66 45 0f 69 e6       	punpckhwd xmm12,xmm14
    41a7:	66 44 0f fe 2d 30 6f 	paddd  xmm13,XMMWORD PTR [rip+0x6f30]        # b0e0 <_IO_stdin_used+0xe0>
    41ae:	00 00 
    41b0:	66 41 0f 72 f4 01    	pslld  xmm12,0x1
    41b6:	66 44 0f fe 25 21 6f 	paddd  xmm12,XMMWORD PTR [rip+0x6f21]        # b0e0 <_IO_stdin_used+0xe0>
    41bd:	00 00 
    41bf:	66 41 0f 6f c5       	movdqa xmm0,xmm13
    41c4:	66 0f 72 f0 06       	pslld  xmm0,0x6
    41c9:	66 0f 6f e8          	movdqa xmm5,xmm0
    41cd:	66 41 0f fa ed       	psubd  xmm5,xmm13
    41d2:	66 0f 72 f5 08       	pslld  xmm5,0x8
    41d7:	66 41 0f fa ed       	psubd  xmm5,xmm13
    41dc:	66 44 0f 6f ed       	movdqa xmm13,xmm5
    41e1:	66 41 0f 72 f5 02    	pslld  xmm13,0x2
    41e7:	66 41 0f fe ed       	paddd  xmm5,xmm13
    41ec:	66 45 0f 6f ec       	movdqa xmm13,xmm12
    41f1:	66 41 0f 72 f5 06    	pslld  xmm13,0x6
    41f7:	66 0f 72 d5 1c       	psrld  xmm5,0x1c
    41fc:	66 45 0f fa ec       	psubd  xmm13,xmm12
    4201:	66 41 0f 72 f5 08    	pslld  xmm13,0x8
    4207:	66 45 0f fa ec       	psubd  xmm13,xmm12
    420c:	66 45 0f 6f e5       	movdqa xmm12,xmm13
    4211:	66 41 0f 72 f4 02    	pslld  xmm12,0x2
    4217:	66 45 0f fe ec       	paddd  xmm13,xmm12
    421c:	66 44 0f 6f e5       	movdqa xmm12,xmm5
    4221:	66 41 0f 72 d5 1c    	psrld  xmm13,0x1c
    4227:	66 41 0f 61 ed       	punpcklwd xmm5,xmm13
    422c:	66 45 0f 69 e5       	punpckhwd xmm12,xmm13
    4231:	66 44 0f 6f ed       	movdqa xmm13,xmm5
    4236:	66 41 0f 61 ec       	punpcklwd xmm5,xmm12
    423b:	66 45 0f 69 ec       	punpckhwd xmm13,xmm12
    4240:	66 44 0f 6f 25 f7 6d 	movdqa xmm12,XMMWORD PTR [rip+0x6df7]        # b040 <_IO_stdin_used+0x40>
    4247:	00 00 
    4249:	66 41 0f 61 ed       	punpcklwd xmm5,xmm13
    424e:	66 0f db 2d ea 6d 00 	pand   xmm5,XMMWORD PTR [rip+0x6dea]        # b040 <_IO_stdin_used+0x40>
    4255:	00 
    4256:	66 45 0f ef ed       	pxor   xmm13,xmm13
    425b:	66 45 0f db e7       	pand   xmm12,xmm15
    4260:	66 45 0f 65 eb       	pcmpgtw xmm13,xmm11
    4265:	66 44 0f 67 e5       	packuswb xmm12,xmm5
    426a:	66 45 0f fc e4       	paddb  xmm12,xmm12
    426f:	66 44 0f db 25 78 6e 	pand   xmm12,XMMWORD PTR [rip+0x6e78]        # b0f0 <_IO_stdin_used+0xf0>
    4276:	00 00 
    4278:	66 45 0f 6f f4       	movdqa xmm14,xmm12
    427d:	66 45 0f 6f e3       	movdqa xmm12,xmm11
    4282:	66 45 0f 69 dd       	punpckhwd xmm11,xmm13
    4287:	66 45 0f 61 e5       	punpcklwd xmm12,xmm13
    428c:	66 41 0f 72 f3 01    	pslld  xmm11,0x1
    4292:	66 44 0f fe 1d 45 6e 	paddd  xmm11,XMMWORD PTR [rip+0x6e45]        # b0e0 <_IO_stdin_used+0xe0>
    4299:	00 00 
    429b:	66 41 0f 72 f4 01    	pslld  xmm12,0x1
    42a1:	66 44 0f fe 25 36 6e 	paddd  xmm12,XMMWORD PTR [rip+0x6e36]        # b0e0 <_IO_stdin_used+0xe0>
    42a8:	00 00 
    42aa:	66 41 0f 6f c4       	movdqa xmm0,xmm12
    42af:	66 0f 72 f0 06       	pslld  xmm0,0x6
    42b4:	66 0f 6f e8          	movdqa xmm5,xmm0
    42b8:	66 41 0f fa ec       	psubd  xmm5,xmm12
    42bd:	66 0f 72 f5 08       	pslld  xmm5,0x8
    42c2:	66 41 0f fa ec       	psubd  xmm5,xmm12
    42c7:	66 44 0f 6f e5       	movdqa xmm12,xmm5
    42cc:	66 41 0f 72 f4 02    	pslld  xmm12,0x2
    42d2:	66 41 0f fe ec       	paddd  xmm5,xmm12
    42d7:	66 45 0f 6f e3       	movdqa xmm12,xmm11
    42dc:	66 41 0f 72 f3 06    	pslld  xmm11,0x6
    42e2:	66 0f 72 d5 1c       	psrld  xmm5,0x1c
    42e7:	66 45 0f fa dc       	psubd  xmm11,xmm12
    42ec:	66 44 0f 6f ed       	movdqa xmm13,xmm5
    42f1:	66 41 0f 72 f3 08    	pslld  xmm11,0x8
    42f7:	66 45 0f fa dc       	psubd  xmm11,xmm12
    42fc:	66 45 0f 6f e3       	movdqa xmm12,xmm11
    4301:	66 41 0f 72 f4 02    	pslld  xmm12,0x2
    4307:	66 45 0f fe dc       	paddd  xmm11,xmm12
    430c:	66 44 0f 6f e5       	movdqa xmm12,xmm5
    4311:	66 41 0f 72 d3 1c    	psrld  xmm11,0x1c
    4317:	66 45 0f 61 eb       	punpcklwd xmm13,xmm11
    431c:	66 45 0f 69 e3       	punpckhwd xmm12,xmm11
    4321:	66 45 0f 6f da       	movdqa xmm11,xmm10
    4326:	66 41 0f 6f c5       	movdqa xmm0,xmm13
    432b:	66 45 0f 61 ec       	punpcklwd xmm13,xmm12
    4330:	66 41 0f 69 c4       	punpckhwd xmm0,xmm12
    4335:	66 45 0f ef e4       	pxor   xmm12,xmm12
    433a:	66 45 0f 65 e2       	pcmpgtw xmm12,xmm10
    433f:	66 44 0f 61 e8       	punpcklwd xmm13,xmm0
    4344:	66 44 0f db 2d f3 6c 	pand   xmm13,XMMWORD PTR [rip+0x6cf3]        # b040 <_IO_stdin_used+0x40>
    434b:	00 00 
    434d:	66 45 0f 61 dc       	punpcklwd xmm11,xmm12
    4352:	66 45 0f 69 d4       	punpckhwd xmm10,xmm12
    4357:	66 45 0f 6f e1       	movdqa xmm12,xmm9
    435c:	66 41 0f 72 f3 01    	pslld  xmm11,0x1
    4362:	66 41 0f 72 f2 01    	pslld  xmm10,0x1
    4368:	66 44 0f fe 1d 6f 6d 	paddd  xmm11,XMMWORD PTR [rip+0x6d6f]        # b0e0 <_IO_stdin_used+0xe0>
    436f:	00 00 
    4371:	66 44 0f fe 15 66 6d 	paddd  xmm10,XMMWORD PTR [rip+0x6d66]        # b0e0 <_IO_stdin_used+0xe0>
    4378:	00 00 
    437a:	66 41 0f 6f c3       	movdqa xmm0,xmm11
    437f:	66 0f 72 f0 06       	pslld  xmm0,0x6
    4384:	66 0f 6f e8          	movdqa xmm5,xmm0
    4388:	66 41 0f fa eb       	psubd  xmm5,xmm11
    438d:	66 0f 72 f5 08       	pslld  xmm5,0x8
    4392:	66 41 0f fa eb       	psubd  xmm5,xmm11
    4397:	66 44 0f 6f dd       	movdqa xmm11,xmm5
    439c:	66 41 0f 72 f3 02    	pslld  xmm11,0x2
    43a2:	66 41 0f fe eb       	paddd  xmm5,xmm11
    43a7:	66 45 0f 6f da       	movdqa xmm11,xmm10
    43ac:	66 41 0f 72 f3 06    	pslld  xmm11,0x6
    43b2:	66 0f 72 d5 1c       	psrld  xmm5,0x1c
    43b7:	66 45 0f fa da       	psubd  xmm11,xmm10
    43bc:	66 41 0f 72 f3 08    	pslld  xmm11,0x8
    43c2:	66 45 0f fa da       	psubd  xmm11,xmm10
    43c7:	66 45 0f 6f d3       	movdqa xmm10,xmm11
    43cc:	66 41 0f 72 f2 02    	pslld  xmm10,0x2
    43d2:	66 45 0f fe d3       	paddd  xmm10,xmm11
    43d7:	66 44 0f 6f dd       	movdqa xmm11,xmm5
    43dc:	66 41 0f 72 d2 1c    	psrld  xmm10,0x1c
    43e2:	66 41 0f 61 ea       	punpcklwd xmm5,xmm10
    43e7:	66 45 0f 69 da       	punpckhwd xmm11,xmm10
    43ec:	66 44 0f 6f d5       	movdqa xmm10,xmm5
    43f1:	66 41 0f 61 eb       	punpcklwd xmm5,xmm11
    43f6:	66 45 0f 69 d3       	punpckhwd xmm10,xmm11
    43fb:	66 45 0f ef db       	pxor   xmm11,xmm11
    4400:	66 45 0f 65 d9       	pcmpgtw xmm11,xmm9
    4405:	66 41 0f 61 ea       	punpcklwd xmm5,xmm10
    440a:	66 45 0f 6f d5       	movdqa xmm10,xmm13
    440f:	66 0f db 2d 29 6c 00 	pand   xmm5,XMMWORD PTR [rip+0x6c29]        # b040 <_IO_stdin_used+0x40>
    4416:	00 
    4417:	66 45 0f 61 e3       	punpcklwd xmm12,xmm11
    441c:	66 45 0f 69 cb       	punpckhwd xmm9,xmm11
    4421:	66 44 0f 67 d5       	packuswb xmm10,xmm5
    4426:	66 41 0f 72 f4 01    	pslld  xmm12,0x1
    442c:	66 41 0f 72 f1 01    	pslld  xmm9,0x1
    4432:	66 44 0f fe 25 a5 6c 	paddd  xmm12,XMMWORD PTR [rip+0x6ca5]        # b0e0 <_IO_stdin_used+0xe0>
    4439:	00 00 
    443b:	66 44 0f fe 0d 9c 6c 	paddd  xmm9,XMMWORD PTR [rip+0x6c9c]        # b0e0 <_IO_stdin_used+0xe0>
    4442:	00 00 
    4444:	66 44 0f db 15 23 6c 	pand   xmm10,XMMWORD PTR [rip+0x6c23]        # b070 <_IO_stdin_used+0x70>
    444b:	00 00 
    444d:	66 41 0f 6f c4       	movdqa xmm0,xmm12
    4452:	66 0f 72 f0 06       	pslld  xmm0,0x6
    4457:	66 45 0f 6f d9       	movdqa xmm11,xmm9
    445c:	66 45 0f eb d6       	por    xmm10,xmm14
    4461:	66 0f 6f e8          	movdqa xmm5,xmm0
    4465:	66 41 0f 72 f3 06    	pslld  xmm11,0x6
    446b:	66 41 0f fa ec       	psubd  xmm5,xmm12
    4470:	66 45 0f fa d9       	psubd  xmm11,xmm9
    4475:	66 0f 72 f5 08       	pslld  xmm5,0x8
    447a:	66 41 0f 72 f3 08    	pslld  xmm11,0x8
    4480:	66 45 0f fa d9       	psubd  xmm11,xmm9
    4485:	66 41 0f fa ec       	psubd  xmm5,xmm12
    448a:	66 44 0f 6f e5       	movdqa xmm12,xmm5
    448f:	66 45 0f 6f cb       	movdqa xmm9,xmm11
    4494:	66 41 0f 72 f4 02    	pslld  xmm12,0x2
    449a:	66 41 0f 72 f1 02    	pslld  xmm9,0x2
    44a0:	66 41 0f fe ec       	paddd  xmm5,xmm12
    44a5:	66 45 0f fe cb       	paddd  xmm9,xmm11
    44aa:	66 45 0f 6f e0       	movdqa xmm12,xmm8
    44af:	66 41 0f 72 d1 1c    	psrld  xmm9,0x1c
    44b5:	66 0f 72 d5 1c       	psrld  xmm5,0x1c
    44ba:	66 44 0f 6f dd       	movdqa xmm11,xmm5
    44bf:	66 41 0f 61 e9       	punpcklwd xmm5,xmm9
    44c4:	66 45 0f 69 d9       	punpckhwd xmm11,xmm9
    44c9:	66 44 0f 6f cd       	movdqa xmm9,xmm5
    44ce:	66 45 0f 69 cb       	punpckhwd xmm9,xmm11
    44d3:	66 41 0f 61 eb       	punpcklwd xmm5,xmm11
    44d8:	66 45 0f ef db       	pxor   xmm11,xmm11
    44dd:	66 45 0f 65 d8       	pcmpgtw xmm11,xmm8
    44e2:	66 41 0f 61 e9       	punpcklwd xmm5,xmm9
    44e7:	66 0f db 2d 51 6b 00 	pand   xmm5,XMMWORD PTR [rip+0x6b51]        # b040 <_IO_stdin_used+0x40>
    44ee:	00 
    44ef:	66 45 0f 61 e3       	punpcklwd xmm12,xmm11
    44f4:	66 45 0f 69 c3       	punpckhwd xmm8,xmm11
    44f9:	66 41 0f 72 f4 01    	pslld  xmm12,0x1
    44ff:	66 41 0f 72 f0 01    	pslld  xmm8,0x1
    4505:	66 44 0f fe 25 d2 6b 	paddd  xmm12,XMMWORD PTR [rip+0x6bd2]        # b0e0 <_IO_stdin_used+0xe0>
    450c:	00 00 
    450e:	66 44 0f fe 05 c9 6b 	paddd  xmm8,XMMWORD PTR [rip+0x6bc9]        # b0e0 <_IO_stdin_used+0xe0>
    4515:	00 00 
    4517:	66 45 0f 6f cc       	movdqa xmm9,xmm12
    451c:	66 45 0f 6f d8       	movdqa xmm11,xmm8
    4521:	66 41 0f 72 f1 06    	pslld  xmm9,0x6
    4527:	66 41 0f 72 f3 06    	pslld  xmm11,0x6
    452d:	66 45 0f fa cc       	psubd  xmm9,xmm12
    4532:	66 45 0f fa d8       	psubd  xmm11,xmm8
    4537:	66 41 0f 72 f1 08    	pslld  xmm9,0x8
    453d:	66 41 0f 72 f3 08    	pslld  xmm11,0x8
    4543:	66 45 0f fa cc       	psubd  xmm9,xmm12
    4548:	66 45 0f fa d8       	psubd  xmm11,xmm8
    454d:	66 45 0f 6f e1       	movdqa xmm12,xmm9
    4552:	66 45 0f 6f c3       	movdqa xmm8,xmm11
    4557:	66 41 0f 72 f4 02    	pslld  xmm12,0x2
    455d:	66 41 0f 72 f0 02    	pslld  xmm8,0x2
    4563:	66 45 0f fe cc       	paddd  xmm9,xmm12
    4568:	66 45 0f fe c3       	paddd  xmm8,xmm11
    456d:	66 41 0f 72 d1 1c    	psrld  xmm9,0x1c
    4573:	66 41 0f 72 d0 1c    	psrld  xmm8,0x1c
    4579:	66 45 0f 6f d9       	movdqa xmm11,xmm9
    457e:	66 45 0f 61 c8       	punpcklwd xmm9,xmm8
    4583:	66 45 0f 69 d8       	punpckhwd xmm11,xmm8
    4588:	66 45 0f 6f c1       	movdqa xmm8,xmm9
    458d:	66 45 0f 61 cb       	punpcklwd xmm9,xmm11
    4592:	66 45 0f 69 c3       	punpckhwd xmm8,xmm11
    4597:	66 45 0f 61 c8       	punpcklwd xmm9,xmm8
    459c:	66 45 0f 6f c2       	movdqa xmm8,xmm10
    45a1:	66 44 0f 6f d7       	movdqa xmm10,xmm7
    45a6:	66 44 0f db 0d 91 6a 	pand   xmm9,XMMWORD PTR [rip+0x6a91]        # b040 <_IO_stdin_used+0x40>
    45ad:	00 00 
    45af:	66 41 0f 67 e9       	packuswb xmm5,xmm9
    45b4:	66 45 0f ef c9       	pxor   xmm9,xmm9
    45b9:	66 44 0f 65 cf       	pcmpgtw xmm9,xmm7
    45be:	66 0f fc ed          	paddb  xmm5,xmm5
    45c2:	66 0f fc ed          	paddb  xmm5,xmm5
    45c6:	66 0f db 2d 32 6b 00 	pand   xmm5,XMMWORD PTR [rip+0x6b32]        # b100 <_IO_stdin_used+0x100>
    45cd:	00 
    45ce:	66 45 0f 61 d1       	punpcklwd xmm10,xmm9
    45d3:	66 41 0f 69 f9       	punpckhwd xmm7,xmm9
    45d8:	66 44 0f eb c5       	por    xmm8,xmm5
    45dd:	66 41 0f 72 f2 01    	pslld  xmm10,0x1
    45e3:	66 0f 72 f7 01       	pslld  xmm7,0x1
    45e8:	66 44 0f fe 15 ef 6a 	paddd  xmm10,XMMWORD PTR [rip+0x6aef]        # b0e0 <_IO_stdin_used+0xe0>
    45ef:	00 00 
    45f1:	66 0f fe 3d e7 6a 00 	paddd  xmm7,XMMWORD PTR [rip+0x6ae7]        # b0e0 <_IO_stdin_used+0xe0>
    45f8:	00 
    45f9:	66 41 0f 6f c2       	movdqa xmm0,xmm10
    45fe:	66 44 0f 6f cf       	movdqa xmm9,xmm7
    4603:	66 0f 72 f0 06       	pslld  xmm0,0x6
    4608:	66 41 0f 72 f1 06    	pslld  xmm9,0x6
    460e:	66 0f 6f e8          	movdqa xmm5,xmm0
    4612:	66 44 0f fa cf       	psubd  xmm9,xmm7
    4617:	66 41 0f fa ea       	psubd  xmm5,xmm10
    461c:	66 41 0f 72 f1 08    	pslld  xmm9,0x8
    4622:	66 0f 72 f5 08       	pslld  xmm5,0x8
    4627:	66 44 0f fa cf       	psubd  xmm9,xmm7
    462c:	66 41 0f fa ea       	psubd  xmm5,xmm10
    4631:	66 41 0f 6f c1       	movdqa xmm0,xmm9
    4636:	66 44 0f 6f d5       	movdqa xmm10,xmm5
    463b:	66 0f 72 f0 02       	pslld  xmm0,0x2
    4640:	66 41 0f 72 f2 02    	pslld  xmm10,0x2
    4646:	66 0f 6f f8          	movdqa xmm7,xmm0
    464a:	66 41 0f fe ea       	paddd  xmm5,xmm10
    464f:	66 44 0f 6f d6       	movdqa xmm10,xmm6
    4654:	66 41 0f fe f9       	paddd  xmm7,xmm9
    4659:	66 0f 72 d5 1c       	psrld  xmm5,0x1c
    465e:	66 0f 72 d7 1c       	psrld  xmm7,0x1c
    4663:	66 44 0f 6f cd       	movdqa xmm9,xmm5
    4668:	66 0f 61 ef          	punpcklwd xmm5,xmm7
    466c:	66 44 0f 69 cf       	punpckhwd xmm9,xmm7
    4671:	66 0f 6f c5          	movdqa xmm0,xmm5
    4675:	66 41 0f 61 e9       	punpcklwd xmm5,xmm9
    467a:	66 41 0f 69 c1       	punpckhwd xmm0,xmm9
    467f:	66 45 0f ef c9       	pxor   xmm9,xmm9
    4684:	66 44 0f 65 ce       	pcmpgtw xmm9,xmm6
    4689:	66 0f 61 e8          	punpcklwd xmm5,xmm0
    468d:	66 0f db 2d ab 69 00 	pand   xmm5,XMMWORD PTR [rip+0x69ab]        # b040 <_IO_stdin_used+0x40>
    4694:	00 
    4695:	66 45 0f 61 d1       	punpcklwd xmm10,xmm9
    469a:	66 41 0f 69 f1       	punpckhwd xmm6,xmm9
    469f:	66 41 0f 72 f2 01    	pslld  xmm10,0x1
    46a5:	66 0f 72 f6 01       	pslld  xmm6,0x1
    46aa:	66 44 0f fe 15 2d 6a 	paddd  xmm10,XMMWORD PTR [rip+0x6a2d]        # b0e0 <_IO_stdin_used+0xe0>
    46b1:	00 00 
    46b3:	66 0f fe 35 25 6a 00 	paddd  xmm6,XMMWORD PTR [rip+0x6a25]        # b0e0 <_IO_stdin_used+0xe0>
    46ba:	00 
    46bb:	66 41 0f 6f c2       	movdqa xmm0,xmm10
    46c0:	66 44 0f 6f ce       	movdqa xmm9,xmm6
    46c5:	66 0f 72 f0 06       	pslld  xmm0,0x6
    46ca:	66 41 0f 72 f1 06    	pslld  xmm9,0x6
    46d0:	66 0f 6f f8          	movdqa xmm7,xmm0
    46d4:	66 44 0f fa ce       	psubd  xmm9,xmm6
    46d9:	66 41 0f fa fa       	psubd  xmm7,xmm10
    46de:	66 41 0f 72 f1 08    	pslld  xmm9,0x8
    46e4:	66 0f 72 f7 08       	pslld  xmm7,0x8
    46e9:	66 44 0f fa ce       	psubd  xmm9,xmm6
    46ee:	66 41 0f fa fa       	psubd  xmm7,xmm10
    46f3:	66 41 0f 6f c1       	movdqa xmm0,xmm9
    46f8:	66 44 0f 6f d7       	movdqa xmm10,xmm7
    46fd:	66 0f 72 f0 02       	pslld  xmm0,0x2
    4702:	66 41 0f 72 f2 02    	pslld  xmm10,0x2
    4708:	66 0f 6f f0          	movdqa xmm6,xmm0
    470c:	66 41 0f fe fa       	paddd  xmm7,xmm10
    4711:	66 41 0f fe f1       	paddd  xmm6,xmm9
    4716:	66 0f 72 d7 1c       	psrld  xmm7,0x1c
    471b:	66 0f 72 d6 1c       	psrld  xmm6,0x1c
    4720:	66 44 0f 6f cf       	movdqa xmm9,xmm7
    4725:	66 0f 61 fe          	punpcklwd xmm7,xmm6
    4729:	66 44 0f 69 ce       	punpckhwd xmm9,xmm6
    472e:	66 0f 6f c7          	movdqa xmm0,xmm7
    4732:	66 41 0f 61 f9       	punpcklwd xmm7,xmm9
    4737:	66 41 0f 69 c1       	punpckhwd xmm0,xmm9
    473c:	66 0f 61 f8          	punpcklwd xmm7,xmm0
    4740:	66 0f db 3d f8 68 00 	pand   xmm7,XMMWORD PTR [rip+0x68f8]        # b040 <_IO_stdin_used+0x40>
    4747:	00 
    4748:	66 0f ef c0          	pxor   xmm0,xmm0
    474c:	66 0f 65 c4          	pcmpgtw xmm0,xmm4
    4750:	66 0f 67 ef          	packuswb xmm5,xmm7
    4754:	66 0f fc ed          	paddb  xmm5,xmm5
    4758:	66 0f fc ed          	paddb  xmm5,xmm5
    475c:	66 0f 6f f8          	movdqa xmm7,xmm0
    4760:	66 0f fc ed          	paddb  xmm5,xmm5
    4764:	66 0f db 2d a4 69 00 	pand   xmm5,XMMWORD PTR [rip+0x69a4]        # b110 <_IO_stdin_used+0x110>
    476b:	00 
    476c:	66 41 0f eb e8       	por    xmm5,xmm8
    4771:	66 44 0f 6f c4       	movdqa xmm8,xmm4
    4776:	66 0f 69 e7          	punpckhwd xmm4,xmm7
    477a:	66 44 0f 61 c0       	punpcklwd xmm8,xmm0
    477f:	66 0f 72 f4 01       	pslld  xmm4,0x1
    4784:	66 41 0f 72 f0 01    	pslld  xmm8,0x1
    478a:	66 44 0f fe 05 4d 69 	paddd  xmm8,XMMWORD PTR [rip+0x694d]        # b0e0 <_IO_stdin_used+0xe0>
    4791:	00 00 
    4793:	66 0f fe 25 45 69 00 	paddd  xmm4,XMMWORD PTR [rip+0x6945]        # b0e0 <_IO_stdin_used+0xe0>
    479a:	00 
    479b:	66 41 0f 6f c0       	movdqa xmm0,xmm8
    47a0:	66 0f 72 f0 06       	pslld  xmm0,0x6
    47a5:	66 0f 6f f0          	movdqa xmm6,xmm0
    47a9:	66 0f 6f c4          	movdqa xmm0,xmm4
    47ad:	66 0f 72 f0 06       	pslld  xmm0,0x6
    47b2:	66 41 0f fa f0       	psubd  xmm6,xmm8
    47b7:	66 0f 6f f8          	movdqa xmm7,xmm0
    47bb:	66 0f 72 f6 08       	pslld  xmm6,0x8
    47c0:	66 0f fa fc          	psubd  xmm7,xmm4
    47c4:	66 41 0f fa f0       	psubd  xmm6,xmm8
    47c9:	66 0f 72 f7 08       	pslld  xmm7,0x8
    47ce:	66 44 0f 6f c6       	movdqa xmm8,xmm6
    47d3:	66 0f fa fc          	psubd  xmm7,xmm4
    47d7:	66 41 0f 72 f0 02    	pslld  xmm8,0x2
    47dd:	66 0f 6f e7          	movdqa xmm4,xmm7
    47e1:	66 41 0f fe f0       	paddd  xmm6,xmm8
    47e6:	66 45 0f ef c0       	pxor   xmm8,xmm8
    47eb:	66 0f 72 f4 02       	pslld  xmm4,0x2
    47f0:	66 0f 72 d6 1c       	psrld  xmm6,0x1c
    47f5:	66 0f fe e7          	paddd  xmm4,xmm7
    47f9:	66 44 0f 65 c3       	pcmpgtw xmm8,xmm3
    47fe:	66 0f 6f c6          	movdqa xmm0,xmm6
    4802:	66 0f 72 d4 1c       	psrld  xmm4,0x1c
    4807:	66 0f 61 f4          	punpcklwd xmm6,xmm4
    480b:	66 0f 69 c4          	punpckhwd xmm0,xmm4
    480f:	66 0f 6f e6          	movdqa xmm4,xmm6
    4813:	66 0f 61 f0          	punpcklwd xmm6,xmm0
    4817:	66 0f 69 e0          	punpckhwd xmm4,xmm0
    481b:	66 0f 61 f4          	punpcklwd xmm6,xmm4
    481f:	66 0f 6f e3          	movdqa xmm4,xmm3
    4823:	66 41 0f 61 e0       	punpcklwd xmm4,xmm8
    4828:	66 0f 72 f4 01       	pslld  xmm4,0x1
    482d:	66 0f fe 25 ab 68 00 	paddd  xmm4,XMMWORD PTR [rip+0x68ab]        # b0e0 <_IO_stdin_used+0xe0>
    4834:	00 
    4835:	66 0f 6f c4          	movdqa xmm0,xmm4
    4839:	66 0f 72 f0 06       	pslld  xmm0,0x6
    483e:	66 0f 6f f8          	movdqa xmm7,xmm0
    4842:	66 0f fa fc          	psubd  xmm7,xmm4
    4846:	66 0f 72 f7 08       	pslld  xmm7,0x8
    484b:	66 0f fa fc          	psubd  xmm7,xmm4
    484f:	66 0f 6f e7          	movdqa xmm4,xmm7
    4853:	66 0f 72 f4 02       	pslld  xmm4,0x2
    4858:	66 0f fe fc          	paddd  xmm7,xmm4
    485c:	66 0f 6f e3          	movdqa xmm4,xmm3
    4860:	66 41 0f 69 e0       	punpckhwd xmm4,xmm8
    4865:	66 0f 72 d7 1c       	psrld  xmm7,0x1c
    486a:	66 0f 72 f4 01       	pslld  xmm4,0x1
    486f:	66 0f fe 25 69 68 00 	paddd  xmm4,XMMWORD PTR [rip+0x6869]        # b0e0 <_IO_stdin_used+0xe0>
    4876:	00 
    4877:	66 0f 6f dc          	movdqa xmm3,xmm4
    487b:	66 0f 72 f3 06       	pslld  xmm3,0x6
    4880:	66 0f fa dc          	psubd  xmm3,xmm4
    4884:	66 0f 72 f3 08       	pslld  xmm3,0x8
    4889:	66 0f fa dc          	psubd  xmm3,xmm4
    488d:	66 0f 6f e3          	movdqa xmm4,xmm3
    4891:	66 0f 72 f4 02       	pslld  xmm4,0x2
    4896:	66 0f fe dc          	paddd  xmm3,xmm4
    489a:	66 0f 6f e7          	movdqa xmm4,xmm7
    489e:	66 0f 72 d3 1c       	psrld  xmm3,0x1c
    48a3:	66 0f 61 fb          	punpcklwd xmm7,xmm3
    48a7:	66 0f 69 e3          	punpckhwd xmm4,xmm3
    48ab:	66 0f 6f df          	movdqa xmm3,xmm7
    48af:	66 0f 61 fc          	punpcklwd xmm7,xmm4
    48b3:	66 0f 69 dc          	punpckhwd xmm3,xmm4
    48b7:	66 0f ef e4          	pxor   xmm4,xmm4
    48bb:	66 0f 61 fb          	punpcklwd xmm7,xmm3
    48bf:	66 0f 6f 1d 79 67 00 	movdqa xmm3,XMMWORD PTR [rip+0x6779]        # b040 <_IO_stdin_used+0x40>
    48c6:	00 
    48c7:	66 0f db 3d 71 67 00 	pand   xmm7,XMMWORD PTR [rip+0x6771]        # b040 <_IO_stdin_used+0x40>
    48ce:	00 
    48cf:	66 0f 65 e2          	pcmpgtw xmm4,xmm2
    48d3:	66 0f db de          	pand   xmm3,xmm6
    48d7:	66 0f 67 df          	packuswb xmm3,xmm7
    48db:	66 0f 6f 7c 24 c8    	movdqa xmm7,XMMWORD PTR [rsp-0x38]
    48e1:	66 0f fc db          	paddb  xmm3,xmm3
    48e5:	66 0f 6f f4          	movdqa xmm6,xmm4
    48e9:	66 0f 6f e2          	movdqa xmm4,xmm2
    48ed:	66 0f fc db          	paddb  xmm3,xmm3
    48f1:	66 0f 61 e6          	punpcklwd xmm4,xmm6
    48f5:	66 0f 69 d6          	punpckhwd xmm2,xmm6
    48f9:	66 0f fc db          	paddb  xmm3,xmm3
    48fd:	66 0f 72 f2 01       	pslld  xmm2,0x1
    4902:	66 0f fe 15 d6 67 00 	paddd  xmm2,XMMWORD PTR [rip+0x67d6]        # b0e0 <_IO_stdin_used+0xe0>
    4909:	00 
    490a:	66 0f fc db          	paddb  xmm3,xmm3
    490e:	66 0f db 1d 0a 68 00 	pand   xmm3,XMMWORD PTR [rip+0x680a]        # b120 <_IO_stdin_used+0x120>
    4915:	00 
    4916:	66 0f eb dd          	por    xmm3,xmm5
    491a:	66 0f 6f ec          	movdqa xmm5,xmm4
    491e:	66 0f 72 f5 01       	pslld  xmm5,0x1
    4923:	66 0f fe 2d b5 67 00 	paddd  xmm5,XMMWORD PTR [rip+0x67b5]        # b0e0 <_IO_stdin_used+0xe0>
    492a:	00 
    492b:	66 0f 6f e5          	movdqa xmm4,xmm5
    492f:	66 0f 72 f4 06       	pslld  xmm4,0x6
    4934:	66 0f fa e5          	psubd  xmm4,xmm5
    4938:	66 0f 72 f4 08       	pslld  xmm4,0x8
    493d:	66 0f fa e5          	psubd  xmm4,xmm5
    4941:	66 0f 6f c4          	movdqa xmm0,xmm4
    4945:	66 0f 72 f0 02       	pslld  xmm0,0x2
    494a:	66 0f fe e0          	paddd  xmm4,xmm0
    494e:	66 0f 6f c2          	movdqa xmm0,xmm2
    4952:	66 0f 72 f0 06       	pslld  xmm0,0x6
    4957:	66 0f 72 d4 1c       	psrld  xmm4,0x1c
    495c:	66 0f 6f e8          	movdqa xmm5,xmm0
    4960:	66 0f 6f c4          	movdqa xmm0,xmm4
    4964:	66 0f fa ea          	psubd  xmm5,xmm2
    4968:	66 0f 72 f5 08       	pslld  xmm5,0x8
    496d:	66 0f fa ea          	psubd  xmm5,xmm2
    4971:	66 0f 6f d5          	movdqa xmm2,xmm5
    4975:	66 0f 72 f2 02       	pslld  xmm2,0x2
    497a:	66 0f fe d5          	paddd  xmm2,xmm5
    497e:	66 0f 72 d2 1c       	psrld  xmm2,0x1c
    4983:	66 0f 61 e2          	punpcklwd xmm4,xmm2
    4987:	66 0f 69 c2          	punpckhwd xmm0,xmm2
    498b:	66 0f 6f d4          	movdqa xmm2,xmm4
    498f:	66 0f 61 e0          	punpcklwd xmm4,xmm0
    4993:	66 0f 69 d0          	punpckhwd xmm2,xmm0
    4997:	66 0f 61 e2          	punpcklwd xmm4,xmm2
    499b:	66 0f ef d2          	pxor   xmm2,xmm2
    499f:	66 0f db 25 99 66 00 	pand   xmm4,XMMWORD PTR [rip+0x6699]        # b040 <_IO_stdin_used+0x40>
    49a6:	00 
    49a7:	66 0f 65 d1          	pcmpgtw xmm2,xmm1
    49ab:	66 0f 6f f2          	movdqa xmm6,xmm2
    49af:	66 0f 6f d1          	movdqa xmm2,xmm1
    49b3:	66 0f 61 d6          	punpcklwd xmm2,xmm6
    49b7:	66 0f 72 f2 01       	pslld  xmm2,0x1
    49bc:	66 0f fe 15 1c 67 00 	paddd  xmm2,XMMWORD PTR [rip+0x671c]        # b0e0 <_IO_stdin_used+0xe0>
    49c3:	00 
    49c4:	66 0f 6f c2          	movdqa xmm0,xmm2
    49c8:	66 0f 72 f0 06       	pslld  xmm0,0x6
    49cd:	66 0f 6f e8          	movdqa xmm5,xmm0
    49d1:	66 0f fa ea          	psubd  xmm5,xmm2
    49d5:	66 0f 72 f5 08       	pslld  xmm5,0x8
    49da:	66 0f fa ea          	psubd  xmm5,xmm2
    49de:	66 0f 6f d5          	movdqa xmm2,xmm5
    49e2:	66 0f 72 f2 02       	pslld  xmm2,0x2
    49e7:	66 0f fe ea          	paddd  xmm5,xmm2
    49eb:	66 0f 6f d1          	movdqa xmm2,xmm1
    49ef:	66 0f 69 d6          	punpckhwd xmm2,xmm6
    49f3:	66 0f 72 d5 1c       	psrld  xmm5,0x1c
    49f8:	66 0f 6f 74 24 d8    	movdqa xmm6,XMMWORD PTR [rsp-0x28]
    49fe:	66 0f 72 f2 01       	pslld  xmm2,0x1
    4a03:	66 0f fe 15 d5 66 00 	paddd  xmm2,XMMWORD PTR [rip+0x66d5]        # b0e0 <_IO_stdin_used+0xe0>
    4a0a:	00 
    4a0b:	66 0f 6f ca          	movdqa xmm1,xmm2
    4a0f:	66 0f 72 f1 06       	pslld  xmm1,0x6
    4a14:	66 0f fa ca          	psubd  xmm1,xmm2
    4a18:	66 0f 72 f1 08       	pslld  xmm1,0x8
    4a1d:	66 0f fa ca          	psubd  xmm1,xmm2
    4a21:	66 0f 6f d1          	movdqa xmm2,xmm1
    4a25:	66 0f 72 f2 02       	pslld  xmm2,0x2
    4a2a:	66 0f fe ca          	paddd  xmm1,xmm2
    4a2e:	66 0f 6f d5          	movdqa xmm2,xmm5
    4a32:	66 0f 72 d1 1c       	psrld  xmm1,0x1c
    4a37:	66 0f 61 e9          	punpcklwd xmm5,xmm1
    4a3b:	66 0f 69 d1          	punpckhwd xmm2,xmm1
    4a3f:	66 0f 6f cd          	movdqa xmm1,xmm5
    4a43:	66 0f 61 ea          	punpcklwd xmm5,xmm2
    4a47:	66 0f 69 ca          	punpckhwd xmm1,xmm2
    4a4b:	66 0f 6f d3          	movdqa xmm2,xmm3
    4a4f:	66 0f 6f df          	movdqa xmm3,xmm7
    4a53:	66 0f 61 e9          	punpcklwd xmm5,xmm1
    4a57:	66 0f db 2d e1 65 00 	pand   xmm5,XMMWORD PTR [rip+0x65e1]        # b040 <_IO_stdin_used+0x40>
    4a5e:	00 
    4a5f:	66 0f 6f cc          	movdqa xmm1,xmm4
    4a63:	66 0f ef e4          	pxor   xmm4,xmm4
    4a67:	66 0f 67 cd          	packuswb xmm1,xmm5
    4a6b:	66 0f 65 e7          	pcmpgtw xmm4,xmm7
    4a6f:	66 0f fc c9          	paddb  xmm1,xmm1
    4a73:	66 0f fc c9          	paddb  xmm1,xmm1
    4a77:	66 0f fc c9          	paddb  xmm1,xmm1
    4a7b:	66 0f 61 dc          	punpcklwd xmm3,xmm4
    4a7f:	66 0f 69 fc          	punpckhwd xmm7,xmm4
    4a83:	66 0f fc c9          	paddb  xmm1,xmm1
    4a87:	66 0f 72 f3 01       	pslld  xmm3,0x1
    4a8c:	66 0f fe 1d 4c 66 00 	paddd  xmm3,XMMWORD PTR [rip+0x664c]        # b0e0 <_IO_stdin_used+0xe0>
    4a93:	00 
    4a94:	66 0f fc c9          	paddb  xmm1,xmm1
    4a98:	66 0f db 0d 90 66 00 	pand   xmm1,XMMWORD PTR [rip+0x6690]        # b130 <_IO_stdin_used+0x130>
    4a9f:	00 
    4aa0:	66 0f 6f c7          	movdqa xmm0,xmm7
    4aa4:	66 0f 6f 7c 24 e8    	movdqa xmm7,XMMWORD PTR [rsp-0x18]
    4aaa:	66 0f 72 f0 01       	pslld  xmm0,0x1
    4aaf:	66 0f fe 05 29 66 00 	paddd  xmm0,XMMWORD PTR [rip+0x6629]        # b0e0 <_IO_stdin_used+0xe0>
    4ab6:	00 
    4ab7:	66 0f ef e4          	pxor   xmm4,xmm4
    4abb:	66 0f eb d1          	por    xmm2,xmm1
    4abf:	66 0f 65 e7          	pcmpgtw xmm4,xmm7
    4ac3:	66 0f 6f cb          	movdqa xmm1,xmm3
    4ac7:	66 0f 72 f1 06       	pslld  xmm1,0x6
    4acc:	66 0f fa cb          	psubd  xmm1,xmm3
    4ad0:	66 0f 72 f1 08       	pslld  xmm1,0x8
    4ad5:	66 0f 6f ec          	movdqa xmm5,xmm4
    4ad9:	66 0f fa cb          	psubd  xmm1,xmm3
    4add:	66 0f 6f d9          	movdqa xmm3,xmm1
    4ae1:	66 0f 72 f3 02       	pslld  xmm3,0x2
    4ae6:	66 0f fe cb          	paddd  xmm1,xmm3
    4aea:	66 0f 6f d8          	movdqa xmm3,xmm0
    4aee:	66 0f 72 f3 06       	pslld  xmm3,0x6
    4af3:	66 0f 72 d1 1c       	psrld  xmm1,0x1c
    4af8:	66 0f fa d8          	psubd  xmm3,xmm0
    4afc:	66 0f 72 f3 08       	pslld  xmm3,0x8
    4b01:	66 0f fa d8          	psubd  xmm3,xmm0
    4b05:	66 0f 6f c3          	movdqa xmm0,xmm3
    4b09:	66 0f 72 f0 02       	pslld  xmm0,0x2
    4b0e:	66 0f fe c3          	paddd  xmm0,xmm3
    4b12:	66 0f 6f d9          	movdqa xmm3,xmm1
    4b16:	66 0f 72 d0 1c       	psrld  xmm0,0x1c
    4b1b:	66 0f 61 c8          	punpcklwd xmm1,xmm0
    4b1f:	66 0f 69 d8          	punpckhwd xmm3,xmm0
    4b23:	66 0f 6f c1          	movdqa xmm0,xmm1
    4b27:	66 0f 61 cb          	punpcklwd xmm1,xmm3
    4b2b:	66 0f 69 c3          	punpckhwd xmm0,xmm3
    4b2f:	66 0f 61 c8          	punpcklwd xmm1,xmm0
    4b33:	66 0f 6f c7          	movdqa xmm0,xmm7
    4b37:	66 0f db 0d 01 65 00 	pand   xmm1,XMMWORD PTR [rip+0x6501]        # b040 <_IO_stdin_used+0x40>
    4b3e:	00 
    4b3f:	66 0f 61 c4          	punpcklwd xmm0,xmm4
    4b43:	66 0f 72 f0 01       	pslld  xmm0,0x1
    4b48:	66 0f fe 05 90 65 00 	paddd  xmm0,XMMWORD PTR [rip+0x6590]        # b0e0 <_IO_stdin_used+0xe0>
    4b4f:	00 
    4b50:	66 0f 6f d8          	movdqa xmm3,xmm0
    4b54:	66 0f 72 f3 06       	pslld  xmm3,0x6
    4b59:	66 0f fa d8          	psubd  xmm3,xmm0
    4b5d:	66 0f 72 f3 08       	pslld  xmm3,0x8
    4b62:	66 0f fa d8          	psubd  xmm3,xmm0
    4b66:	66 0f 6f c3          	movdqa xmm0,xmm3
    4b6a:	66 0f 72 f0 02       	pslld  xmm0,0x2
    4b6f:	66 0f fe d8          	paddd  xmm3,xmm0
    4b73:	66 0f 6f c7          	movdqa xmm0,xmm7
    4b77:	66 0f 6f 7c 24 b8    	movdqa xmm7,XMMWORD PTR [rsp-0x48]
    4b7d:	66 0f 69 c5          	punpckhwd xmm0,xmm5
    4b81:	66 0f 6f e3          	movdqa xmm4,xmm3
    4b85:	66 0f 72 f0 01       	pslld  xmm0,0x1
    4b8a:	66 0f fe 05 4e 65 00 	paddd  xmm0,XMMWORD PTR [rip+0x654e]        # b0e0 <_IO_stdin_used+0xe0>
    4b91:	00 
    4b92:	66 0f 72 d4 1c       	psrld  xmm4,0x1c
    4b97:	66 0f 6f d8          	movdqa xmm3,xmm0
    4b9b:	66 0f 72 f3 06       	pslld  xmm3,0x6
    4ba0:	66 0f fa d8          	psubd  xmm3,xmm0
    4ba4:	66 0f 72 f3 08       	pslld  xmm3,0x8
    4ba9:	66 0f fa d8          	psubd  xmm3,xmm0
    4bad:	66 0f 6f c3          	movdqa xmm0,xmm3
    4bb1:	66 0f 72 f0 02       	pslld  xmm0,0x2
    4bb6:	66 0f fe c3          	paddd  xmm0,xmm3
    4bba:	66 0f 6f dc          	movdqa xmm3,xmm4
    4bbe:	66 0f 72 d0 1c       	psrld  xmm0,0x1c
    4bc3:	66 0f 69 d8          	punpckhwd xmm3,xmm0
    4bc7:	66 0f 6f eb          	movdqa xmm5,xmm3
    4bcb:	66 0f 6f dc          	movdqa xmm3,xmm4
    4bcf:	66 0f ef e4          	pxor   xmm4,xmm4
    4bd3:	66 0f 61 d8          	punpcklwd xmm3,xmm0
    4bd7:	66 0f 65 e7          	pcmpgtw xmm4,xmm7
    4bdb:	66 0f 6f c3          	movdqa xmm0,xmm3
    4bdf:	66 0f 61 dd          	punpcklwd xmm3,xmm5
    4be3:	66 0f 69 c5          	punpckhwd xmm0,xmm5
    4be7:	66 0f 61 d8          	punpcklwd xmm3,xmm0
    4beb:	66 0f db 1d 4d 64 00 	pand   xmm3,XMMWORD PTR [rip+0x644d]        # b040 <_IO_stdin_used+0x40>
    4bf2:	00 
    4bf3:	66 0f 67 cb          	packuswb xmm1,xmm3
    4bf7:	66 0f ef db          	pxor   xmm3,xmm3
    4bfb:	66 0f fc c9          	paddb  xmm1,xmm1
    4bff:	66 0f 65 de          	pcmpgtw xmm3,xmm6
    4c03:	66 0f fc c9          	paddb  xmm1,xmm1
    4c07:	66 0f fc c9          	paddb  xmm1,xmm1
    4c0b:	66 0f fc c9          	paddb  xmm1,xmm1
    4c0f:	66 0f fc c9          	paddb  xmm1,xmm1
    4c13:	66 0f fc c9          	paddb  xmm1,xmm1
    4c17:	66 0f db 0d 21 65 00 	pand   xmm1,XMMWORD PTR [rip+0x6521]        # b140 <_IO_stdin_used+0x140>
    4c1e:	00 
    4c1f:	66 0f eb d1          	por    xmm2,xmm1
    4c23:	66 0f 6f c2          	movdqa xmm0,xmm2
    4c27:	66 0f 6f d6          	movdqa xmm2,xmm6
    4c2b:	66 0f 69 f3          	punpckhwd xmm6,xmm3
    4c2f:	66 0f 61 d3          	punpcklwd xmm2,xmm3
    4c33:	66 0f 72 f2 01       	pslld  xmm2,0x1
    4c38:	66 0f fe 15 a0 64 00 	paddd  xmm2,XMMWORD PTR [rip+0x64a0]        # b0e0 <_IO_stdin_used+0xe0>
    4c3f:	00 
    4c40:	66 0f 6f ca          	movdqa xmm1,xmm2
    4c44:	66 0f 72 f1 06       	pslld  xmm1,0x6
    4c49:	66 0f fa ca          	psubd  xmm1,xmm2
    4c4d:	66 0f 72 f1 08       	pslld  xmm1,0x8
    4c52:	66 0f fa ca          	psubd  xmm1,xmm2
    4c56:	66 0f 6f d1          	movdqa xmm2,xmm1
    4c5a:	66 0f 72 f2 02       	pslld  xmm2,0x2
    4c5f:	66 0f fe ca          	paddd  xmm1,xmm2
    4c63:	66 0f 6f d6          	movdqa xmm2,xmm6
    4c67:	66 0f 72 f2 01       	pslld  xmm2,0x1
    4c6c:	66 0f fe 15 6c 64 00 	paddd  xmm2,XMMWORD PTR [rip+0x646c]        # b0e0 <_IO_stdin_used+0xe0>
    4c73:	00 
    4c74:	66 0f 72 d1 1c       	psrld  xmm1,0x1c
    4c79:	66 0f 6f da          	movdqa xmm3,xmm2
    4c7d:	66 0f 72 f3 06       	pslld  xmm3,0x6
    4c82:	66 0f fa da          	psubd  xmm3,xmm2
    4c86:	66 0f 72 f3 08       	pslld  xmm3,0x8
    4c8b:	66 0f fa da          	psubd  xmm3,xmm2
    4c8f:	66 0f 6f d3          	movdqa xmm2,xmm3
    4c93:	66 0f 72 f2 02       	pslld  xmm2,0x2
    4c98:	66 0f fe d3          	paddd  xmm2,xmm3
    4c9c:	66 0f 6f d9          	movdqa xmm3,xmm1
    4ca0:	66 0f 72 d2 1c       	psrld  xmm2,0x1c
    4ca5:	66 0f 61 ca          	punpcklwd xmm1,xmm2
    4ca9:	66 0f 69 da          	punpckhwd xmm3,xmm2
    4cad:	66 0f 6f d1          	movdqa xmm2,xmm1
    4cb1:	66 0f 61 cb          	punpcklwd xmm1,xmm3
    4cb5:	66 0f 69 d3          	punpckhwd xmm2,xmm3
    4cb9:	66 0f 6f df          	movdqa xmm3,xmm7
    4cbd:	66 0f 69 fc          	punpckhwd xmm7,xmm4
    4cc1:	66 0f 61 dc          	punpcklwd xmm3,xmm4
    4cc5:	66 0f 61 ca          	punpcklwd xmm1,xmm2
    4cc9:	66 0f db 0d 6f 63 00 	pand   xmm1,XMMWORD PTR [rip+0x636f]        # b040 <_IO_stdin_used+0x40>
    4cd0:	00 
    4cd1:	66 0f 72 f3 01       	pslld  xmm3,0x1
    4cd6:	66 0f fe 1d 02 64 00 	paddd  xmm3,XMMWORD PTR [rip+0x6402]        # b0e0 <_IO_stdin_used+0xe0>
    4cdd:	00 
    4cde:	66 0f 6f d3          	movdqa xmm2,xmm3
    4ce2:	66 0f 72 f2 06       	pslld  xmm2,0x6
    4ce7:	66 0f fa d3          	psubd  xmm2,xmm3
    4ceb:	66 0f 72 f2 08       	pslld  xmm2,0x8
    4cf0:	66 0f fa d3          	psubd  xmm2,xmm3
    4cf4:	66 0f 6f da          	movdqa xmm3,xmm2
    4cf8:	66 0f 72 f3 02       	pslld  xmm3,0x2
    4cfd:	66 0f fe d3          	paddd  xmm2,xmm3
    4d01:	66 0f 6f df          	movdqa xmm3,xmm7
    4d05:	66 0f 72 f3 01       	pslld  xmm3,0x1
    4d0a:	66 0f fe 1d ce 63 00 	paddd  xmm3,XMMWORD PTR [rip+0x63ce]        # b0e0 <_IO_stdin_used+0xe0>
    4d11:	00 
    4d12:	66 0f 72 d2 1c       	psrld  xmm2,0x1c
    4d17:	66 0f 6f e3          	movdqa xmm4,xmm3
    4d1b:	66 0f 72 f4 06       	pslld  xmm4,0x6
    4d20:	66 0f fa e3          	psubd  xmm4,xmm3
    4d24:	66 0f 72 f4 08       	pslld  xmm4,0x8
    4d29:	66 0f fa e3          	psubd  xmm4,xmm3
    4d2d:	66 0f 6f dc          	movdqa xmm3,xmm4
    4d31:	66 0f 72 f3 02       	pslld  xmm3,0x2
    4d36:	66 0f fe dc          	paddd  xmm3,xmm4
    4d3a:	66 0f 6f e2          	movdqa xmm4,xmm2
    4d3e:	66 0f 72 d3 1c       	psrld  xmm3,0x1c
    4d43:	66 0f 61 d3          	punpcklwd xmm2,xmm3
    4d47:	66 0f 69 e3          	punpckhwd xmm4,xmm3
    4d4b:	66 0f 6f da          	movdqa xmm3,xmm2
    4d4f:	66 0f 61 d4          	punpcklwd xmm2,xmm4
    4d53:	66 0f 69 dc          	punpckhwd xmm3,xmm4
    4d57:	66 0f 61 d3          	punpcklwd xmm2,xmm3
    4d5b:	66 0f db 15 dd 62 00 	pand   xmm2,XMMWORD PTR [rip+0x62dd]        # b040 <_IO_stdin_used+0x40>
    4d62:	00 
    4d63:	66 0f 67 ca          	packuswb xmm1,xmm2
    4d67:	66 0f fc c9          	paddb  xmm1,xmm1
    4d6b:	66 0f fc c9          	paddb  xmm1,xmm1
    4d6f:	66 0f fc c9          	paddb  xmm1,xmm1
    4d73:	66 0f fc c9          	paddb  xmm1,xmm1
    4d77:	66 0f fc c9          	paddb  xmm1,xmm1
    4d7b:	66 0f fc c9          	paddb  xmm1,xmm1
    4d7f:	66 0f fc c9          	paddb  xmm1,xmm1
    4d83:	66 0f eb c1          	por    xmm0,xmm1
    4d87:	0f 11 41 f0          	movups XMMWORD PTR [rcx-0x10],xmm0
    4d8b:	48 39 c1             	cmp    rcx,rax
    4d8e:	0f 85 3f ed ff ff    	jne    3ad3 <pqcrystals_kyber512_ref_poly_tomsg+0x23>
    4d94:	c3                   	ret    
    4d95:	0f 1f 00             	nop    DWORD PTR [rax]
    4d98:	c6 01 00             	mov    BYTE PTR [rcx],0x0
    4d9b:	0f bf 02             	movsx  eax,WORD PTR [rdx]
    4d9e:	48 83 c1 01          	add    rcx,0x1
    4da2:	8d 84 00 81 06 00 00 	lea    eax,[rax+rax*1+0x681]
    4da9:	69 c0 fb 3a 01 00    	imul   eax,eax,0x13afb
    4daf:	c1 e8 1c             	shr    eax,0x1c
    4db2:	83 e0 01             	and    eax,0x1
    4db5:	88 41 ff             	mov    BYTE PTR [rcx-0x1],al
    4db8:	0f bf 72 02          	movsx  esi,WORD PTR [rdx+0x2]
    4dbc:	8d b4 36 81 06 00 00 	lea    esi,[rsi+rsi*1+0x681]
    4dc3:	69 f6 fb 3a 01 00    	imul   esi,esi,0x13afb
    4dc9:	c1 ee 1b             	shr    esi,0x1b
    4dcc:	83 e6 02             	and    esi,0x2
    4dcf:	09 f0                	or     eax,esi
    4dd1:	88 41 ff             	mov    BYTE PTR [rcx-0x1],al
    4dd4:	0f bf 72 04          	movsx  esi,WORD PTR [rdx+0x4]
    4dd8:	8d b4 36 81 06 00 00 	lea    esi,[rsi+rsi*1+0x681]
    4ddf:	69 f6 fb 3a 01 00    	imul   esi,esi,0x13afb
    4de5:	c1 ee 1a             	shr    esi,0x1a
    4de8:	83 e6 04             	and    esi,0x4
    4deb:	09 f0                	or     eax,esi
    4ded:	88 41 ff             	mov    BYTE PTR [rcx-0x1],al
    4df0:	0f bf 72 06          	movsx  esi,WORD PTR [rdx+0x6]
    4df4:	8d b4 36 81 06 00 00 	lea    esi,[rsi+rsi*1+0x681]
    4dfb:	69 f6 fb 3a 01 00    	imul   esi,esi,0x13afb
    4e01:	c1 ee 19             	shr    esi,0x19
    4e04:	83 e6 08             	and    esi,0x8
    4e07:	09 f0                	or     eax,esi
    4e09:	88 41 ff             	mov    BYTE PTR [rcx-0x1],al
    4e0c:	0f bf 72 08          	movsx  esi,WORD PTR [rdx+0x8]
    4e10:	8d b4 36 81 06 00 00 	lea    esi,[rsi+rsi*1+0x681]
    4e17:	69 f6 fb 3a 01 00    	imul   esi,esi,0x13afb
    4e1d:	c1 ee 18             	shr    esi,0x18
    4e20:	83 e6 10             	and    esi,0x10
    4e23:	09 f0                	or     eax,esi
    4e25:	88 41 ff             	mov    BYTE PTR [rcx-0x1],al
    4e28:	0f bf 72 0a          	movsx  esi,WORD PTR [rdx+0xa]
    4e2c:	8d b4 36 81 06 00 00 	lea    esi,[rsi+rsi*1+0x681]
    4e33:	69 f6 fb 3a 01 00    	imul   esi,esi,0x13afb
    4e39:	c1 ee 17             	shr    esi,0x17
    4e3c:	83 e6 20             	and    esi,0x20
    4e3f:	09 f0                	or     eax,esi
    4e41:	88 41 ff             	mov    BYTE PTR [rcx-0x1],al
    4e44:	0f bf 72 0c          	movsx  esi,WORD PTR [rdx+0xc]
    4e48:	8d b4 36 81 06 00 00 	lea    esi,[rsi+rsi*1+0x681]
    4e4f:	69 f6 fb 3a 01 00    	imul   esi,esi,0x13afb
    4e55:	c1 ee 16             	shr    esi,0x16
    4e58:	83 e6 40             	and    esi,0x40
    4e5b:	09 f0                	or     eax,esi
    4e5d:	88 41 ff             	mov    BYTE PTR [rcx-0x1],al
    4e60:	0f bf 72 0e          	movsx  esi,WORD PTR [rdx+0xe]
    4e64:	8d b4 36 81 06 00 00 	lea    esi,[rsi+rsi*1+0x681]
    4e6b:	69 f6 fb 3a 01 00    	imul   esi,esi,0x13afb
    4e71:	c1 ee 1c             	shr    esi,0x1c
    4e74:	c1 e6 07             	shl    esi,0x7
    4e77:	09 f0                	or     eax,esi
    4e79:	88 41 ff             	mov    BYTE PTR [rcx-0x1],al
    4e7c:	48 83 c2 10          	add    rdx,0x10
    4e80:	49 39 d0             	cmp    r8,rdx
    4e83:	0f 85 0f ff ff ff    	jne    4d98 <pqcrystals_kyber512_ref_poly_tomsg+0x12e8>
    4e89:	c3                   	ret    
    4e8a:	66 0f 1f 44 00 00    	nop    WORD PTR [rax+rax*1+0x0]

0000000000004e90 <pqcrystals_kyber512_ref_poly_getnoise_eta1>:
    4e90:	f3 0f 1e fa          	endbr64 
    4e94:	41 54                	push   r12
    4e96:	0f b6 ca             	movzx  ecx,dl
    4e99:	48 89 f2             	mov    rdx,rsi
    4e9c:	be c0 00 00 00       	mov    esi,0xc0
    4ea1:	55                   	push   rbp
    4ea2:	48 89 fd             	mov    rbp,rdi
    4ea5:	48 81 ec d8 00 00 00 	sub    rsp,0xd8
    4eac:	64 48 8b 04 25 28 00 	mov    rax,QWORD PTR fs:0x28
    4eb3:	00 00 
    4eb5:	48 89 84 24 c8 00 00 	mov    QWORD PTR [rsp+0xc8],rax
    4ebc:	00 
    4ebd:	31 c0                	xor    eax,eax
    4ebf:	49 89 e4             	mov    r12,rsp
    4ec2:	4c 89 e7             	mov    rdi,r12
    4ec5:	e8 a6 58 00 00       	call   a770 <pqcrystals_kyber512_ref_kyber_shake256_prf>
    4eca:	4c 89 e6             	mov    rsi,r12
    4ecd:	48 89 ef             	mov    rdi,rbp
    4ed0:	e8 5b 05 00 00       	call   5430 <pqcrystals_kyber512_ref_poly_cbd_eta1>
    4ed5:	48 8b 84 24 c8 00 00 	mov    rax,QWORD PTR [rsp+0xc8]
    4edc:	00 
    4edd:	64 48 2b 04 25 28 00 	sub    rax,QWORD PTR fs:0x28
    4ee4:	00 00 
    4ee6:	75 0b                	jne    4ef3 <pqcrystals_kyber512_ref_poly_getnoise_eta1+0x63>
    4ee8:	48 81 c4 d8 00 00 00 	add    rsp,0xd8
    4eef:	5d                   	pop    rbp
    4ef0:	41 5c                	pop    r12
    4ef2:	c3                   	ret    
    4ef3:	e8 08 c2 ff ff       	call   1100 <__stack_chk_fail@plt>
    4ef8:	0f 1f 84 00 00 00 00 	nop    DWORD PTR [rax+rax*1+0x0]
    4eff:	00 

0000000000004f00 <pqcrystals_kyber512_ref_poly_getnoise_eta2>:
    4f00:	f3 0f 1e fa          	endbr64 
    4f04:	41 54                	push   r12
    4f06:	0f b6 ca             	movzx  ecx,dl
    4f09:	48 89 f2             	mov    rdx,rsi
    4f0c:	be 80 00 00 00       	mov    esi,0x80
    4f11:	55                   	push   rbp
    4f12:	48 89 fd             	mov    rbp,rdi
    4f15:	48 81 ec 98 00 00 00 	sub    rsp,0x98
    4f1c:	64 48 8b 04 25 28 00 	mov    rax,QWORD PTR fs:0x28
    4f23:	00 00 
    4f25:	48 89 84 24 88 00 00 	mov    QWORD PTR [rsp+0x88],rax
    4f2c:	00 
    4f2d:	31 c0                	xor    eax,eax
    4f2f:	49 89 e4             	mov    r12,rsp
    4f32:	4c 89 e7             	mov    rdi,r12
    4f35:	e8 36 58 00 00       	call   a770 <pqcrystals_kyber512_ref_kyber_shake256_prf>
    4f3a:	4c 89 e6             	mov    rsi,r12
    4f3d:	48 89 ef             	mov    rdi,rbp
    4f40:	e8 eb 05 00 00       	call   5530 <pqcrystals_kyber512_ref_poly_cbd_eta2>
    4f45:	48 8b 84 24 88 00 00 	mov    rax,QWORD PTR [rsp+0x88]
    4f4c:	00 
    4f4d:	64 48 2b 04 25 28 00 	sub    rax,QWORD PTR fs:0x28
    4f54:	00 00 
    4f56:	75 0b                	jne    4f63 <pqcrystals_kyber512_ref_poly_getnoise_eta2+0x63>
    4f58:	48 81 c4 98 00 00 00 	add    rsp,0x98
    4f5f:	5d                   	pop    rbp
    4f60:	41 5c                	pop    r12
    4f62:	c3                   	ret    
    4f63:	e8 98 c1 ff ff       	call   1100 <__stack_chk_fail@plt>
    4f68:	0f 1f 84 00 00 00 00 	nop    DWORD PTR [rax+rax*1+0x0]
    4f6f:	00 

0000000000004f70 <pqcrystals_kyber512_ref_poly_ntt>:
    4f70:	f3 0f 1e fa          	endbr64 
    4f74:	55                   	push   rbp
    4f75:	53                   	push   rbx
    4f76:	48 89 fb             	mov    rbx,rdi
    4f79:	48 8d ab 00 02 00 00 	lea    rbp,[rbx+0x200]
    4f80:	48 83 ec 08          	sub    rsp,0x8
    4f84:	e8 97 01 00 00       	call   5120 <pqcrystals_kyber512_ref_ntt>
    4f89:	0f 1f 80 00 00 00 00 	nop    DWORD PTR [rax+0x0]
    4f90:	0f bf 3b             	movsx  edi,WORD PTR [rbx]
    4f93:	48 83 c3 02          	add    rbx,0x2
    4f97:	e8 c4 0b 00 00       	call   5b60 <pqcrystals_kyber512_ref_barrett_reduce>
    4f9c:	66 89 43 fe          	mov    WORD PTR [rbx-0x2],ax
    4fa0:	48 39 eb             	cmp    rbx,rbp
    4fa3:	75 eb                	jne    4f90 <pqcrystals_kyber512_ref_poly_ntt+0x20>
    4fa5:	48 83 c4 08          	add    rsp,0x8
    4fa9:	5b                   	pop    rbx
    4faa:	5d                   	pop    rbp
    4fab:	c3                   	ret    
    4fac:	0f 1f 40 00          	nop    DWORD PTR [rax+0x0]

0000000000004fb0 <pqcrystals_kyber512_ref_poly_invntt_tomont>:
    4fb0:	f3 0f 1e fa          	endbr64 
    4fb4:	e9 87 02 00 00       	jmp    5240 <pqcrystals_kyber512_ref_invntt>
    4fb9:	0f 1f 80 00 00 00 00 	nop    DWORD PTR [rax+0x0]

0000000000004fc0 <pqcrystals_kyber512_ref_poly_basemul_montgomery>:
    4fc0:	f3 0f 1e fa          	endbr64 
    4fc4:	41 57                	push   r15
    4fc6:	4c 8d 3d 13 62 00 00 	lea    r15,[rip+0x6213]        # b1e0 <pqcrystals_kyber512_ref_zetas+0x80>
    4fcd:	41 56                	push   r14
    4fcf:	49 89 f6             	mov    r14,rsi
    4fd2:	41 55                	push   r13
    4fd4:	4d 8d af 80 00 00 00 	lea    r13,[r15+0x80]
    4fdb:	41 54                	push   r12
    4fdd:	49 89 d4             	mov    r12,rdx
    4fe0:	55                   	push   rbp
    4fe1:	48 8d 6f 04          	lea    rbp,[rdi+0x4]
    4fe5:	53                   	push   rbx
    4fe6:	48 83 ec 08          	sub    rsp,0x8
    4fea:	66 0f 1f 44 00 00    	nop    WORD PTR [rax+rax*1+0x0]
    4ff0:	41 0f bf 0f          	movsx  ecx,WORD PTR [r15]
    4ff4:	48 8d 7d fc          	lea    rdi,[rbp-0x4]
    4ff8:	4c 89 e2             	mov    rdx,r12
    4ffb:	4c 89 f6             	mov    rsi,r14
    4ffe:	49 83 c7 02          	add    r15,0x2
    5002:	89 cb                	mov    ebx,ecx
    5004:	e8 97 03 00 00       	call   53a0 <pqcrystals_kyber512_ref_basemul>
    5009:	f7 db                	neg    ebx
    500b:	49 8d 54 24 04       	lea    rdx,[r12+0x4]
    5010:	49 8d 76 04          	lea    rsi,[r14+0x4]
    5014:	48 89 ef             	mov    rdi,rbp
    5017:	0f bf cb             	movsx  ecx,bx
    501a:	49 83 c6 08          	add    r14,0x8
    501e:	49 83 c4 08          	add    r12,0x8
    5022:	e8 79 03 00 00       	call   53a0 <pqcrystals_kyber512_ref_basemul>
    5027:	48 83 c5 08          	add    rbp,0x8
    502b:	4d 39 fd             	cmp    r13,r15
    502e:	75 c0                	jne    4ff0 <pqcrystals_kyber512_ref_poly_basemul_montgomery+0x30>
    5030:	48 83 c4 08          	add    rsp,0x8
    5034:	5b                   	pop    rbx
    5035:	5d                   	pop    rbp
    5036:	41 5c                	pop    r12
    5038:	41 5d                	pop    r13
    503a:	41 5e                	pop    r14
    503c:	41 5f                	pop    r15
    503e:	c3                   	ret    
    503f:	90                   	nop

0000000000005040 <pqcrystals_kyber512_ref_poly_tomont>:
    5040:	f3 0f 1e fa          	endbr64 
    5044:	55                   	push   rbp
    5045:	48 8d af 00 02 00 00 	lea    rbp,[rdi+0x200]
    504c:	53                   	push   rbx
    504d:	48 89 fb             	mov    rbx,rdi
    5050:	48 83 ec 08          	sub    rsp,0x8
    5054:	0f 1f 40 00          	nop    DWORD PTR [rax+0x0]
    5058:	0f bf 3b             	movsx  edi,WORD PTR [rbx]
    505b:	48 83 c3 02          	add    rbx,0x2
    505f:	69 ff 49 05 00 00    	imul   edi,edi,0x549
    5065:	e8 d6 0a 00 00       	call   5b40 <pqcrystals_kyber512_ref_montgomery_reduce>
    506a:	66 89 43 fe          	mov    WORD PTR [rbx-0x2],ax
    506e:	48 39 eb             	cmp    rbx,rbp
    5071:	75 e5                	jne    5058 <pqcrystals_kyber512_ref_poly_tomont+0x18>
    5073:	48 83 c4 08          	add    rsp,0x8
    5077:	5b                   	pop    rbx
    5078:	5d                   	pop    rbp
    5079:	c3                   	ret    
    507a:	66 0f 1f 44 00 00    	nop    WORD PTR [rax+rax*1+0x0]

0000000000005080 <pqcrystals_kyber512_ref_poly_reduce>:
    5080:	f3 0f 1e fa          	endbr64 
    5084:	55                   	push   rbp
    5085:	48 8d af 00 02 00 00 	lea    rbp,[rdi+0x200]
    508c:	53                   	push   rbx
    508d:	48 89 fb             	mov    rbx,rdi
    5090:	48 83 ec 08          	sub    rsp,0x8
    5094:	0f 1f 40 00          	nop    DWORD PTR [rax+0x0]
    5098:	0f bf 3b             	movsx  edi,WORD PTR [rbx]
    509b:	48 83 c3 02          	add    rbx,0x2
    509f:	e8 bc 0a 00 00       	call   5b60 <pqcrystals_kyber512_ref_barrett_reduce>
    50a4:	66 89 43 fe          	mov    WORD PTR [rbx-0x2],ax
    50a8:	48 39 eb             	cmp    rbx,rbp
    50ab:	75 eb                	jne    5098 <pqcrystals_kyber512_ref_poly_reduce+0x18>
    50ad:	48 83 c4 08          	add    rsp,0x8
    50b1:	5b                   	pop    rbx
    50b2:	5d                   	pop    rbp
    50b3:	c3                   	ret    
    50b4:	66 66 2e 0f 1f 84 00 	data16 cs nop WORD PTR [rax+rax*1+0x0]
    50bb:	00 00 00 00 
    50bf:	90                   	nop

00000000000050c0 <pqcrystals_kyber512_ref_poly_add>:
    50c0:	f3 0f 1e fa          	endbr64 
    50c4:	31 c0                	xor    eax,eax
    50c6:	66 2e 0f 1f 84 00 00 	cs nop WORD PTR [rax+rax*1+0x0]
    50cd:	00 00 00 
    50d0:	f3 0f 6f 04 02       	movdqu xmm0,XMMWORD PTR [rdx+rax*1]
    50d5:	f3 0f 6f 0c 06       	movdqu xmm1,XMMWORD PTR [rsi+rax*1]
    50da:	66 0f fd c1          	paddw  xmm0,xmm1
    50de:	0f 11 04 07          	movups XMMWORD PTR [rdi+rax*1],xmm0
    50e2:	48 83 c0 10          	add    rax,0x10
    50e6:	48 3d 00 02 00 00    	cmp    rax,0x200
    50ec:	75 e2                	jne    50d0 <pqcrystals_kyber512_ref_poly_add+0x10>
    50ee:	c3                   	ret    
    50ef:	90                   	nop

00000000000050f0 <pqcrystals_kyber512_ref_poly_sub>:
    50f0:	f3 0f 1e fa          	endbr64 
    50f4:	31 c0                	xor    eax,eax
    50f6:	66 2e 0f 1f 84 00 00 	cs nop WORD PTR [rax+rax*1+0x0]
    50fd:	00 00 00 
    5100:	f3 0f 6f 04 06       	movdqu xmm0,XMMWORD PTR [rsi+rax*1]
    5105:	f3 0f 6f 0c 02       	movdqu xmm1,XMMWORD PTR [rdx+rax*1]
    510a:	66 0f f9 c1          	psubw  xmm0,xmm1
    510e:	0f 11 04 07          	movups XMMWORD PTR [rdi+rax*1],xmm0
    5112:	48 83 c0 10          	add    rax,0x10
    5116:	48 3d 00 02 00 00    	cmp    rax,0x200
    511c:	75 e2                	jne    5100 <pqcrystals_kyber512_ref_poly_sub+0x10>
    511e:	c3                   	ret    
    511f:	90                   	nop

0000000000005120 <pqcrystals_kyber512_ref_ntt>:
    5120:	f3 0f 1e fa          	endbr64 
    5124:	41 57                	push   r15
    5126:	48 8d 47 02          	lea    rax,[rdi+0x2]
    512a:	41 56                	push   r14
    512c:	41 55                	push   r13
    512e:	41 bd 01 00 00 00    	mov    r13d,0x1
    5134:	41 54                	push   r12
    5136:	55                   	push   rbp
    5137:	53                   	push   rbx
    5138:	bb 0a fd ff ff       	mov    ebx,0xfffffd0a
    513d:	48 83 ec 28          	sub    rsp,0x28
    5141:	48 89 7c 24 08       	mov    QWORD PTR [rsp+0x8],rdi
    5146:	c7 44 24 1c 07 00 00 	mov    DWORD PTR [rsp+0x1c],0x7
    514d:	00 
    514e:	c7 44 24 04 80 00 00 	mov    DWORD PTR [rsp+0x4],0x80
    5155:	00 
    5156:	48 89 44 24 10       	mov    QWORD PTR [rsp+0x10],rax
    515b:	0f 1f 44 00 00       	nop    DWORD PTR [rax+rax*1+0x0]
    5160:	8b 54 24 04          	mov    edx,DWORD PTR [rsp+0x4]
    5164:	31 c0                	xor    eax,eax
    5166:	83 ea 01             	sub    edx,0x1
    5169:	89 54 24 18          	mov    DWORD PTR [rsp+0x18],edx
    516d:	0f 1f 00             	nop    DWORD PTR [rax]
    5170:	8b 54 24 04          	mov    edx,DWORD PTR [rsp+0x4]
    5174:	41 83 c5 01          	add    r13d,0x1
    5178:	44 8d 24 02          	lea    r12d,[rdx+rax*1]
    517c:	41 39 c4             	cmp    r12d,eax
    517f:	0f 86 9b 00 00 00    	jbe    5220 <pqcrystals_kyber512_ref_ntt+0x100>
    5185:	48 8b 54 24 08       	mov    rdx,QWORD PTR [rsp+0x8]
    518a:	8b 4c 24 18          	mov    ecx,DWORD PTR [rsp+0x18]
    518e:	44 89 e6             	mov    esi,r12d
    5191:	48 29 c6             	sub    rsi,rax
    5194:	4c 8d 34 42          	lea    r14,[rdx+rax*2]
    5198:	48 8b 54 24 10       	mov    rdx,QWORD PTR [rsp+0x10]
    519d:	48 01 c1             	add    rcx,rax
    51a0:	49 89 f7             	mov    r15,rsi
    51a3:	48 8d 2c 4a          	lea    rbp,[rdx+rcx*2]
    51a7:	66 0f 1f 84 00 00 00 	nop    WORD PTR [rax+rax*1+0x0]
    51ae:	00 00 
    51b0:	43 0f bf 3c 7e       	movsx  edi,WORD PTR [r14+r15*2]
    51b5:	0f af fb             	imul   edi,ebx
    51b8:	e8 83 09 00 00       	call   5b40 <pqcrystals_kyber512_ref_montgomery_reduce>
    51bd:	41 0f b7 0e          	movzx  ecx,WORD PTR [r14]
    51c1:	29 c1                	sub    ecx,eax
    51c3:	66 43 89 0c 7e       	mov    WORD PTR [r14+r15*2],cx
    51c8:	66 41 01 06          	add    WORD PTR [r14],ax
    51cc:	49 83 c6 02          	add    r14,0x2
    51d0:	4c 39 f5             	cmp    rbp,r14
    51d3:	75 db                	jne    51b0 <pqcrystals_kyber512_ref_ntt+0x90>
    51d5:	8b 44 24 04          	mov    eax,DWORD PTR [rsp+0x4]
    51d9:	44 01 e0             	add    eax,r12d
    51dc:	3d ff 00 00 00       	cmp    eax,0xff
    51e1:	77 1d                	ja     5200 <pqcrystals_kyber512_ref_ntt+0xe0>
    51e3:	44 89 ea             	mov    edx,r13d
    51e6:	48 8d 35 73 5f 00 00 	lea    rsi,[rip+0x5f73]        # b160 <pqcrystals_kyber512_ref_zetas>
    51ed:	0f bf 1c 56          	movsx  ebx,WORD PTR [rsi+rdx*2]
    51f1:	e9 7a ff ff ff       	jmp    5170 <pqcrystals_kyber512_ref_ntt+0x50>
    51f6:	66 2e 0f 1f 84 00 00 	cs nop WORD PTR [rax+rax*1+0x0]
    51fd:	00 00 00 
    5200:	d1 6c 24 04          	shr    DWORD PTR [rsp+0x4],1
    5204:	83 6c 24 1c 01       	sub    DWORD PTR [rsp+0x1c],0x1
    5209:	74 1a                	je     5225 <pqcrystals_kyber512_ref_ntt+0x105>
    520b:	44 89 e8             	mov    eax,r13d
    520e:	48 8d 15 4b 5f 00 00 	lea    rdx,[rip+0x5f4b]        # b160 <pqcrystals_kyber512_ref_zetas>
    5215:	0f bf 1c 42          	movsx  ebx,WORD PTR [rdx+rax*2]
    5219:	e9 42 ff ff ff       	jmp    5160 <pqcrystals_kyber512_ref_ntt+0x40>
    521e:	66 90                	xchg   ax,ax
    5220:	44 89 e0             	mov    eax,r12d
    5223:	eb be                	jmp    51e3 <pqcrystals_kyber512_ref_ntt+0xc3>
    5225:	48 83 c4 28          	add    rsp,0x28
    5229:	5b                   	pop    rbx
    522a:	5d                   	pop    rbp
    522b:	41 5c                	pop    r12
    522d:	41 5d                	pop    r13
    522f:	41 5e                	pop    r14
    5231:	41 5f                	pop    r15
    5233:	c3                   	ret    
    5234:	66 66 2e 0f 1f 84 00 	data16 cs nop WORD PTR [rax+rax*1+0x0]
    523b:	00 00 00 00 
    523f:	90                   	nop

0000000000005240 <pqcrystals_kyber512_ref_invntt>:
    5240:	f3 0f 1e fa          	endbr64 
    5244:	41 57                	push   r15
    5246:	48 8d 47 02          	lea    rax,[rdi+0x2]
    524a:	41 56                	push   r14
    524c:	41 55                	push   r13
    524e:	41 54                	push   r12
    5250:	55                   	push   rbp
    5251:	53                   	push   rbx
    5252:	bb 5c 06 00 00       	mov    ebx,0x65c
    5257:	48 83 ec 28          	sub    rsp,0x28
    525b:	48 89 7c 24 08       	mov    QWORD PTR [rsp+0x8],rdi
    5260:	c7 44 24 1c 07 00 00 	mov    DWORD PTR [rsp+0x1c],0x7
    5267:	00 
    5268:	c7 44 24 04 7f 00 00 	mov    DWORD PTR [rsp+0x4],0x7f
    526f:	00 
    5270:	c7 04 24 02 00 00 00 	mov    DWORD PTR [rsp],0x2
    5277:	48 89 44 24 10       	mov    QWORD PTR [rsp+0x10],rax
    527c:	0f 1f 40 00          	nop    DWORD PTR [rax+0x0]
    5280:	8b 14 24             	mov    edx,DWORD PTR [rsp]
    5283:	31 c0                	xor    eax,eax
    5285:	83 ea 01             	sub    edx,0x1
    5288:	89 54 24 18          	mov    DWORD PTR [rsp+0x18],edx
    528c:	0f 1f 40 00          	nop    DWORD PTR [rax+0x0]
    5290:	8b 0c 24             	mov    ecx,DWORD PTR [rsp]
    5293:	83 6c 24 04 01       	sub    DWORD PTR [rsp+0x4],0x1
    5298:	44 8d 2c 08          	lea    r13d,[rax+rcx*1]
    529c:	41 39 c5             	cmp    r13d,eax
    529f:	0f 86 ab 00 00 00    	jbe    5350 <pqcrystals_kyber512_ref_invntt+0x110>
    52a5:	48 8b 74 24 08       	mov    rsi,QWORD PTR [rsp+0x8]
    52aa:	44 89 ea             	mov    edx,r13d
    52ad:	48 8b 4c 24 10       	mov    rcx,QWORD PTR [rsp+0x10]
    52b2:	4c 8d 3c 46          	lea    r15,[rsi+rax*2]
    52b6:	48 8d 2c 56          	lea    rbp,[rsi+rdx*2]
    52ba:	8b 74 24 18          	mov    esi,DWORD PTR [rsp+0x18]
    52be:	48 01 f0             	add    rax,rsi
    52c1:	4c 8d 24 41          	lea    r12,[rcx+rax*2]
    52c5:	0f 1f 00             	nop    DWORD PTR [rax]
    52c8:	45 0f b7 37          	movzx  r14d,WORD PTR [r15]
    52cc:	0f b7 7d 00          	movzx  edi,WORD PTR [rbp+0x0]
    52d0:	49 83 c7 02          	add    r15,0x2
    52d4:	48 83 c5 02          	add    rbp,0x2
    52d8:	44 01 f7             	add    edi,r14d
    52db:	0f bf ff             	movsx  edi,di
    52de:	e8 7d 08 00 00       	call   5b60 <pqcrystals_kyber512_ref_barrett_reduce>
    52e3:	66 41 89 47 fe       	mov    WORD PTR [r15-0x2],ax
    52e8:	0f b7 7d fe          	movzx  edi,WORD PTR [rbp-0x2]
    52ec:	44 29 f7             	sub    edi,r14d
    52ef:	66 89 7d fe          	mov    WORD PTR [rbp-0x2],di
    52f3:	0f bf ff             	movsx  edi,di
    52f6:	0f af fb             	imul   edi,ebx
    52f9:	e8 42 08 00 00       	call   5b40 <pqcrystals_kyber512_ref_montgomery_reduce>
    52fe:	66 89 45 fe          	mov    WORD PTR [rbp-0x2],ax
    5302:	4d 39 fc             	cmp    r12,r15
    5305:	75 c1                	jne    52c8 <pqcrystals_kyber512_ref_invntt+0x88>
    5307:	8b 04 24             	mov    eax,DWORD PTR [rsp]
    530a:	44 01 e8             	add    eax,r13d
    530d:	3d ff 00 00 00       	cmp    eax,0xff
    5312:	77 1c                	ja     5330 <pqcrystals_kyber512_ref_invntt+0xf0>
    5314:	8b 54 24 04          	mov    edx,DWORD PTR [rsp+0x4]
    5318:	48 8d 0d 41 5e 00 00 	lea    rcx,[rip+0x5e41]        # b160 <pqcrystals_kyber512_ref_zetas>
    531f:	0f bf 1c 51          	movsx  ebx,WORD PTR [rcx+rdx*2]
    5323:	e9 68 ff ff ff       	jmp    5290 <pqcrystals_kyber512_ref_invntt+0x50>
    5328:	0f 1f 84 00 00 00 00 	nop    DWORD PTR [rax+rax*1+0x0]
    532f:	00 
    5330:	d1 24 24             	shl    DWORD PTR [rsp],1
    5333:	83 6c 24 1c 01       	sub    DWORD PTR [rsp+0x1c],0x1
    5338:	74 1b                	je     5355 <pqcrystals_kyber512_ref_invntt+0x115>
    533a:	8b 44 24 04          	mov    eax,DWORD PTR [rsp+0x4]
    533e:	48 8d 15 1b 5e 00 00 	lea    rdx,[rip+0x5e1b]        # b160 <pqcrystals_kyber512_ref_zetas>
    5345:	0f bf 1c 42          	movsx  ebx,WORD PTR [rdx+rax*2]
    5349:	e9 32 ff ff ff       	jmp    5280 <pqcrystals_kyber512_ref_invntt+0x40>
    534e:	66 90                	xchg   ax,ax
    5350:	44 89 e8             	mov    eax,r13d
    5353:	eb bf                	jmp    5314 <pqcrystals_kyber512_ref_invntt+0xd4>
    5355:	48 8b 6c 24 08       	mov    rbp,QWORD PTR [rsp+0x8]
    535a:	48 8d 9d 00 02 00 00 	lea    rbx,[rbp+0x200]
    5361:	0f 1f 80 00 00 00 00 	nop    DWORD PTR [rax+0x0]
    5368:	0f bf 7d 00          	movsx  edi,WORD PTR [rbp+0x0]
    536c:	48 83 c5 02          	add    rbp,0x2
    5370:	69 ff a1 05 00 00    	imul   edi,edi,0x5a1
    5376:	e8 c5 07 00 00       	call   5b40 <pqcrystals_kyber512_ref_montgomery_reduce>
    537b:	66 89 45 fe          	mov    WORD PTR [rbp-0x2],ax
    537f:	48 39 eb             	cmp    rbx,rbp
    5382:	75 e4                	jne    5368 <pqcrystals_kyber512_ref_invntt+0x128>
    5384:	48 83 c4 28          	add    rsp,0x28
    5388:	5b                   	pop    rbx
    5389:	5d                   	pop    rbp
    538a:	41 5c                	pop    r12
    538c:	41 5d                	pop    r13
    538e:	41 5e                	pop    r14
    5390:	41 5f                	pop    r15
    5392:	c3                   	ret    
    5393:	66 66 2e 0f 1f 84 00 	data16 cs nop WORD PTR [rax+rax*1+0x0]
    539a:	00 00 00 00 
    539e:	66 90                	xchg   ax,ax

00000000000053a0 <pqcrystals_kyber512_ref_basemul>:
    53a0:	f3 0f 1e fa          	endbr64 
    53a4:	41 55                	push   r13
    53a6:	49 89 d5             	mov    r13,rdx
    53a9:	41 54                	push   r12
    53ab:	49 89 f4             	mov    r12,rsi
    53ae:	55                   	push   rbp
    53af:	89 cd                	mov    ebp,ecx
    53b1:	53                   	push   rbx
    53b2:	48 89 fb             	mov    rbx,rdi
    53b5:	48 83 ec 08          	sub    rsp,0x8
    53b9:	0f bf 7a 02          	movsx  edi,WORD PTR [rdx+0x2]
    53bd:	0f bf 46 02          	movsx  eax,WORD PTR [rsi+0x2]
    53c1:	0f af f8             	imul   edi,eax
    53c4:	e8 77 07 00 00       	call   5b40 <pqcrystals_kyber512_ref_montgomery_reduce>
    53c9:	0f bf fd             	movsx  edi,bp
    53cc:	66 89 03             	mov    WORD PTR [rbx],ax
    53cf:	98                   	cwde   
    53d0:	0f af f8             	imul   edi,eax
    53d3:	e8 68 07 00 00       	call   5b40 <pqcrystals_kyber512_ref_montgomery_reduce>
    53d8:	66 89 03             	mov    WORD PTR [rbx],ax
    53db:	41 0f bf 7d 00       	movsx  edi,WORD PTR [r13+0x0]
    53e0:	41 0f bf 04 24       	movsx  eax,WORD PTR [r12]
    53e5:	0f af f8             	imul   edi,eax
    53e8:	e8 53 07 00 00       	call   5b40 <pqcrystals_kyber512_ref_montgomery_reduce>
    53ed:	66 01 03             	add    WORD PTR [rbx],ax
    53f0:	41 0f bf 7d 02       	movsx  edi,WORD PTR [r13+0x2]
    53f5:	41 0f bf 04 24       	movsx  eax,WORD PTR [r12]
    53fa:	0f af f8             	imul   edi,eax
    53fd:	e8 3e 07 00 00       	call   5b40 <pqcrystals_kyber512_ref_montgomery_reduce>
    5402:	66 89 43 02          	mov    WORD PTR [rbx+0x2],ax
    5406:	41 0f bf 7d 00       	movsx  edi,WORD PTR [r13+0x0]
    540b:	41 0f bf 44 24 02    	movsx  eax,WORD PTR [r12+0x2]
    5411:	0f af f8             	imul   edi,eax
    5414:	e8 27 07 00 00       	call   5b40 <pqcrystals_kyber512_ref_montgomery_reduce>
    5419:	66 01 43 02          	add    WORD PTR [rbx+0x2],ax
    541d:	48 83 c4 08          	add    rsp,0x8
    5421:	5b                   	pop    rbx
    5422:	5d                   	pop    rbp
    5423:	41 5c                	pop    r12
    5425:	41 5d                	pop    r13
    5427:	c3                   	ret    
    5428:	0f 1f 84 00 00 00 00 	nop    DWORD PTR [rax+rax*1+0x0]
    542f:	00 

0000000000005430 <pqcrystals_kyber512_ref_poly_cbd_eta1>:
    5430:	f3 0f 1e fa          	endbr64 
    5434:	f3 0f 7e 0d 24 5e 00 	movq   xmm1,QWORD PTR [rip+0x5e24]        # b260 <pqcrystals_kyber512_ref_zetas+0x100>
    543b:	00 
    543c:	48 89 f1             	mov    rcx,rsi
    543f:	48 89 fe             	mov    rsi,rdi
    5442:	48 8d b9 c0 00 00 00 	lea    rdi,[rcx+0xc0]
    5449:	0f 1f 80 00 00 00 00 	nop    DWORD PTR [rax+0x0]
    5450:	0f b6 51 01          	movzx  edx,BYTE PTR [rcx+0x1]
    5454:	0f b6 41 02          	movzx  eax,BYTE PTR [rcx+0x2]
    5458:	44 0f b6 01          	movzx  r8d,BYTE PTR [rcx]
    545c:	c1 e0 10             	shl    eax,0x10
    545f:	c1 e2 08             	shl    edx,0x8
    5462:	09 c2                	or     edx,eax
    5464:	44 09 c2             	or     edx,r8d
    5467:	89 d0                	mov    eax,edx
    5469:	41 89 d0             	mov    r8d,edx
    546c:	c1 ea 02             	shr    edx,0x2
    546f:	d1 e8                	shr    eax,1
    5471:	81 e2 49 92 24 00    	and    edx,0x249249
    5477:	41 81 e0 49 92 24 00 	and    r8d,0x249249
    547e:	25 49 92 24 00       	and    eax,0x249249
    5483:	01 d0                	add    eax,edx
    5485:	44 01 c0             	add    eax,r8d
    5488:	89 c2                	mov    edx,eax
    548a:	41 89 c1             	mov    r9d,eax
    548d:	41 89 c0             	mov    r8d,eax
    5490:	c1 ea 12             	shr    edx,0x12
    5493:	41 c1 e9 0c          	shr    r9d,0xc
    5497:	0f b7 d2             	movzx  edx,dx
    549a:	45 0f b7 c9          	movzx  r9d,r9w
    549e:	41 c1 e8 06          	shr    r8d,0x6
    54a2:	48 c1 e2 10          	shl    rdx,0x10
    54a6:	45 0f b7 c0          	movzx  r8d,r8w
    54aa:	4c 09 ca             	or     rdx,r9
    54ad:	41 89 c1             	mov    r9d,eax
    54b0:	48 c1 e2 10          	shl    rdx,0x10
    54b4:	41 c1 e9 0f          	shr    r9d,0xf
    54b8:	4c 09 c2             	or     rdx,r8
    54bb:	44 0f b7 c0          	movzx  r8d,ax
    54bf:	41 83 e1 07          	and    r9d,0x7
    54c3:	48 c1 e2 10          	shl    rdx,0x10
    54c7:	4c 09 c2             	or     rdx,r8
    54ca:	41 89 c0             	mov    r8d,eax
    54cd:	66 48 0f 6e c2       	movq   xmm0,rdx
    54d2:	89 c2                	mov    edx,eax
    54d4:	c1 e8 15             	shr    eax,0x15
    54d7:	41 c1 e8 09          	shr    r8d,0x9
    54db:	0f b7 c0             	movzx  eax,ax
    54de:	c1 ea 03             	shr    edx,0x3
    54e1:	66 0f db c1          	pand   xmm0,xmm1
    54e5:	48 c1 e0 10          	shl    rax,0x10
    54e9:	41 83 e0 07          	and    r8d,0x7
    54ed:	83 e2 07             	and    edx,0x7
    54f0:	4c 09 c8             	or     rax,r9
    54f3:	48 c1 e0 10          	shl    rax,0x10
    54f7:	4c 09 c0             	or     rax,r8
    54fa:	48 c1 e0 10          	shl    rax,0x10
    54fe:	48 09 d0             	or     rax,rdx
    5501:	48 83 c1 03          	add    rcx,0x3
    5505:	48 83 c6 08          	add    rsi,0x8
    5509:	66 48 0f 6e d0       	movq   xmm2,rax
    550e:	66 0f f9 c2          	psubw  xmm0,xmm2
    5512:	66 0f d6 46 f8       	movq   QWORD PTR [rsi-0x8],xmm0
    5517:	48 39 cf             	cmp    rdi,rcx
    551a:	0f 85 30 ff ff ff    	jne    5450 <pqcrystals_kyber512_ref_poly_cbd_eta1+0x20>
    5520:	c3                   	ret    
    5521:	66 66 2e 0f 1f 84 00 	data16 cs nop WORD PTR [rax+rax*1+0x0]
    5528:	00 00 00 00 
    552c:	0f 1f 40 00          	nop    DWORD PTR [rax+0x0]

0000000000005530 <pqcrystals_kyber512_ref_poly_cbd_eta2>:
    5530:	f3 0f 1e fa          	endbr64 
    5534:	4c 8d 96 80 00 00 00 	lea    r10,[rsi+0x80]
    553b:	49 89 f1             	mov    r9,rsi
    553e:	4c 39 d7             	cmp    rdi,r10
    5541:	73 10                	jae    5553 <pqcrystals_kyber512_ref_poly_cbd_eta2+0x23>
    5543:	48 8d 87 00 02 00 00 	lea    rax,[rdi+0x200]
    554a:	48 39 c6             	cmp    rsi,rax
    554d:	0f 82 b2 04 00 00    	jb     5a05 <pqcrystals_kyber512_ref_poly_cbd_eta2+0x4d5>
    5553:	66 44 0f 6f 15 14 5d 	movdqa xmm10,XMMWORD PTR [rip+0x5d14]        # b270 <pqcrystals_kyber512_ref_zetas+0x110>
    555a:	00 00 
    555c:	66 0f 6f 1d 1c 5d 00 	movdqa xmm3,XMMWORD PTR [rip+0x5d1c]        # b280 <pqcrystals_kyber512_ref_zetas+0x120>
    5563:	00 
    5564:	48 89 fe             	mov    rsi,rdi
    5567:	f3 41 0f 6f 09       	movdqu xmm1,XMMWORD PTR [r9]
    556c:	f3 41 0f 6f 51 10    	movdqu xmm2,XMMWORD PTR [r9+0x10]
    5572:	49 83 c1 20          	add    r9,0x20
    5576:	48 83 ee 80          	sub    rsi,0xffffffffffffff80
    557a:	66 0f 6f c1          	movdqa xmm0,xmm1
    557e:	66 41 0f db ca       	pand   xmm1,xmm10
    5583:	66 0f 72 d0 01       	psrld  xmm0,0x1
    5588:	66 41 0f db c2       	pand   xmm0,xmm10
    558d:	66 0f fe c1          	paddd  xmm0,xmm1
    5591:	66 0f 6f ca          	movdqa xmm1,xmm2
    5595:	66 41 0f db d2       	pand   xmm2,xmm10
    559a:	66 0f 72 d1 01       	psrld  xmm1,0x1
    559f:	66 0f 6f e0          	movdqa xmm4,xmm0
    55a3:	66 41 0f db ca       	pand   xmm1,xmm10
    55a8:	66 0f fe ca          	paddd  xmm1,xmm2
    55ac:	66 0f 6f d0          	movdqa xmm2,xmm0
    55b0:	66 0f 61 e1          	punpcklwd xmm4,xmm1
    55b4:	66 0f 69 d1          	punpckhwd xmm2,xmm1
    55b8:	66 0f 6f f1          	movdqa xmm6,xmm1
    55bc:	66 0f 6f ec          	movdqa xmm5,xmm4
    55c0:	66 0f 61 e2          	punpcklwd xmm4,xmm2
    55c4:	66 0f 6f f9          	movdqa xmm7,xmm1
    55c8:	66 0f 69 ea          	punpckhwd xmm5,xmm2
    55cc:	66 0f 6f d0          	movdqa xmm2,xmm0
    55d0:	66 44 0f 6f c1       	movdqa xmm8,xmm1
    55d5:	66 0f 72 d6 02       	psrld  xmm6,0x2
    55da:	66 0f 72 d2 02       	psrld  xmm2,0x2
    55df:	66 0f 61 e5          	punpcklwd xmm4,xmm5
    55e3:	66 0f 6f ea          	movdqa xmm5,xmm2
    55e7:	66 0f 61 d6          	punpcklwd xmm2,xmm6
    55eb:	66 0f db e3          	pand   xmm4,xmm3
    55ef:	66 0f 69 ee          	punpckhwd xmm5,xmm6
    55f3:	66 0f 6f f2          	movdqa xmm6,xmm2
    55f7:	66 44 0f 6f c9       	movdqa xmm9,xmm1
    55fc:	66 0f 69 f5          	punpckhwd xmm6,xmm5
    5600:	66 0f 61 d5          	punpcklwd xmm2,xmm5
    5604:	66 44 0f 6f d9       	movdqa xmm11,xmm1
    5609:	66 0f 61 d6          	punpcklwd xmm2,xmm6
    560d:	66 0f 6f f1          	movdqa xmm6,xmm1
    5611:	66 44 0f 6f e1       	movdqa xmm12,xmm1
    5616:	66 0f db d3          	pand   xmm2,xmm3
    561a:	66 0f 72 d6 04       	psrld  xmm6,0x4
    561f:	66 44 0f 6f e9       	movdqa xmm13,xmm1
    5624:	66 0f 72 d7 06       	psrld  xmm7,0x6
    5629:	66 41 0f 72 d0 0a    	psrld  xmm8,0xa
    562f:	66 0f f9 e2          	psubw  xmm4,xmm2
    5633:	66 41 0f 72 d1 0e    	psrld  xmm9,0xe
    5639:	66 41 0f 72 d3 12    	psrld  xmm11,0x12
    563f:	66 0f 6f d0          	movdqa xmm2,xmm0
    5643:	66 0f 72 d2 04       	psrld  xmm2,0x4
    5648:	66 41 0f 72 d4 16    	psrld  xmm12,0x16
    564e:	66 0f 6f ea          	movdqa xmm5,xmm2
    5652:	66 41 0f 72 d5 1a    	psrld  xmm13,0x1a
    5658:	66 0f 61 d6          	punpcklwd xmm2,xmm6
    565c:	66 0f 69 ee          	punpckhwd xmm5,xmm6
    5660:	66 0f 6f f2          	movdqa xmm6,xmm2
    5664:	66 0f 69 f5          	punpckhwd xmm6,xmm5
    5668:	66 0f 61 d5          	punpcklwd xmm2,xmm5
    566c:	66 0f 6f e8          	movdqa xmm5,xmm0
    5670:	66 0f 72 d5 06       	psrld  xmm5,0x6
    5675:	66 0f 61 d6          	punpcklwd xmm2,xmm6
    5679:	66 0f 6f f5          	movdqa xmm6,xmm5
    567d:	66 0f 61 ef          	punpcklwd xmm5,xmm7
    5681:	66 0f db d3          	pand   xmm2,xmm3
    5685:	66 0f 69 f7          	punpckhwd xmm6,xmm7
    5689:	66 0f 6f fd          	movdqa xmm7,xmm5
    568d:	66 0f 69 fe          	punpckhwd xmm7,xmm6
    5691:	66 0f 61 ee          	punpcklwd xmm5,xmm6
    5695:	66 0f 6f f0          	movdqa xmm6,xmm0
    5699:	66 0f 61 ef          	punpcklwd xmm5,xmm7
    569d:	66 0f 72 d6 08       	psrld  xmm6,0x8
    56a2:	66 0f 6f f9          	movdqa xmm7,xmm1
    56a6:	66 0f 72 d7 08       	psrld  xmm7,0x8
    56ab:	66 0f db eb          	pand   xmm5,xmm3
    56af:	66 0f f9 d5          	psubw  xmm2,xmm5
    56b3:	66 0f 6f ee          	movdqa xmm5,xmm6
    56b7:	66 0f 61 f7          	punpcklwd xmm6,xmm7
    56bb:	66 0f 69 ef          	punpckhwd xmm5,xmm7
    56bf:	66 0f 6f fe          	movdqa xmm7,xmm6
    56c3:	66 0f 69 fd          	punpckhwd xmm7,xmm5
    56c7:	66 0f 61 f5          	punpcklwd xmm6,xmm5
    56cb:	66 0f 6f e8          	movdqa xmm5,xmm0
    56cf:	66 0f 72 d5 0a       	psrld  xmm5,0xa
    56d4:	66 0f 61 f7          	punpcklwd xmm6,xmm7
    56d8:	66 0f 6f fd          	movdqa xmm7,xmm5
    56dc:	66 41 0f 61 e8       	punpcklwd xmm5,xmm8
    56e1:	66 0f db f3          	pand   xmm6,xmm3
    56e5:	66 41 0f 69 f8       	punpckhwd xmm7,xmm8
    56ea:	66 44 0f 6f c5       	movdqa xmm8,xmm5
    56ef:	66 44 0f 69 c7       	punpckhwd xmm8,xmm7
    56f4:	66 0f 61 ef          	punpcklwd xmm5,xmm7
    56f8:	66 41 0f 61 e8       	punpcklwd xmm5,xmm8
    56fd:	66 44 0f 6f c1       	movdqa xmm8,xmm1
    5702:	66 0f db eb          	pand   xmm5,xmm3
    5706:	66 41 0f 72 d0 0c    	psrld  xmm8,0xc
    570c:	66 0f f9 f5          	psubw  xmm6,xmm5
    5710:	66 0f 6f e8          	movdqa xmm5,xmm0
    5714:	66 0f 72 d5 0c       	psrld  xmm5,0xc
    5719:	66 0f 6f fd          	movdqa xmm7,xmm5
    571d:	66 41 0f 61 e8       	punpcklwd xmm5,xmm8
    5722:	66 41 0f 69 f8       	punpckhwd xmm7,xmm8
    5727:	66 44 0f 6f c5       	movdqa xmm8,xmm5
    572c:	66 44 0f 69 c7       	punpckhwd xmm8,xmm7
    5731:	66 0f 61 ef          	punpcklwd xmm5,xmm7
    5735:	66 0f 6f f8          	movdqa xmm7,xmm0
    5739:	66 0f 72 d7 0e       	psrld  xmm7,0xe
    573e:	66 41 0f 61 e8       	punpcklwd xmm5,xmm8
    5743:	66 44 0f 6f c7       	movdqa xmm8,xmm7
    5748:	66 41 0f 61 f9       	punpcklwd xmm7,xmm9
    574d:	66 0f db eb          	pand   xmm5,xmm3
    5751:	66 45 0f 69 c1       	punpckhwd xmm8,xmm9
    5756:	66 44 0f 6f cf       	movdqa xmm9,xmm7
    575b:	66 45 0f 69 c8       	punpckhwd xmm9,xmm8
    5760:	66 41 0f 61 f8       	punpcklwd xmm7,xmm8
    5765:	66 44 0f 6f c0       	movdqa xmm8,xmm0
    576a:	66 41 0f 61 f9       	punpcklwd xmm7,xmm9
    576f:	66 41 0f 72 d0 10    	psrld  xmm8,0x10
    5775:	66 44 0f 6f c9       	movdqa xmm9,xmm1
    577a:	66 41 0f 72 d1 10    	psrld  xmm9,0x10
    5780:	66 0f db fb          	pand   xmm7,xmm3
    5784:	66 0f f9 ef          	psubw  xmm5,xmm7
    5788:	66 41 0f 6f f8       	movdqa xmm7,xmm8
    578d:	66 45 0f 61 c1       	punpcklwd xmm8,xmm9
    5792:	66 41 0f 69 f9       	punpckhwd xmm7,xmm9
    5797:	66 45 0f 6f c8       	movdqa xmm9,xmm8
    579c:	66 44 0f 69 cf       	punpckhwd xmm9,xmm7
    57a1:	66 44 0f 61 c7       	punpcklwd xmm8,xmm7
    57a6:	66 0f 6f f8          	movdqa xmm7,xmm0
    57aa:	66 0f 72 d7 12       	psrld  xmm7,0x12
    57af:	66 45 0f 61 c1       	punpcklwd xmm8,xmm9
    57b4:	66 44 0f 6f cf       	movdqa xmm9,xmm7
    57b9:	66 41 0f 61 fb       	punpcklwd xmm7,xmm11
    57be:	66 44 0f db c3       	pand   xmm8,xmm3
    57c3:	66 45 0f 69 cb       	punpckhwd xmm9,xmm11
    57c8:	66 44 0f 6f df       	movdqa xmm11,xmm7
    57cd:	66 45 0f 69 d9       	punpckhwd xmm11,xmm9
    57d2:	66 41 0f 61 f9       	punpcklwd xmm7,xmm9
    57d7:	66 41 0f 61 fb       	punpcklwd xmm7,xmm11
    57dc:	66 44 0f 6f d9       	movdqa xmm11,xmm1
    57e1:	66 0f db fb          	pand   xmm7,xmm3
    57e5:	66 41 0f 72 d3 14    	psrld  xmm11,0x14
    57eb:	66 44 0f f9 c7       	psubw  xmm8,xmm7
    57f0:	66 0f 6f f8          	movdqa xmm7,xmm0
    57f4:	66 0f 72 d7 14       	psrld  xmm7,0x14
    57f9:	66 44 0f 6f cf       	movdqa xmm9,xmm7
    57fe:	66 41 0f 61 fb       	punpcklwd xmm7,xmm11
    5803:	66 45 0f 69 cb       	punpckhwd xmm9,xmm11
    5808:	66 44 0f 6f df       	movdqa xmm11,xmm7
    580d:	66 45 0f 69 d9       	punpckhwd xmm11,xmm9
    5812:	66 41 0f 61 f9       	punpcklwd xmm7,xmm9
    5817:	66 44 0f 6f c8       	movdqa xmm9,xmm0
    581c:	66 41 0f 72 d1 16    	psrld  xmm9,0x16
    5822:	66 41 0f 61 fb       	punpcklwd xmm7,xmm11
    5827:	66 45 0f 6f d9       	movdqa xmm11,xmm9
    582c:	66 45 0f 61 cc       	punpcklwd xmm9,xmm12
    5831:	66 0f db fb          	pand   xmm7,xmm3
    5835:	66 45 0f 69 dc       	punpckhwd xmm11,xmm12
    583a:	66 45 0f 6f e1       	movdqa xmm12,xmm9
    583f:	66 45 0f 69 e3       	punpckhwd xmm12,xmm11
    5844:	66 45 0f 61 cb       	punpcklwd xmm9,xmm11
    5849:	66 44 0f 6f d8       	movdqa xmm11,xmm0
    584e:	66 45 0f 61 cc       	punpcklwd xmm9,xmm12
    5853:	66 41 0f 72 d3 18    	psrld  xmm11,0x18
    5859:	66 44 0f 6f e1       	movdqa xmm12,xmm1
    585e:	66 41 0f 72 d4 18    	psrld  xmm12,0x18
    5864:	66 44 0f db cb       	pand   xmm9,xmm3
    5869:	66 41 0f f9 f9       	psubw  xmm7,xmm9
    586e:	66 45 0f 6f cb       	movdqa xmm9,xmm11
    5873:	66 45 0f 61 dc       	punpcklwd xmm11,xmm12
    5878:	66 45 0f 69 cc       	punpckhwd xmm9,xmm12
    587d:	66 45 0f 6f e3       	movdqa xmm12,xmm11
    5882:	66 45 0f 69 e1       	punpckhwd xmm12,xmm9
    5887:	66 45 0f 61 d9       	punpcklwd xmm11,xmm9
    588c:	66 44 0f 6f c8       	movdqa xmm9,xmm0
    5891:	66 41 0f 72 d1 1a    	psrld  xmm9,0x1a
    5897:	66 45 0f 61 dc       	punpcklwd xmm11,xmm12
    589c:	66 45 0f 6f e1       	movdqa xmm12,xmm9
    58a1:	66 45 0f 61 cd       	punpcklwd xmm9,xmm13
    58a6:	66 44 0f db db       	pand   xmm11,xmm3
    58ab:	66 45 0f 69 e5       	punpckhwd xmm12,xmm13
    58b0:	66 45 0f 6f e9       	movdqa xmm13,xmm9
    58b5:	66 45 0f 69 ec       	punpckhwd xmm13,xmm12
    58ba:	66 45 0f 61 cc       	punpcklwd xmm9,xmm12
    58bf:	66 45 0f 61 cd       	punpcklwd xmm9,xmm13
    58c4:	66 44 0f 6f e9       	movdqa xmm13,xmm1
    58c9:	66 41 0f 72 d5 1c    	psrld  xmm13,0x1c
    58cf:	66 0f 72 d1 1e       	psrld  xmm1,0x1e
    58d4:	66 44 0f db cb       	pand   xmm9,xmm3
    58d9:	66 45 0f f9 d9       	psubw  xmm11,xmm9
    58de:	66 44 0f 6f c8       	movdqa xmm9,xmm0
    58e3:	66 41 0f 72 d1 1c    	psrld  xmm9,0x1c
    58e9:	66 0f 72 d0 1e       	psrld  xmm0,0x1e
    58ee:	66 45 0f 6f e1       	movdqa xmm12,xmm9
    58f3:	66 45 0f 61 cd       	punpcklwd xmm9,xmm13
    58f8:	66 45 0f 69 e5       	punpckhwd xmm12,xmm13
    58fd:	66 45 0f 6f e9       	movdqa xmm13,xmm9
    5902:	66 45 0f 69 ec       	punpckhwd xmm13,xmm12
    5907:	66 45 0f 61 cc       	punpcklwd xmm9,xmm12
    590c:	66 44 0f 6f e0       	movdqa xmm12,xmm0
    5911:	66 0f 61 c1          	punpcklwd xmm0,xmm1
    5915:	66 44 0f 69 e1       	punpckhwd xmm12,xmm1
    591a:	66 45 0f 61 cd       	punpcklwd xmm9,xmm13
    591f:	66 0f 6f c8          	movdqa xmm1,xmm0
    5923:	66 41 0f 61 c4       	punpcklwd xmm0,xmm12
    5928:	66 44 0f db cb       	pand   xmm9,xmm3
    592d:	66 41 0f 69 cc       	punpckhwd xmm1,xmm12
    5932:	66 0f 61 c1          	punpcklwd xmm0,xmm1
    5936:	66 0f 6f cc          	movdqa xmm1,xmm4
    593a:	66 41 0f 69 e0       	punpckhwd xmm4,xmm8
    593f:	66 44 0f f9 c8       	psubw  xmm9,xmm0
    5944:	66 41 0f 61 c8       	punpcklwd xmm1,xmm8
    5949:	66 0f 6f c6          	movdqa xmm0,xmm6
    594d:	66 44 0f 6f c2       	movdqa xmm8,xmm2
    5952:	66 41 0f 61 c3       	punpcklwd xmm0,xmm11
    5957:	66 0f 69 d7          	punpckhwd xmm2,xmm7
    595b:	66 44 0f 61 c7       	punpcklwd xmm8,xmm7
    5960:	66 0f 6f f9          	movdqa xmm7,xmm1
    5964:	66 41 0f 69 f3       	punpckhwd xmm6,xmm11
    5969:	66 0f 61 f8          	punpcklwd xmm7,xmm0
    596d:	66 0f 69 c8          	punpckhwd xmm1,xmm0
    5971:	66 44 0f 6f dd       	movdqa xmm11,xmm5
    5976:	66 0f 6f c4          	movdqa xmm0,xmm4
    597a:	66 41 0f 69 e9       	punpckhwd xmm5,xmm9
    597f:	66 45 0f 61 d9       	punpcklwd xmm11,xmm9
    5984:	66 0f 61 c6          	punpcklwd xmm0,xmm6
    5988:	66 0f 69 e6          	punpckhwd xmm4,xmm6
    598c:	66 45 0f 6f c8       	movdqa xmm9,xmm8
    5991:	66 0f 6f f2          	movdqa xmm6,xmm2
    5995:	66 45 0f 61 cb       	punpcklwd xmm9,xmm11
    599a:	66 0f 69 d5          	punpckhwd xmm2,xmm5
    599e:	66 0f 61 f5          	punpcklwd xmm6,xmm5
    59a2:	66 0f 6f ef          	movdqa xmm5,xmm7
    59a6:	66 45 0f 69 c3       	punpckhwd xmm8,xmm11
    59ab:	66 41 0f 61 e9       	punpcklwd xmm5,xmm9
    59b0:	66 41 0f 69 f9       	punpckhwd xmm7,xmm9
    59b5:	0f 11 6e 80          	movups XMMWORD PTR [rsi-0x80],xmm5
    59b9:	66 0f 6f e9          	movdqa xmm5,xmm1
    59bd:	66 41 0f 69 c8       	punpckhwd xmm1,xmm8
    59c2:	0f 11 4e b0          	movups XMMWORD PTR [rsi-0x50],xmm1
    59c6:	66 0f 6f c8          	movdqa xmm1,xmm0
    59ca:	66 0f 69 c6          	punpckhwd xmm0,xmm6
    59ce:	66 41 0f 61 e8       	punpcklwd xmm5,xmm8
    59d3:	0f 11 46 d0          	movups XMMWORD PTR [rsi-0x30],xmm0
    59d7:	66 0f 6f c4          	movdqa xmm0,xmm4
    59db:	66 0f 61 ce          	punpcklwd xmm1,xmm6
    59df:	66 0f 69 e2          	punpckhwd xmm4,xmm2
    59e3:	66 0f 61 c2          	punpcklwd xmm0,xmm2
    59e7:	0f 11 7e 90          	movups XMMWORD PTR [rsi-0x70],xmm7
    59eb:	0f 11 6e a0          	movups XMMWORD PTR [rsi-0x60],xmm5
    59ef:	0f 11 4e c0          	movups XMMWORD PTR [rsi-0x40],xmm1
    59f3:	0f 11 46 e0          	movups XMMWORD PTR [rsi-0x20],xmm0
    59f7:	0f 11 66 f0          	movups XMMWORD PTR [rsi-0x10],xmm4
    59fb:	4d 39 d1             	cmp    r9,r10
    59fe:	0f 85 63 fb ff ff    	jne    5567 <pqcrystals_kyber512_ref_poly_cbd_eta2+0x37>
    5a04:	c3                   	ret    
    5a05:	55                   	push   rbp
    5a06:	66 0f 6f 1d 72 58 00 	movdqa xmm3,XMMWORD PTR [rip+0x5872]        # b280 <pqcrystals_kyber512_ref_zetas+0x120>
    5a0d:	00 
    5a0e:	48 89 fe             	mov    rsi,rdi
    5a11:	53                   	push   rbx
    5a12:	66 0f 1f 44 00 00    	nop    WORD PTR [rax+rax*1+0x0]
    5a18:	41 8b 01             	mov    eax,DWORD PTR [r9]
    5a1b:	49 83 c1 04          	add    r9,0x4
    5a1f:	48 83 c6 10          	add    rsi,0x10
    5a23:	89 c2                	mov    edx,eax
    5a25:	d1 e8                	shr    eax,1
    5a27:	81 e2 55 55 55 55    	and    edx,0x55555555
    5a2d:	25 55 55 55 55       	and    eax,0x55555555
    5a32:	01 d0                	add    eax,edx
    5a34:	89 c7                	mov    edi,eax
    5a36:	89 c1                	mov    ecx,eax
    5a38:	89 c2                	mov    edx,eax
    5a3a:	89 c3                	mov    ebx,eax
    5a3c:	c1 ef 08             	shr    edi,0x8
    5a3f:	c1 e9 0c             	shr    ecx,0xc
    5a42:	66 0f 6e c0          	movd   xmm0,eax
    5a46:	41 89 c0             	mov    r8d,eax
    5a49:	66 0f 6e e1          	movd   xmm4,ecx
    5a4d:	c1 ea 04             	shr    edx,0x4
    5a50:	66 0f 6e cf          	movd   xmm1,edi
    5a54:	89 c1                	mov    ecx,eax
    5a56:	66 0f 62 cc          	punpckldq xmm1,xmm4
    5a5a:	89 c7                	mov    edi,eax
    5a5c:	66 0f 6e e2          	movd   xmm4,edx
    5a60:	89 c2                	mov    edx,eax
    5a62:	66 0f 62 c4          	punpckldq xmm0,xmm4
    5a66:	c1 eb 10             	shr    ebx,0x10
    5a69:	41 89 c3             	mov    r11d,eax
    5a6c:	89 c5                	mov    ebp,eax
    5a6e:	c1 ea 14             	shr    edx,0x14
    5a71:	c1 ef 18             	shr    edi,0x18
    5a74:	66 0f 6c c1          	punpcklqdq xmm0,xmm1
    5a78:	66 0f 6e cb          	movd   xmm1,ebx
    5a7c:	c1 e9 1c             	shr    ecx,0x1c
    5a7f:	66 0f 6e e2          	movd   xmm4,edx
    5a83:	66 0f 6e d7          	movd   xmm2,edi
    5a87:	89 c2                	mov    edx,eax
    5a89:	66 0f 6e f1          	movd   xmm6,ecx
    5a8d:	66 0f 62 cc          	punpckldq xmm1,xmm4
    5a91:	89 c1                	mov    ecx,eax
    5a93:	89 c7                	mov    edi,eax
    5a95:	c1 ea 02             	shr    edx,0x2
    5a98:	66 0f 62 d6          	punpckldq xmm2,xmm6
    5a9c:	89 c3                	mov    ebx,eax
    5a9e:	41 c1 e8 0a          	shr    r8d,0xa
    5aa2:	66 0f 6c ca          	punpcklqdq xmm1,xmm2
    5aa6:	66 0f 6f d0          	movdqa xmm2,xmm0
    5aaa:	c1 e9 12             	shr    ecx,0x12
    5aad:	83 e2 03             	and    edx,0x3
    5ab0:	66 0f 61 c1          	punpcklwd xmm0,xmm1
    5ab4:	66 0f 69 d1          	punpckhwd xmm2,xmm1
    5ab8:	c1 ef 1a             	shr    edi,0x1a
    5abb:	41 83 e0 03          	and    r8d,0x3
    5abf:	66 0f 6f c8          	movdqa xmm1,xmm0
    5ac3:	c1 eb 06             	shr    ebx,0x6
    5ac6:	66 0f 61 c2          	punpcklwd xmm0,xmm2
    5aca:	83 e1 03             	and    ecx,0x3
    5acd:	66 0f 69 ca          	punpckhwd xmm1,xmm2
    5ad1:	41 c1 eb 16          	shr    r11d,0x16
    5ad5:	83 e7 03             	and    edi,0x3
    5ad8:	83 e3 03             	and    ebx,0x3
    5adb:	66 0f 61 c1          	punpcklwd xmm0,xmm1
    5adf:	66 c1 ed 0e          	shr    bp,0xe
    5ae3:	41 83 e3 03          	and    r11d,0x3
    5ae7:	66 0f 6e ca          	movd   xmm1,edx
    5aeb:	66 41 0f 6e e8       	movd   xmm5,r8d
    5af0:	c1 e8 1e             	shr    eax,0x1e
    5af3:	66 0f 6e d1          	movd   xmm2,ecx
    5af7:	66 0f 6e e7          	movd   xmm4,edi
    5afb:	66 0f c4 cb 01       	pinsrw xmm1,ebx,0x1
    5b00:	66 0f c4 ed 01       	pinsrw xmm5,ebp,0x1
    5b05:	66 41 0f c4 d3 01    	pinsrw xmm2,r11d,0x1
    5b0b:	66 0f c4 e0 01       	pinsrw xmm4,eax,0x1
    5b10:	66 0f 62 cd          	punpckldq xmm1,xmm5
    5b14:	66 0f db c3          	pand   xmm0,xmm3
    5b18:	66 0f 62 d4          	punpckldq xmm2,xmm4
    5b1c:	66 0f 6c ca          	punpcklqdq xmm1,xmm2
    5b20:	66 0f f9 c1          	psubw  xmm0,xmm1
    5b24:	0f 11 46 f0          	movups XMMWORD PTR [rsi-0x10],xmm0
    5b28:	4d 39 ca             	cmp    r10,r9
    5b2b:	0f 85 e7 fe ff ff    	jne    5a18 <pqcrystals_kyber512_ref_poly_cbd_eta2+0x4e8>
    5b31:	5b                   	pop    rbx
    5b32:	5d                   	pop    rbp
    5b33:	c3                   	ret    
    5b34:	66 2e 0f 1f 84 00 00 	cs nop WORD PTR [rax+rax*1+0x0]
    5b3b:	00 00 00 
    5b3e:	66 90                	xchg   ax,ax

0000000000005b40 <pqcrystals_kyber512_ref_montgomery_reduce>:
    5b40:	f3 0f 1e fa          	endbr64 
    5b44:	66 69 c7 01 f3       	imul   ax,di,0xf301
    5b49:	98                   	cwde   
    5b4a:	69 c0 ff f2 ff ff    	imul   eax,eax,0xfffff2ff
    5b50:	01 f8                	add    eax,edi
    5b52:	c1 e8 10             	shr    eax,0x10
    5b55:	c3                   	ret    
    5b56:	66 2e 0f 1f 84 00 00 	cs nop WORD PTR [rax+rax*1+0x0]
    5b5d:	00 00 00 

0000000000005b60 <pqcrystals_kyber512_ref_barrett_reduce>:
    5b60:	f3 0f 1e fa          	endbr64 
    5b64:	0f bf d7             	movsx  edx,di
    5b67:	89 f8                	mov    eax,edi
    5b69:	69 d2 bf 4e 00 00    	imul   edx,edx,0x4ebf
    5b6f:	81 c2 00 00 00 02    	add    edx,0x2000000
    5b75:	c1 fa 1a             	sar    edx,0x1a
    5b78:	66 69 d2 01 0d       	imul   dx,dx,0xd01
    5b7d:	29 d0                	sub    eax,edx
    5b7f:	c3                   	ret    

0000000000005b80 <pqcrystals_kyber512_ref_verify>:
    5b80:	f3 0f 1e fa          	endbr64 
    5b84:	48 85 d2             	test   rdx,rdx
    5b87:	0f 84 d3 01 00 00    	je     5d60 <pqcrystals_kyber512_ref_verify+0x1e0>
    5b8d:	48 8d 42 ff          	lea    rax,[rdx-0x1]
    5b91:	49 89 f0             	mov    r8,rsi
    5b94:	49 89 d1             	mov    r9,rdx
    5b97:	48 83 f8 0e          	cmp    rax,0xe
    5b9b:	0f 86 c2 01 00 00    	jbe    5d63 <pqcrystals_kyber512_ref_verify+0x1e3>
    5ba1:	48 83 e2 f0          	and    rdx,0xfffffffffffffff0
    5ba5:	31 c0                	xor    eax,eax
    5ba7:	66 0f ef c0          	pxor   xmm0,xmm0
    5bab:	0f 1f 44 00 00       	nop    DWORD PTR [rax+rax*1+0x0]
    5bb0:	f3 0f 6f 0c 07       	movdqu xmm1,XMMWORD PTR [rdi+rax*1]
    5bb5:	f3 41 0f 6f 14 00    	movdqu xmm2,XMMWORD PTR [r8+rax*1]
    5bbb:	48 83 c0 10          	add    rax,0x10
    5bbf:	66 0f ef ca          	pxor   xmm1,xmm2
    5bc3:	66 0f eb c1          	por    xmm0,xmm1
    5bc7:	48 39 d0             	cmp    rax,rdx
    5bca:	75 e4                	jne    5bb0 <pqcrystals_kyber512_ref_verify+0x30>
    5bcc:	66 0f 6f c8          	movdqa xmm1,xmm0
    5bd0:	4c 89 ce             	mov    rsi,r9
    5bd3:	66 0f 73 d9 08       	psrldq xmm1,0x8
    5bd8:	48 83 e6 f0          	and    rsi,0xfffffffffffffff0
    5bdc:	66 0f eb c1          	por    xmm0,xmm1
    5be0:	66 0f 6f c8          	movdqa xmm1,xmm0
    5be4:	66 0f 73 d9 04       	psrldq xmm1,0x4
    5be9:	66 0f eb c1          	por    xmm0,xmm1
    5bed:	66 0f 6f c8          	movdqa xmm1,xmm0
    5bf1:	66 0f 73 d9 02       	psrldq xmm1,0x2
    5bf6:	66 0f eb c1          	por    xmm0,xmm1
    5bfa:	66 0f 6f c8          	movdqa xmm1,xmm0
    5bfe:	66 0f 73 d9 01       	psrldq xmm1,0x1
    5c03:	66 0f eb c1          	por    xmm0,xmm1
    5c07:	66 0f 7e c0          	movd   eax,xmm0
    5c0b:	41 f6 c1 0f          	test   r9b,0xf
    5c0f:	0f 84 57 01 00 00    	je     5d6c <pqcrystals_kyber512_ref_verify+0x1ec>
    5c15:	4d 89 ca             	mov    r10,r9
    5c18:	53                   	push   rbx
    5c19:	49 29 f2             	sub    r10,rsi
    5c1c:	49 8d 52 ff          	lea    rdx,[r10-0x1]
    5c20:	48 83 fa 06          	cmp    rdx,0x6
    5c24:	0f 86 a2 00 00 00    	jbe    5ccc <pqcrystals_kyber512_ref_verify+0x14c>
    5c2a:	f3 41 0f 7e 04 30    	movq   xmm0,QWORD PTR [r8+rsi*1]
    5c30:	f3 0f 7e 0c 37       	movq   xmm1,QWORD PTR [rdi+rsi*1]
    5c35:	66 0f ef c8          	pxor   xmm1,xmm0
    5c39:	66 48 0f 7e c9       	movq   rcx,xmm1
    5c3e:	66 0f d6 4c 24 f8    	movq   QWORD PTR [rsp-0x8],xmm1
    5c44:	89 ca                	mov    edx,ecx
    5c46:	0f b6 dd             	movzx  ebx,ch
    5c49:	66 0f d6 4c 24 f0    	movq   QWORD PTR [rsp-0x10],xmm1
    5c4f:	09 da                	or     edx,ebx
    5c51:	66 0f d6 4c 24 e8    	movq   QWORD PTR [rsp-0x18],xmm1
    5c57:	09 c2                	or     edx,eax
    5c59:	66 48 0f 7e c8       	movq   rax,xmm1
    5c5e:	66 0f d6 4c 24 e0    	movq   QWORD PTR [rsp-0x20],xmm1
    5c64:	48 c1 e8 10          	shr    rax,0x10
    5c68:	66 0f d6 4c 24 d8    	movq   QWORD PTR [rsp-0x28],xmm1
    5c6e:	09 c2                	or     edx,eax
    5c70:	66 48 0f 7e c8       	movq   rax,xmm1
    5c75:	66 0f d6 4c 24 d0    	movq   QWORD PTR [rsp-0x30],xmm1
    5c7b:	48 c1 e8 18          	shr    rax,0x18
    5c7f:	66 0f d6 4c 24 c8    	movq   QWORD PTR [rsp-0x38],xmm1
    5c85:	09 c2                	or     edx,eax
    5c87:	66 48 0f 7e c8       	movq   rax,xmm1
    5c8c:	66 0f d6 4c 24 c0    	movq   QWORD PTR [rsp-0x40],xmm1
    5c92:	48 c1 e8 20          	shr    rax,0x20
    5c96:	09 c2                	or     edx,eax
    5c98:	66 48 0f 7e c8       	movq   rax,xmm1
    5c9d:	48 c1 e8 28          	shr    rax,0x28
    5ca1:	09 c2                	or     edx,eax
    5ca3:	66 48 0f 7e c8       	movq   rax,xmm1
    5ca8:	48 c1 e8 30          	shr    rax,0x30
    5cac:	09 c2                	or     edx,eax
    5cae:	66 48 0f 7e c8       	movq   rax,xmm1
    5cb3:	48 c1 e8 38          	shr    rax,0x38
    5cb7:	09 d0                	or     eax,edx
    5cb9:	4c 89 d2             	mov    rdx,r10
    5cbc:	48 83 e2 f8          	and    rdx,0xfffffffffffffff8
    5cc0:	48 01 d6             	add    rsi,rdx
    5cc3:	49 39 d2             	cmp    r10,rdx
    5cc6:	0f 84 88 00 00 00    	je     5d54 <pqcrystals_kyber512_ref_verify+0x1d4>
    5ccc:	0f b6 14 37          	movzx  edx,BYTE PTR [rdi+rsi*1]
    5cd0:	41 32 14 30          	xor    dl,BYTE PTR [r8+rsi*1]
    5cd4:	09 d0                	or     eax,edx
    5cd6:	48 8d 56 01          	lea    rdx,[rsi+0x1]
    5cda:	49 39 d1             	cmp    r9,rdx
    5cdd:	76 75                	jbe    5d54 <pqcrystals_kyber512_ref_verify+0x1d4>
    5cdf:	41 0f b6 54 30 01    	movzx  edx,BYTE PTR [r8+rsi*1+0x1]
    5ce5:	32 54 37 01          	xor    dl,BYTE PTR [rdi+rsi*1+0x1]
    5ce9:	09 d0                	or     eax,edx
    5ceb:	48 8d 56 02          	lea    rdx,[rsi+0x2]
    5cef:	49 39 d1             	cmp    r9,rdx
    5cf2:	76 60                	jbe    5d54 <pqcrystals_kyber512_ref_verify+0x1d4>
    5cf4:	0f b6 54 37 02       	movzx  edx,BYTE PTR [rdi+rsi*1+0x2]
    5cf9:	41 32 54 30 02       	xor    dl,BYTE PTR [r8+rsi*1+0x2]
    5cfe:	09 d0                	or     eax,edx
    5d00:	48 8d 56 03          	lea    rdx,[rsi+0x3]
    5d04:	49 39 d1             	cmp    r9,rdx
    5d07:	76 4b                	jbe    5d54 <pqcrystals_kyber512_ref_verify+0x1d4>
    5d09:	0f b6 54 37 03       	movzx  edx,BYTE PTR [rdi+rsi*1+0x3]
    5d0e:	41 32 54 30 03       	xor    dl,BYTE PTR [r8+rsi*1+0x3]
    5d13:	09 d0                	or     eax,edx
    5d15:	48 8d 56 04          	lea    rdx,[rsi+0x4]
    5d19:	49 39 d1             	cmp    r9,rdx
    5d1c:	76 36                	jbe    5d54 <pqcrystals_kyber512_ref_verify+0x1d4>
    5d1e:	0f b6 54 37 04       	movzx  edx,BYTE PTR [rdi+rsi*1+0x4]
    5d23:	41 32 54 30 04       	xor    dl,BYTE PTR [r8+rsi*1+0x4]
    5d28:	09 d0                	or     eax,edx
    5d2a:	48 8d 56 05          	lea    rdx,[rsi+0x5]
    5d2e:	49 39 d1             	cmp    r9,rdx
    5d31:	76 21                	jbe    5d54 <pqcrystals_kyber512_ref_verify+0x1d4>
    5d33:	0f b6 54 37 05       	movzx  edx,BYTE PTR [rdi+rsi*1+0x5]
    5d38:	41 32 54 30 05       	xor    dl,BYTE PTR [r8+rsi*1+0x5]
    5d3d:	09 d0                	or     eax,edx
    5d3f:	48 8d 56 06          	lea    rdx,[rsi+0x6]
    5d43:	49 39 d1             	cmp    r9,rdx
    5d46:	76 0c                	jbe    5d54 <pqcrystals_kyber512_ref_verify+0x1d4>
    5d48:	0f b6 54 37 06       	movzx  edx,BYTE PTR [rdi+rsi*1+0x6]
    5d4d:	41 32 54 30 06       	xor    dl,BYTE PTR [r8+rsi*1+0x6]
    5d52:	09 d0                	or     eax,edx
    5d54:	0f b6 c0             	movzx  eax,al
    5d57:	5b                   	pop    rbx
    5d58:	48 f7 d8             	neg    rax
    5d5b:	48 c1 e8 3f          	shr    rax,0x3f
    5d5f:	c3                   	ret    
    5d60:	31 c0                	xor    eax,eax
    5d62:	c3                   	ret    
    5d63:	31 c0                	xor    eax,eax
    5d65:	31 f6                	xor    esi,esi
    5d67:	e9 a9 fe ff ff       	jmp    5c15 <pqcrystals_kyber512_ref_verify+0x95>
    5d6c:	0f b6 c0             	movzx  eax,al
    5d6f:	48 f7 d8             	neg    rax
    5d72:	48 c1 e8 3f          	shr    rax,0x3f
    5d76:	c3                   	ret    
    5d77:	66 0f 1f 84 00 00 00 	nop    WORD PTR [rax+rax*1+0x0]
    5d7e:	00 00 

0000000000005d80 <pqcrystals_kyber512_ref_cmov>:
    5d80:	f3 0f 1e fa          	endbr64 
    5d84:	f7 d9                	neg    ecx
    5d86:	48 85 d2             	test   rdx,rdx
    5d89:	0f 84 f9 01 00 00    	je     5f88 <pqcrystals_kyber512_ref_cmov+0x208>
    5d8f:	4c 8d 4e 01          	lea    r9,[rsi+0x1]
    5d93:	49 89 f8             	mov    r8,rdi
    5d96:	48 8d 42 ff          	lea    rax,[rdx-0x1]
    5d9a:	4d 29 c8             	sub    r8,r9
    5d9d:	49 83 f8 0e          	cmp    r8,0xe
    5da1:	0f 86 b9 01 00 00    	jbe    5f60 <pqcrystals_kyber512_ref_cmov+0x1e0>
    5da7:	48 83 f8 06          	cmp    rax,0x6
    5dab:	0f 86 af 01 00 00    	jbe    5f60 <pqcrystals_kyber512_ref_cmov+0x1e0>
    5db1:	48 83 f8 0e          	cmp    rax,0xe
    5db5:	0f 86 ce 01 00 00    	jbe    5f89 <pqcrystals_kyber512_ref_cmov+0x209>
    5dbb:	66 0f 6e c9          	movd   xmm1,ecx
    5dbf:	49 89 d0             	mov    r8,rdx
    5dc2:	31 c0                	xor    eax,eax
    5dc4:	66 0f 60 c9          	punpcklbw xmm1,xmm1
    5dc8:	49 83 e0 f0          	and    r8,0xfffffffffffffff0
    5dcc:	66 0f 61 c9          	punpcklwd xmm1,xmm1
    5dd0:	66 0f 70 c9 00       	pshufd xmm1,xmm1,0x0
    5dd5:	0f 1f 00             	nop    DWORD PTR [rax]
    5dd8:	f3 0f 6f 1c 07       	movdqu xmm3,XMMWORD PTR [rdi+rax*1]
    5ddd:	f3 0f 6f 04 06       	movdqu xmm0,XMMWORD PTR [rsi+rax*1]
    5de2:	66 0f ef c3          	pxor   xmm0,xmm3
    5de6:	66 0f db c1          	pand   xmm0,xmm1
    5dea:	66 0f ef c3          	pxor   xmm0,xmm3
    5dee:	0f 11 04 07          	movups XMMWORD PTR [rdi+rax*1],xmm0
    5df2:	48 83 c0 10          	add    rax,0x10
    5df6:	49 39 c0             	cmp    r8,rax
    5df9:	75 dd                	jne    5dd8 <pqcrystals_kyber512_ref_cmov+0x58>
    5dfb:	48 89 d0             	mov    rax,rdx
    5dfe:	48 83 e0 f0          	and    rax,0xfffffffffffffff0
    5e02:	f6 c2 0f             	test   dl,0xf
    5e05:	0f 84 7d 01 00 00    	je     5f88 <pqcrystals_kyber512_ref_cmov+0x208>
    5e0b:	49 89 d2             	mov    r10,rdx
    5e0e:	49 29 c2             	sub    r10,rax
    5e11:	4d 8d 42 ff          	lea    r8,[r10-0x1]
    5e15:	49 83 f8 06          	cmp    r8,0x6
    5e19:	76 4a                	jbe    5e65 <pqcrystals_kyber512_ref_cmov+0xe5>
    5e1b:	41 89 c8             	mov    r8d,ecx
    5e1e:	4c 8d 1c 07          	lea    r11,[rdi+rax*1]
    5e22:	44 0f b6 c9          	movzx  r9d,cl
    5e26:	f3 0f 7e 04 06       	movq   xmm0,QWORD PTR [rsi+rax*1]
    5e2b:	41 c1 e0 08          	shl    r8d,0x8
    5e2f:	f3 41 0f 7e 0b       	movq   xmm1,QWORD PTR [r11]
    5e34:	45 09 c8             	or     r8d,r9d
    5e37:	66 41 0f 6e e8       	movd   xmm5,r8d
    5e3c:	66 0f ef c1          	pxor   xmm0,xmm1
    5e40:	4d 89 d0             	mov    r8,r10
    5e43:	f2 0f 70 d5 00       	pshuflw xmm2,xmm5,0x0
    5e48:	49 83 e0 f8          	and    r8,0xfffffffffffffff8
    5e4c:	66 0f db c2          	pand   xmm0,xmm2
    5e50:	4c 01 c0             	add    rax,r8
    5e53:	66 0f ef c1          	pxor   xmm0,xmm1
    5e57:	66 41 0f d6 03       	movq   QWORD PTR [r11],xmm0
    5e5c:	4d 39 c2             	cmp    r10,r8
    5e5f:	0f 84 23 01 00 00    	je     5f88 <pqcrystals_kyber512_ref_cmov+0x208>
    5e65:	4c 8d 0c 07          	lea    r9,[rdi+rax*1]
    5e69:	44 0f b6 04 06       	movzx  r8d,BYTE PTR [rsi+rax*1]
    5e6e:	45 0f b6 11          	movzx  r10d,BYTE PTR [r9]
    5e72:	45 31 d0             	xor    r8d,r10d
    5e75:	41 21 c8             	and    r8d,ecx
    5e78:	45 31 d0             	xor    r8d,r10d
    5e7b:	45 88 01             	mov    BYTE PTR [r9],r8b
    5e7e:	4c 8d 40 01          	lea    r8,[rax+0x1]
    5e82:	4c 39 c2             	cmp    rdx,r8
    5e85:	0f 86 fd 00 00 00    	jbe    5f88 <pqcrystals_kyber512_ref_cmov+0x208>
    5e8b:	49 01 f8             	add    r8,rdi
    5e8e:	44 0f b6 4c 06 01    	movzx  r9d,BYTE PTR [rsi+rax*1+0x1]
    5e94:	45 0f b6 10          	movzx  r10d,BYTE PTR [r8]
    5e98:	45 31 d1             	xor    r9d,r10d
    5e9b:	41 21 c9             	and    r9d,ecx
    5e9e:	45 31 d1             	xor    r9d,r10d
    5ea1:	45 88 08             	mov    BYTE PTR [r8],r9b
    5ea4:	4c 8d 40 02          	lea    r8,[rax+0x2]
    5ea8:	4c 39 c2             	cmp    rdx,r8
    5eab:	0f 86 d7 00 00 00    	jbe    5f88 <pqcrystals_kyber512_ref_cmov+0x208>
    5eb1:	49 01 f8             	add    r8,rdi
    5eb4:	44 0f b6 4c 06 02    	movzx  r9d,BYTE PTR [rsi+rax*1+0x2]
    5eba:	45 0f b6 10          	movzx  r10d,BYTE PTR [r8]
    5ebe:	45 31 d1             	xor    r9d,r10d
    5ec1:	41 21 c9             	and    r9d,ecx
    5ec4:	45 31 d1             	xor    r9d,r10d
    5ec7:	45 88 08             	mov    BYTE PTR [r8],r9b
    5eca:	4c 8d 40 03          	lea    r8,[rax+0x3]
    5ece:	4c 39 c2             	cmp    rdx,r8
    5ed1:	0f 86 b1 00 00 00    	jbe    5f88 <pqcrystals_kyber512_ref_cmov+0x208>
    5ed7:	49 01 f8             	add    r8,rdi
    5eda:	44 0f b6 4c 06 03    	movzx  r9d,BYTE PTR [rsi+rax*1+0x3]
    5ee0:	45 0f b6 10          	movzx  r10d,BYTE PTR [r8]
    5ee4:	45 31 d1             	xor    r9d,r10d
    5ee7:	41 21 c9             	and    r9d,ecx
    5eea:	45 31 d1             	xor    r9d,r10d
    5eed:	45 88 08             	mov    BYTE PTR [r8],r9b
    5ef0:	4c 8d 40 04          	lea    r8,[rax+0x4]
    5ef4:	4c 39 c2             	cmp    rdx,r8
    5ef7:	0f 86 8b 00 00 00    	jbe    5f88 <pqcrystals_kyber512_ref_cmov+0x208>
    5efd:	49 01 f8             	add    r8,rdi
    5f00:	44 0f b6 4c 06 04    	movzx  r9d,BYTE PTR [rsi+rax*1+0x4]
    5f06:	45 0f b6 10          	movzx  r10d,BYTE PTR [r8]
    5f0a:	45 31 d1             	xor    r9d,r10d
    5f0d:	41 21 c9             	and    r9d,ecx
    5f10:	45 31 d1             	xor    r9d,r10d
    5f13:	45 88 08             	mov    BYTE PTR [r8],r9b
    5f16:	4c 8d 40 05          	lea    r8,[rax+0x5]
    5f1a:	4c 39 c2             	cmp    rdx,r8
    5f1d:	76 69                	jbe    5f88 <pqcrystals_kyber512_ref_cmov+0x208>
    5f1f:	49 01 f8             	add    r8,rdi
    5f22:	44 0f b6 4c 06 05    	movzx  r9d,BYTE PTR [rsi+rax*1+0x5]
    5f28:	45 0f b6 10          	movzx  r10d,BYTE PTR [r8]
    5f2c:	45 31 d1             	xor    r9d,r10d
    5f2f:	41 21 c9             	and    r9d,ecx
    5f32:	45 31 d1             	xor    r9d,r10d
    5f35:	45 88 08             	mov    BYTE PTR [r8],r9b
    5f38:	4c 8d 40 06          	lea    r8,[rax+0x6]
    5f3c:	4c 39 c2             	cmp    rdx,r8
    5f3f:	76 47                	jbe    5f88 <pqcrystals_kyber512_ref_cmov+0x208>
    5f41:	49 01 f8             	add    r8,rdi
    5f44:	0f b6 7c 06 06       	movzx  edi,BYTE PTR [rsi+rax*1+0x6]
    5f49:	41 0f b6 10          	movzx  edx,BYTE PTR [r8]
    5f4d:	31 d7                	xor    edi,edx
    5f4f:	89 f8                	mov    eax,edi
    5f51:	21 c8                	and    eax,ecx
    5f53:	31 d0                	xor    eax,edx
    5f55:	41 88 00             	mov    BYTE PTR [r8],al
    5f58:	c3                   	ret    
    5f59:	0f 1f 80 00 00 00 00 	nop    DWORD PTR [rax+0x0]
    5f60:	31 c0                	xor    eax,eax
    5f62:	66 0f 1f 44 00 00    	nop    WORD PTR [rax+rax*1+0x0]
    5f68:	44 0f b6 0c 07       	movzx  r9d,BYTE PTR [rdi+rax*1]
    5f6d:	44 0f b6 04 06       	movzx  r8d,BYTE PTR [rsi+rax*1]
    5f72:	45 31 c8             	xor    r8d,r9d
    5f75:	41 21 c8             	and    r8d,ecx
    5f78:	45 31 c8             	xor    r8d,r9d
    5f7b:	44 88 04 07          	mov    BYTE PTR [rdi+rax*1],r8b
    5f7f:	48 83 c0 01          	add    rax,0x1
    5f83:	48 39 c2             	cmp    rdx,rax
    5f86:	75 e0                	jne    5f68 <pqcrystals_kyber512_ref_cmov+0x1e8>
    5f88:	c3                   	ret    
    5f89:	49 89 d2             	mov    r10,rdx
    5f8c:	31 c0                	xor    eax,eax
    5f8e:	e9 88 fe ff ff       	jmp    5e1b <pqcrystals_kyber512_ref_cmov+0x9b>
    5f93:	66 2e 0f 1f 84 00 00 	cs nop WORD PTR [rax+rax*1+0x0]
    5f9a:	00 00 00 
    5f9d:	0f 1f 00             	nop    DWORD PTR [rax]

0000000000005fa0 <KeccakF1600_StatePermute>:
    5fa0:	41 57                	push   r15
    5fa2:	48 8d 05 f7 52 00 00 	lea    rax,[rip+0x52f7]        # b2a0 <KeccakF_RoundConstants>
    5fa9:	41 56                	push   r14
    5fab:	41 55                	push   r13
    5fad:	41 54                	push   r12
    5faf:	55                   	push   rbp
    5fb0:	53                   	push   rbx
    5fb1:	48 83 ec 68          	sub    rsp,0x68
    5fb5:	48 8b 37             	mov    rsi,QWORD PTR [rdi]
    5fb8:	4c 8b 6f 38          	mov    r13,QWORD PTR [rdi+0x38]
    5fbc:	4c 8b 7f 30          	mov    r15,QWORD PTR [rdi+0x30]
    5fc0:	4c 8b 67 60          	mov    r12,QWORD PTR [rdi+0x60]
    5fc4:	48 89 7c 24 60       	mov    QWORD PTR [rsp+0x60],rdi
    5fc9:	48 89 74 24 58       	mov    QWORD PTR [rsp+0x58],rsi
    5fce:	48 8b 77 08          	mov    rsi,QWORD PTR [rdi+0x8]
    5fd2:	48 89 74 24 90       	mov    QWORD PTR [rsp-0x70],rsi
    5fd7:	48 8b 77 10          	mov    rsi,QWORD PTR [rdi+0x10]
    5fdb:	48 89 74 24 98       	mov    QWORD PTR [rsp-0x68],rsi
    5fe0:	48 8b 77 18          	mov    rsi,QWORD PTR [rdi+0x18]
    5fe4:	48 89 74 24 a0       	mov    QWORD PTR [rsp-0x60],rsi
    5fe9:	48 8b 77 20          	mov    rsi,QWORD PTR [rdi+0x20]
    5fed:	48 89 74 24 a8       	mov    QWORD PTR [rsp-0x58],rsi
    5ff2:	48 8b 77 28          	mov    rsi,QWORD PTR [rdi+0x28]
    5ff6:	48 89 74 24 b0       	mov    QWORD PTR [rsp-0x50],rsi
    5ffb:	48 8b 77 40          	mov    rsi,QWORD PTR [rdi+0x40]
    5fff:	48 89 74 24 b8       	mov    QWORD PTR [rsp-0x48],rsi
    6004:	48 8b 77 48          	mov    rsi,QWORD PTR [rdi+0x48]
    6008:	48 89 74 24 c0       	mov    QWORD PTR [rsp-0x40],rsi
    600d:	48 8b 77 50          	mov    rsi,QWORD PTR [rdi+0x50]
    6011:	48 89 74 24 c8       	mov    QWORD PTR [rsp-0x38],rsi
    6016:	48 8b 77 58          	mov    rsi,QWORD PTR [rdi+0x58]
    601a:	48 89 74 24 d0       	mov    QWORD PTR [rsp-0x30],rsi
    601f:	48 8b 77 68          	mov    rsi,QWORD PTR [rdi+0x68]
    6023:	48 89 74 24 d8       	mov    QWORD PTR [rsp-0x28],rsi
    6028:	48 8b 77 70          	mov    rsi,QWORD PTR [rdi+0x70]
    602c:	4c 8b b7 a0 00 00 00 	mov    r14,QWORD PTR [rdi+0xa0]
    6033:	48 89 44 24 88       	mov    QWORD PTR [rsp-0x78],rax
    6038:	48 89 74 24 e0       	mov    QWORD PTR [rsp-0x20],rsi
    603d:	48 8b 77 78          	mov    rsi,QWORD PTR [rdi+0x78]
    6041:	4c 89 6c 24 10       	mov    QWORD PTR [rsp+0x10],r13
    6046:	4c 8b 87 80 00 00 00 	mov    r8,QWORD PTR [rdi+0x80]
    604d:	48 89 74 24 e8       	mov    QWORD PTR [rsp-0x18],rsi
    6052:	48 8b b7 88 00 00 00 	mov    rsi,QWORD PTR [rdi+0x88]
    6059:	4c 89 74 24 18       	mov    QWORD PTR [rsp+0x18],r14
    605e:	48 8b 8f 90 00 00 00 	mov    rcx,QWORD PTR [rdi+0x90]
    6065:	48 89 74 24 f0       	mov    QWORD PTR [rsp-0x10],rsi
    606a:	48 8b b7 98 00 00 00 	mov    rsi,QWORD PTR [rdi+0x98]
    6071:	48 8b 97 b0 00 00 00 	mov    rdx,QWORD PTR [rdi+0xb0]
    6078:	48 8b 9f c0 00 00 00 	mov    rbx,QWORD PTR [rdi+0xc0]
    607f:	48 89 74 24 f8       	mov    QWORD PTR [rsp-0x8],rsi
    6084:	48 8b b7 a8 00 00 00 	mov    rsi,QWORD PTR [rdi+0xa8]
    608b:	48 89 34 24          	mov    QWORD PTR [rsp],rsi
    608f:	48 8b b7 b8 00 00 00 	mov    rsi,QWORD PTR [rdi+0xb8]
    6096:	48 89 74 24 08       	mov    QWORD PTR [rsp+0x8],rsi
    609b:	0f 1f 44 00 00       	nop    DWORD PTR [rax+rax*1+0x0]
    60a0:	4c 8b 6c 24 90       	mov    r13,QWORD PTR [rsp-0x70]
    60a5:	4c 8b 54 24 98       	mov    r10,QWORD PTR [rsp-0x68]
    60aa:	4c 8b 4c 24 d8       	mov    r9,QWORD PTR [rsp-0x28]
    60af:	4c 33 54 24 10       	xor    r10,QWORD PTR [rsp+0x10]
    60b4:	4d 31 e2             	xor    r10,r12
    60b7:	48 8b 44 24 a0       	mov    rax,QWORD PTR [rsp-0x60]
    60bc:	4c 33 54 24 f0       	xor    r10,QWORD PTR [rsp-0x10]
    60c1:	4d 31 fd             	xor    r13,r15
    60c4:	48 33 44 24 b8       	xor    rax,QWORD PTR [rsp-0x48]
    60c9:	49 31 d2             	xor    r10,rdx
    60cc:	4c 8b 74 24 58       	mov    r14,QWORD PTR [rsp+0x58]
    60d1:	4c 33 6c 24 d0       	xor    r13,QWORD PTR [rsp-0x30]
    60d6:	49 31 c1             	xor    r9,rax
    60d9:	48 8b 7c 24 b0       	mov    rdi,QWORD PTR [rsp-0x50]
    60de:	4d 89 d3             	mov    r11,r10
    60e1:	4d 31 c5             	xor    r13,r8
    60e4:	49 31 c9             	xor    r9,rcx
    60e7:	4c 33 2c 24          	xor    r13,QWORD PTR [rsp]
    60eb:	4c 33 4c 24 08       	xor    r9,QWORD PTR [rsp+0x8]
    60f0:	4c 31 f7             	xor    rdi,r14
    60f3:	48 8b 74 24 a8       	mov    rsi,QWORD PTR [rsp-0x58]
    60f8:	48 33 7c 24 c8       	xor    rdi,QWORD PTR [rsp-0x38]
    60fd:	4c 89 ed             	mov    rbp,r13
    6100:	48 33 7c 24 e8       	xor    rdi,QWORD PTR [rsp-0x18]
    6105:	48 33 74 24 c0       	xor    rsi,QWORD PTR [rsp-0x40]
    610a:	49 d1 c3             	rol    r11,1
    610d:	4c 89 c8             	mov    rax,r9
    6110:	48 d1 c5             	rol    rbp,1
    6113:	48 33 7c 24 18       	xor    rdi,QWORD PTR [rsp+0x18]
    6118:	48 33 74 24 e0       	xor    rsi,QWORD PTR [rsp-0x20]
    611d:	48 d1 c0             	rol    rax,1
    6120:	48 33 74 24 f8       	xor    rsi,QWORD PTR [rsp-0x8]
    6125:	49 31 fb             	xor    r11,rdi
    6128:	48 d1 c7             	rol    rdi,1
    612b:	4c 31 e8             	xor    rax,r13
    612e:	48 31 de             	xor    rsi,rbx
    6131:	4c 31 cf             	xor    rdi,r9
    6134:	4c 8b 6c 24 88       	mov    r13,QWORD PTR [rsp-0x78]
    6139:	4d 89 f1             	mov    r9,r14
    613c:	48 31 f5             	xor    rbp,rsi
    613f:	4d 31 df             	xor    r15,r11
    6142:	48 d1 c6             	rol    rsi,1
    6145:	4c 31 d6             	xor    rsi,r10
    6148:	49 31 e9             	xor    r9,rbp
    614b:	49 c1 cf 14          	ror    r15,0x14
    614f:	4d 8b 75 00          	mov    r14,QWORD PTR [r13+0x0]
    6153:	49 31 c4             	xor    r12,rax
    6156:	4d 89 fa             	mov    r10,r15
    6159:	48 31 f1             	xor    rcx,rsi
    615c:	48 31 fb             	xor    rbx,rdi
    615f:	49 c1 cc 15          	ror    r12,0x15
    6163:	49 f7 d2             	not    r10
    6166:	4d 31 ce             	xor    r14,r9
    6169:	48 c1 c1 15          	rol    rcx,0x15
    616d:	4d 21 e2             	and    r10,r12
    6170:	48 c1 c3 0e          	rol    rbx,0xe
    6174:	4d 31 d8             	xor    r8,r11
    6177:	48 31 c2             	xor    rdx,rax
    617a:	49 c1 c8 13          	ror    r8,0x13
    617e:	4d 31 f2             	xor    r10,r14
    6181:	4d 89 e6             	mov    r14,r12
    6184:	48 c1 ca 03          	ror    rdx,0x3
    6188:	49 f7 d6             	not    r14
    618b:	4c 89 54 24 50       	mov    QWORD PTR [rsp+0x50],r10
    6190:	4d 89 f2             	mov    r10,r14
    6193:	49 89 ce             	mov    r14,rcx
    6196:	49 21 ca             	and    r10,rcx
    6199:	49 f7 d6             	not    r14
    619c:	4d 31 fa             	xor    r10,r15
    619f:	4c 89 54 24 20       	mov    QWORD PTR [rsp+0x20],r10
    61a4:	4d 89 f2             	mov    r10,r14
    61a7:	49 89 de             	mov    r14,rbx
    61aa:	49 21 da             	and    r10,rbx
    61ad:	49 f7 d6             	not    r14
    61b0:	4d 31 e2             	xor    r10,r12
    61b3:	4c 89 54 24 28       	mov    QWORD PTR [rsp+0x28],r10
    61b8:	4d 89 f2             	mov    r10,r14
    61bb:	4d 21 ca             	and    r10,r9
    61be:	49 f7 d1             	not    r9
    61c1:	4d 21 f9             	and    r9,r15
    61c4:	4d 89 d4             	mov    r12,r10
    61c7:	49 31 d9             	xor    r9,rbx
    61ca:	48 8b 5c 24 c0       	mov    rbx,QWORD PTR [rsp-0x40]
    61cf:	49 31 cc             	xor    r12,rcx
    61d2:	48 8b 4c 24 a0       	mov    rcx,QWORD PTR [rsp-0x60]
    61d7:	4c 89 4c 24 38       	mov    QWORD PTR [rsp+0x38],r9
    61dc:	48 31 fb             	xor    rbx,rdi
    61df:	48 31 f1             	xor    rcx,rsi
    61e2:	4c 89 64 24 30       	mov    QWORD PTR [rsp+0x30],r12
    61e7:	49 89 d9             	mov    r9,rbx
    61ea:	48 8b 5c 24 c8       	mov    rbx,QWORD PTR [rsp-0x38]
    61ef:	48 c1 c1 1c          	rol    rcx,0x1c
    61f3:	49 c1 c1 14          	rol    r9,0x14
    61f7:	48 31 eb             	xor    rbx,rbp
    61fa:	49 89 da             	mov    r10,rbx
    61fd:	4c 89 cb             	mov    rbx,r9
    6200:	49 c1 c2 03          	rol    r10,0x3
    6204:	48 f7 d3             	not    rbx
    6207:	4c 21 d3             	and    rbx,r10
    620a:	4d 89 d6             	mov    r14,r10
    620d:	48 31 cb             	xor    rbx,rcx
    6210:	49 f7 d6             	not    r14
    6213:	48 89 5c 24 40       	mov    QWORD PTR [rsp+0x40],rbx
    6218:	4c 89 f3             	mov    rbx,r14
    621b:	4d 89 c6             	mov    r14,r8
    621e:	4c 21 c3             	and    rbx,r8
    6221:	49 f7 d6             	not    r14
    6224:	49 89 df             	mov    r15,rbx
    6227:	4c 89 f3             	mov    rbx,r14
    622a:	49 89 d6             	mov    r14,rdx
    622d:	4d 31 cf             	xor    r15,r9
    6230:	49 f7 d6             	not    r14
    6233:	48 21 d3             	and    rbx,rdx
    6236:	4c 31 d3             	xor    rbx,r10
    6239:	4d 89 f2             	mov    r10,r14
    623c:	49 21 ca             	and    r10,rcx
    623f:	48 f7 d1             	not    rcx
    6242:	48 89 5c 24 c8       	mov    QWORD PTR [rsp-0x38],rbx
    6247:	4c 21 c9             	and    rcx,r9
    624a:	4d 89 d4             	mov    r12,r10
    624d:	4d 31 c4             	xor    r12,r8
    6250:	48 31 d1             	xor    rcx,rdx
    6253:	4c 89 64 24 48       	mov    QWORD PTR [rsp+0x48],r12
    6258:	48 89 4c 24 c0       	mov    QWORD PTR [rsp-0x40],rcx
    625d:	48 8b 4c 24 10       	mov    rcx,QWORD PTR [rsp+0x10]
    6262:	4c 8b 44 24 d8       	mov    r8,QWORD PTR [rsp-0x28]
    6267:	4c 8b 74 24 18       	mov    r14,QWORD PTR [rsp+0x18]
    626c:	48 31 c1             	xor    rcx,rax
    626f:	48 8b 54 24 90       	mov    rdx,QWORD PTR [rsp-0x70]
    6274:	48 c1 c1 06          	rol    rcx,0x6
    6278:	49 31 f0             	xor    r8,rsi
    627b:	49 31 ee             	xor    r14,rbp
    627e:	4d 89 c1             	mov    r9,r8
    6281:	49 89 cd             	mov    r13,rcx
    6284:	4c 8b 44 24 f8       	mov    r8,QWORD PTR [rsp-0x8]
    6289:	49 c1 c6 12          	rol    r14,0x12
    628d:	49 c1 c1 19          	rol    r9,0x19
    6291:	49 f7 d5             	not    r13
    6294:	4c 31 da             	xor    rdx,r11
    6297:	49 31 f8             	xor    r8,rdi
    629a:	4d 89 ea             	mov    r10,r13
    629d:	4c 89 cb             	mov    rbx,r9
    62a0:	48 d1 c2             	rol    rdx,1
    62a3:	49 c1 c0 08          	rol    r8,0x8
    62a7:	4d 21 ca             	and    r10,r9
    62aa:	48 f7 d3             	not    rbx
    62ad:	4d 89 d5             	mov    r13,r10
    62b0:	49 89 da             	mov    r10,rbx
    62b3:	4c 89 c3             	mov    rbx,r8
    62b6:	4d 21 c2             	and    r10,r8
    62b9:	48 f7 d3             	not    rbx
    62bc:	49 31 d5             	xor    r13,rdx
    62bf:	4d 89 d4             	mov    r12,r10
    62c2:	49 89 da             	mov    r10,rbx
    62c5:	4c 89 6c 24 d8       	mov    QWORD PTR [rsp-0x28],r13
    62ca:	4d 21 f2             	and    r10,r14
    62cd:	49 31 cc             	xor    r12,rcx
    62d0:	4d 31 ca             	xor    r10,r9
    62d3:	4d 89 f1             	mov    r9,r14
    62d6:	4c 89 64 24 f8       	mov    QWORD PTR [rsp-0x8],r12
    62db:	49 f7 d1             	not    r9
    62de:	49 21 d1             	and    r9,rdx
    62e1:	48 f7 d2             	not    rdx
    62e4:	4d 31 c1             	xor    r9,r8
    62e7:	4c 8b 44 24 b0       	mov    r8,QWORD PTR [rsp-0x50]
    62ec:	48 21 ca             	and    rdx,rcx
    62ef:	48 8b 4c 24 08       	mov    rcx,QWORD PTR [rsp+0x8]
    62f4:	4c 31 f2             	xor    rdx,r14
    62f7:	4c 89 4c 24 18       	mov    QWORD PTR [rsp+0x18],r9
    62fc:	49 31 e8             	xor    r8,rbp
    62ff:	49 89 d6             	mov    r14,rdx
    6302:	48 8b 54 24 a8       	mov    rdx,QWORD PTR [rsp-0x58]
    6307:	4c 89 c3             	mov    rbx,r8
    630a:	4c 8b 44 24 d0       	mov    r8,QWORD PTR [rsp-0x30]
    630f:	48 31 fa             	xor    rdx,rdi
    6312:	48 c1 cb 1c          	ror    rbx,0x1c
    6316:	4d 31 d8             	xor    r8,r11
    6319:	48 c1 c2 1b          	rol    rdx,0x1b
    631d:	4d 89 c1             	mov    r9,r8
    6320:	4c 8b 44 24 f0       	mov    r8,QWORD PTR [rsp-0x10]
    6325:	49 c1 c1 0a          	rol    r9,0xa
    6329:	49 31 c0             	xor    r8,rax
    632c:	48 31 f1             	xor    rcx,rsi
    632f:	48 33 74 24 b8       	xor    rsi,QWORD PTR [rsp-0x48]
    6334:	48 33 7c 24 e0       	xor    rdi,QWORD PTR [rsp-0x20]
    6339:	4d 89 c4             	mov    r12,r8
    633c:	49 89 d8             	mov    r8,rbx
    633f:	48 c1 c9 08          	ror    rcx,0x8
    6343:	48 33 6c 24 e8       	xor    rbp,QWORD PTR [rsp-0x18]
    6348:	49 c1 c4 0f          	rol    r12,0xf
    634c:	49 f7 d0             	not    r8
    634f:	48 c1 ce 09          	ror    rsi,0x9
    6353:	4c 33 1c 24          	xor    r11,QWORD PTR [rsp]
    6357:	4d 89 e5             	mov    r13,r12
    635a:	4d 21 c8             	and    r8,r9
    635d:	48 c1 cf 19          	ror    rdi,0x19
    6361:	48 33 44 24 98       	xor    rax,QWORD PTR [rsp-0x68]
    6366:	48 c1 cd 17          	ror    rbp,0x17
    636a:	49 f7 d5             	not    r13
    636d:	49 31 d0             	xor    r8,rdx
    6370:	49 c1 c3 02          	rol    r11,0x2
    6374:	49 21 cd             	and    r13,rcx
    6377:	4c 89 44 24 08       	mov    QWORD PTR [rsp+0x8],r8
    637c:	4d 89 c8             	mov    r8,r9
    637f:	48 c1 c8 02          	ror    rax,0x2
    6383:	4d 31 cd             	xor    r13,r9
    6386:	49 89 c9             	mov    r9,rcx
    6389:	49 f7 d0             	not    r8
    638c:	49 f7 d1             	not    r9
    638f:	4d 21 e0             	and    r8,r12
    6392:	4c 89 6c 24 e8       	mov    QWORD PTR [rsp-0x18],r13
    6397:	49 21 d1             	and    r9,rdx
    639a:	48 f7 d2             	not    rdx
    639d:	49 31 d8             	xor    r8,rbx
    63a0:	48 21 da             	and    rdx,rbx
    63a3:	4d 31 e1             	xor    r9,r12
    63a6:	48 31 ca             	xor    rdx,rcx
    63a9:	48 89 f1             	mov    rcx,rsi
    63ac:	48 f7 d1             	not    rcx
    63af:	48 89 54 24 d0       	mov    QWORD PTR [rsp-0x30],rdx
    63b4:	48 89 fa             	mov    rdx,rdi
    63b7:	48 21 f9             	and    rcx,rdi
    63ba:	48 f7 d7             	not    rdi
    63bd:	48 21 ef             	and    rdi,rbp
    63c0:	48 31 c1             	xor    rcx,rax
    63c3:	48 31 f7             	xor    rdi,rsi
    63c6:	49 89 cc             	mov    r12,rcx
    63c9:	48 8b 4c 24 50       	mov    rcx,QWORD PTR [rsp+0x50]
    63ce:	48 89 fb             	mov    rbx,rdi
    63d1:	48 89 ef             	mov    rdi,rbp
    63d4:	4c 89 64 24 e0       	mov    QWORD PTR [rsp-0x20],r12
    63d9:	48 f7 d7             	not    rdi
    63dc:	48 89 5c 24 50       	mov    QWORD PTR [rsp+0x50],rbx
    63e1:	4c 21 df             	and    rdi,r11
    63e4:	48 31 d7             	xor    rdi,rdx
    63e7:	4c 89 da             	mov    rdx,r11
    63ea:	48 f7 d2             	not    rdx
    63ed:	48 21 c2             	and    rdx,rax
    63f0:	48 f7 d0             	not    rax
    63f3:	48 31 ea             	xor    rdx,rbp
    63f6:	48 21 f0             	and    rax,rsi
    63f9:	48 8b 6c 24 28       	mov    rbp,QWORD PTR [rsp+0x28]
    63fe:	48 33 6c 24 c8       	xor    rbp,QWORD PTR [rsp-0x38]
    6403:	48 89 54 24 f0       	mov    QWORD PTR [rsp-0x10],rdx
    6408:	48 8b 54 24 40       	mov    rdx,QWORD PTR [rsp+0x40]
    640d:	4c 31 d5             	xor    rbp,r10
    6410:	4c 31 d8             	xor    rax,r11
    6413:	4c 31 ed             	xor    rbp,r13
    6416:	48 31 ca             	xor    rdx,rcx
    6419:	48 33 54 24 d8       	xor    rdx,QWORD PTR [rsp-0x28]
    641e:	48 33 54 24 08       	xor    rdx,QWORD PTR [rsp+0x8]
    6423:	48 31 fd             	xor    rbp,rdi
    6426:	4c 31 e2             	xor    rdx,r12
    6429:	4c 8b 64 24 20       	mov    r12,QWORD PTR [rsp+0x20]
    642e:	49 89 ed             	mov    r13,rbp
    6431:	49 d1 c5             	rol    r13,1
    6434:	4d 31 fc             	xor    r12,r15
    6437:	4c 33 64 24 f8       	xor    r12,QWORD PTR [rsp-0x8]
    643c:	49 31 d5             	xor    r13,rdx
    643f:	48 d1 c2             	rol    rdx,1
    6442:	4d 31 c4             	xor    r12,r8
    6445:	49 31 dc             	xor    r12,rbx
    6448:	48 8b 5c 24 30       	mov    rbx,QWORD PTR [rsp+0x30]
    644d:	4c 8b 5c 24 18       	mov    r11,QWORD PTR [rsp+0x18]
    6452:	4c 89 34 24          	mov    QWORD PTR [rsp],r14
    6456:	48 33 5c 24 48       	xor    rbx,QWORD PTR [rsp+0x48]
    645b:	48 8b 74 24 c0       	mov    rsi,QWORD PTR [rsp-0x40]
    6460:	49 31 db             	xor    r11,rbx
    6463:	4d 31 cb             	xor    r11,r9
    6466:	4c 31 f6             	xor    rsi,r14
    6469:	4c 33 5c 24 f0       	xor    r11,QWORD PTR [rsp-0x10]
    646e:	48 33 74 24 38       	xor    rsi,QWORD PTR [rsp+0x38]
    6473:	4d 89 e6             	mov    r14,r12
    6476:	48 33 74 24 d0       	xor    rsi,QWORD PTR [rsp-0x30]
    647b:	4c 89 db             	mov    rbx,r11
    647e:	4c 31 da             	xor    rdx,r11
    6481:	49 d1 c6             	rol    r14,1
    6484:	48 31 c6             	xor    rsi,rax
    6487:	48 d1 c3             	rol    rbx,1
    648a:	49 89 cb             	mov    r11,rcx
    648d:	49 31 f6             	xor    r14,rsi
    6490:	48 d1 c6             	rol    rsi,1
    6493:	4c 31 e3             	xor    rbx,r12
    6496:	48 31 ee             	xor    rsi,rbp
    6499:	4d 31 f3             	xor    r11,r14
    649c:	4d 31 ef             	xor    r15,r13
    649f:	49 31 da             	xor    r10,rbx
    64a2:	4c 89 fd             	mov    rbp,r15
    64a5:	49 c1 ca 15          	ror    r10,0x15
    64a9:	49 31 f1             	xor    r9,rsi
    64ac:	48 31 d0             	xor    rax,rdx
    64af:	48 c1 cd 14          	ror    rbp,0x14
    64b3:	49 c1 c1 15          	rol    r9,0x15
    64b7:	4d 31 e8             	xor    r8,r13
    64ba:	48 31 df             	xor    rdi,rbx
    64bd:	48 c1 c0 0e          	rol    rax,0xe
    64c1:	49 89 ef             	mov    r15,rbp
    64c4:	49 c1 c8 13          	ror    r8,0x13
    64c8:	49 f7 d7             	not    r15
    64cb:	48 c1 cf 03          	ror    rdi,0x3
    64cf:	4d 89 fc             	mov    r12,r15
    64d2:	4c 8b 7c 24 88       	mov    r15,QWORD PTR [rsp-0x78]
    64d7:	4d 21 d4             	and    r12,r10
    64da:	49 8b 4f 08          	mov    rcx,QWORD PTR [r15+0x8]
    64de:	4c 31 d9             	xor    rcx,r11
    64e1:	49 31 cc             	xor    r12,rcx
    64e4:	48 89 c1             	mov    rcx,rax
    64e7:	4c 89 64 24 58       	mov    QWORD PTR [rsp+0x58],r12
    64ec:	4d 89 d4             	mov    r12,r10
    64ef:	48 f7 d1             	not    rcx
    64f2:	49 f7 d4             	not    r12
    64f5:	4d 21 cc             	and    r12,r9
    64f8:	49 31 ec             	xor    r12,rbp
    64fb:	4c 89 64 24 90       	mov    QWORD PTR [rsp-0x70],r12
    6500:	4d 89 cc             	mov    r12,r9
    6503:	49 f7 d4             	not    r12
    6506:	49 21 c4             	and    r12,rax
    6509:	4d 31 d4             	xor    r12,r10
    650c:	49 89 ca             	mov    r10,rcx
    650f:	4d 21 da             	and    r10,r11
    6512:	49 f7 d3             	not    r11
    6515:	4c 89 64 24 98       	mov    QWORD PTR [rsp-0x68],r12
    651a:	4c 89 d1             	mov    rcx,r10
    651d:	49 21 eb             	and    r11,rbp
    6520:	4c 8b 54 24 d8       	mov    r10,QWORD PTR [rsp-0x28]
    6525:	4c 31 c9             	xor    rcx,r9
    6528:	49 31 c3             	xor    r11,rax
    652b:	4c 8b 4c 24 c0       	mov    r9,QWORD PTR [rsp-0x40]
    6530:	4c 89 5c 24 a8       	mov    QWORD PTR [rsp-0x58],r11
    6535:	4c 8b 5c 24 30       	mov    r11,QWORD PTR [rsp+0x30]
    653a:	4d 31 f2             	xor    r10,r14
    653d:	49 31 d1             	xor    r9,rdx
    6540:	49 c1 c2 03          	rol    r10,0x3
    6544:	48 89 4c 24 a0       	mov    QWORD PTR [rsp-0x60],rcx
    6549:	48 8b 4c 24 e0       	mov    rcx,QWORD PTR [rsp-0x20]
    654e:	49 c1 c1 14          	rol    r9,0x14
    6552:	49 31 f3             	xor    r11,rsi
    6555:	4d 89 d7             	mov    r15,r10
    6558:	4c 89 d8             	mov    rax,r11
    655b:	4d 89 cb             	mov    r11,r9
    655e:	49 f7 d7             	not    r15
    6561:	49 f7 d3             	not    r11
    6564:	48 c1 c0 1c          	rol    rax,0x1c
    6568:	4d 21 d3             	and    r11,r10
    656b:	49 31 c3             	xor    r11,rax
    656e:	4d 21 c7             	and    r15,r8
    6571:	4c 31 f1             	xor    rcx,r14
    6574:	4c 89 5c 24 b0       	mov    QWORD PTR [rsp-0x50],r11
    6579:	4d 89 c3             	mov    r11,r8
    657c:	4d 31 cf             	xor    r15,r9
    657f:	48 c1 c1 12          	rol    rcx,0x12
    6583:	49 f7 d3             	not    r11
    6586:	49 21 fb             	and    r11,rdi
    6589:	4d 31 d3             	xor    r11,r10
    658c:	4c 89 5c 24 10       	mov    QWORD PTR [rsp+0x10],r11
    6591:	49 89 fb             	mov    r11,rdi
    6594:	49 f7 d3             	not    r11
    6597:	4d 89 da             	mov    r10,r11
    659a:	49 21 c2             	and    r10,rax
    659d:	48 f7 d0             	not    rax
    65a0:	4d 89 d3             	mov    r11,r10
    65a3:	4c 21 c8             	and    rax,r9
    65a6:	4d 31 c3             	xor    r11,r8
    65a9:	4c 8b 44 24 18       	mov    r8,QWORD PTR [rsp+0x18]
    65ae:	4c 89 5c 24 b8       	mov    QWORD PTR [rsp-0x48],r11
    65b3:	49 89 c3             	mov    r11,rax
    65b6:	48 8b 44 24 20       	mov    rax,QWORD PTR [rsp+0x20]
    65bb:	49 31 fb             	xor    r11,rdi
    65be:	48 8b 7c 24 c8       	mov    rdi,QWORD PTR [rsp-0x38]
    65c3:	49 31 f0             	xor    r8,rsi
    65c6:	4c 89 5c 24 c0       	mov    QWORD PTR [rsp-0x40],r11
    65cb:	4d 89 c1             	mov    r9,r8
    65ce:	4c 31 e8             	xor    rax,r13
    65d1:	4c 8b 44 24 d0       	mov    r8,QWORD PTR [rsp-0x30]
    65d6:	49 c1 c1 19          	rol    r9,0x19
    65da:	48 31 df             	xor    rdi,rbx
    65dd:	48 d1 c0             	rol    rax,1
    65e0:	48 c1 c7 06          	rol    rdi,0x6
    65e4:	49 31 d0             	xor    r8,rdx
    65e7:	49 89 fb             	mov    r11,rdi
    65ea:	49 c1 c0 08          	rol    r8,0x8
    65ee:	49 f7 d3             	not    r11
    65f1:	4d 89 c4             	mov    r12,r8
    65f4:	4d 89 da             	mov    r10,r11
    65f7:	49 f7 d4             	not    r12
    65fa:	4d 21 ca             	and    r10,r9
    65fd:	49 21 cc             	and    r12,rcx
    6600:	4d 89 d3             	mov    r11,r10
    6603:	4d 31 cc             	xor    r12,r9
    6606:	49 31 c3             	xor    r11,rax
    6609:	4c 89 5c 24 c8       	mov    QWORD PTR [rsp-0x38],r11
    660e:	4d 89 cb             	mov    r11,r9
    6611:	49 f7 d3             	not    r11
    6614:	4d 89 da             	mov    r10,r11
    6617:	4d 21 c2             	and    r10,r8
    661a:	4d 89 d3             	mov    r11,r10
    661d:	49 31 fb             	xor    r11,rdi
    6620:	4c 89 5c 24 d0       	mov    QWORD PTR [rsp-0x30],r11
    6625:	49 89 cb             	mov    r11,rcx
    6628:	49 f7 d3             	not    r11
    662b:	4d 89 d9             	mov    r9,r11
    662e:	49 21 c1             	and    r9,rax
    6631:	48 f7 d0             	not    rax
    6634:	4d 89 cb             	mov    r11,r9
    6637:	4c 8b 4c 24 38       	mov    r9,QWORD PTR [rsp+0x38]
    663c:	48 21 f8             	and    rax,rdi
    663f:	4d 31 c3             	xor    r11,r8
    6642:	48 31 c8             	xor    rax,rcx
    6645:	49 31 d1             	xor    r9,rdx
    6648:	4c 89 5c 24 d8       	mov    QWORD PTR [rsp-0x28],r11
    664d:	48 89 44 24 e0       	mov    QWORD PTR [rsp-0x20],rax
    6652:	4c 89 c8             	mov    rax,r9
    6655:	4c 8b 4c 24 40       	mov    r9,QWORD PTR [rsp+0x40]
    665a:	48 8b 4c 24 f8       	mov    rcx,QWORD PTR [rsp-0x8]
    665f:	4c 8b 54 24 e8       	mov    r10,QWORD PTR [rsp-0x18]
    6664:	48 c1 c0 1b          	rol    rax,0x1b
    6668:	4d 31 f1             	xor    r9,r14
    666b:	48 8b 7c 24 f0       	mov    rdi,QWORD PTR [rsp-0x10]
    6670:	49 c1 c9 1c          	ror    r9,0x1c
    6674:	4c 31 e9             	xor    rcx,r13
    6677:	49 31 da             	xor    r10,rbx
    667a:	49 c1 c2 0f          	rol    r10,0xf
    667e:	4d 89 c8             	mov    r8,r9
    6681:	48 c1 c1 0a          	rol    rcx,0xa
    6685:	48 31 f7             	xor    rdi,rsi
    6688:	49 f7 d0             	not    r8
    668b:	4d 89 d3             	mov    r11,r10
    668e:	48 c1 cf 08          	ror    rdi,0x8
    6692:	48 33 74 24 48       	xor    rsi,QWORD PTR [rsp+0x48]
    6697:	49 21 c8             	and    r8,rcx
    669a:	49 f7 d3             	not    r11
    669d:	48 c1 ce 09          	ror    rsi,0x9
    66a1:	49 31 c0             	xor    r8,rax
    66a4:	49 21 fb             	and    r11,rdi
    66a7:	49 31 cb             	xor    r11,rcx
    66aa:	4c 89 44 24 e8       	mov    QWORD PTR [rsp-0x18],r8
    66af:	49 89 c8             	mov    r8,rcx
    66b2:	48 89 f9             	mov    rcx,rdi
    66b5:	49 f7 d0             	not    r8
    66b8:	48 f7 d1             	not    rcx
    66bb:	4c 89 5c 24 f0       	mov    QWORD PTR [rsp-0x10],r11
    66c0:	48 21 c1             	and    rcx,rax
    66c3:	4d 21 d0             	and    r8,r10
    66c6:	48 f7 d0             	not    rax
    66c9:	4c 21 c8             	and    rax,r9
    66cc:	4d 31 c8             	xor    r8,r9
    66cf:	4c 8b 0c 24          	mov    r9,QWORD PTR [rsp]
    66d3:	4c 31 d1             	xor    rcx,r10
    66d6:	48 31 f8             	xor    rax,rdi
    66d9:	48 8b 7c 24 08       	mov    rdi,QWORD PTR [rsp+0x8]
    66de:	49 31 d1             	xor    r9,rdx
    66e1:	48 89 44 24 f8       	mov    QWORD PTR [rsp-0x8],rax
    66e6:	48 8b 44 24 28       	mov    rax,QWORD PTR [rsp+0x28]
    66eb:	49 c1 c9 19          	ror    r9,0x19
    66ef:	4c 31 f7             	xor    rdi,r14
    66f2:	49 89 f6             	mov    r14,rsi
    66f5:	4c 89 ca             	mov    rdx,r9
    66f8:	48 c1 cf 17          	ror    rdi,0x17
    66fc:	48 31 d8             	xor    rax,rbx
    66ff:	48 8b 5c 24 50       	mov    rbx,QWORD PTR [rsp+0x50]
    6704:	48 f7 d2             	not    rdx
    6707:	49 f7 d6             	not    r14
    670a:	48 c1 c8 02          	ror    rax,0x2
    670e:	48 21 fa             	and    rdx,rdi
    6711:	4c 31 eb             	xor    rbx,r13
    6714:	4d 21 ce             	and    r14,r9
    6717:	48 31 f2             	xor    rdx,rsi
    671a:	48 c1 c3 02          	rol    rbx,0x2
    671e:	49 31 c6             	xor    r14,rax
    6721:	48 89 14 24          	mov    QWORD PTR [rsp],rdx
    6725:	48 89 fa             	mov    rdx,rdi
    6728:	48 f7 d2             	not    rdx
    672b:	4c 89 74 24 18       	mov    QWORD PTR [rsp+0x18],r14
    6730:	48 21 da             	and    rdx,rbx
    6733:	4c 31 ca             	xor    rdx,r9
    6736:	49 89 d9             	mov    r9,rbx
    6739:	49 f7 d1             	not    r9
    673c:	49 21 c1             	and    r9,rax
    673f:	48 f7 d0             	not    rax
    6742:	48 83 44 24 88 10    	add    QWORD PTR [rsp-0x78],0x10
    6748:	4c 8b 6c 24 88       	mov    r13,QWORD PTR [rsp-0x78]
    674d:	48 21 f0             	and    rax,rsi
    6750:	49 31 f9             	xor    r9,rdi
    6753:	48 31 c3             	xor    rbx,rax
    6756:	48 8d 05 03 4c 00 00 	lea    rax,[rip+0x4c03]        # b360 <KeccakF_RoundConstants+0xc0>
    675d:	4c 89 4c 24 08       	mov    QWORD PTR [rsp+0x8],r9
    6762:	4c 39 e8             	cmp    rax,r13
    6765:	0f 85 35 f9 ff ff    	jne    60a0 <KeccakF1600_StatePermute+0x100>
    676b:	48 8b 44 24 60       	mov    rax,QWORD PTR [rsp+0x60]
    6770:	48 8b 74 24 58       	mov    rsi,QWORD PTR [rsp+0x58]
    6775:	4c 8b 6c 24 10       	mov    r13,QWORD PTR [rsp+0x10]
    677a:	48 89 30             	mov    QWORD PTR [rax],rsi
    677d:	48 8b 74 24 90       	mov    rsi,QWORD PTR [rsp-0x70]
    6782:	4c 89 78 30          	mov    QWORD PTR [rax+0x30],r15
    6786:	48 89 70 08          	mov    QWORD PTR [rax+0x8],rsi
    678a:	48 8b 74 24 98       	mov    rsi,QWORD PTR [rsp-0x68]
    678f:	4c 89 68 38          	mov    QWORD PTR [rax+0x38],r13
    6793:	48 89 70 10          	mov    QWORD PTR [rax+0x10],rsi
    6797:	48 8b 74 24 a0       	mov    rsi,QWORD PTR [rsp-0x60]
    679c:	4c 89 60 60          	mov    QWORD PTR [rax+0x60],r12
    67a0:	48 89 70 18          	mov    QWORD PTR [rax+0x18],rsi
    67a4:	48 8b 74 24 a8       	mov    rsi,QWORD PTR [rsp-0x58]
    67a9:	4c 89 80 80 00 00 00 	mov    QWORD PTR [rax+0x80],r8
    67b0:	48 89 70 20          	mov    QWORD PTR [rax+0x20],rsi
    67b4:	48 8b 74 24 b0       	mov    rsi,QWORD PTR [rsp-0x50]
    67b9:	48 89 70 28          	mov    QWORD PTR [rax+0x28],rsi
    67bd:	48 8b 74 24 b8       	mov    rsi,QWORD PTR [rsp-0x48]
    67c2:	48 89 70 40          	mov    QWORD PTR [rax+0x40],rsi
    67c6:	48 8b 74 24 c0       	mov    rsi,QWORD PTR [rsp-0x40]
    67cb:	48 89 70 48          	mov    QWORD PTR [rax+0x48],rsi
    67cf:	48 8b 74 24 c8       	mov    rsi,QWORD PTR [rsp-0x38]
    67d4:	48 89 70 50          	mov    QWORD PTR [rax+0x50],rsi
    67d8:	48 8b 74 24 d0       	mov    rsi,QWORD PTR [rsp-0x30]
    67dd:	48 89 70 58          	mov    QWORD PTR [rax+0x58],rsi
    67e1:	48 8b 74 24 d8       	mov    rsi,QWORD PTR [rsp-0x28]
    67e6:	48 89 70 68          	mov    QWORD PTR [rax+0x68],rsi
    67ea:	48 8b 74 24 e0       	mov    rsi,QWORD PTR [rsp-0x20]
    67ef:	48 89 70 70          	mov    QWORD PTR [rax+0x70],rsi
    67f3:	48 8b 74 24 e8       	mov    rsi,QWORD PTR [rsp-0x18]
    67f8:	48 89 70 78          	mov    QWORD PTR [rax+0x78],rsi
    67fc:	4c 89 98 88 00 00 00 	mov    QWORD PTR [rax+0x88],r11
    6803:	48 8b 74 24 f8       	mov    rsi,QWORD PTR [rsp-0x8]
    6808:	48 89 88 90 00 00 00 	mov    QWORD PTR [rax+0x90],rcx
    680f:	48 89 b0 98 00 00 00 	mov    QWORD PTR [rax+0x98],rsi
    6816:	48 8b 34 24          	mov    rsi,QWORD PTR [rsp]
    681a:	4c 89 b0 a0 00 00 00 	mov    QWORD PTR [rax+0xa0],r14
    6821:	48 89 b0 a8 00 00 00 	mov    QWORD PTR [rax+0xa8],rsi
    6828:	48 89 90 b0 00 00 00 	mov    QWORD PTR [rax+0xb0],rdx
    682f:	4c 89 88 b8 00 00 00 	mov    QWORD PTR [rax+0xb8],r9
    6836:	48 89 98 c0 00 00 00 	mov    QWORD PTR [rax+0xc0],rbx
    683d:	48 83 c4 68          	add    rsp,0x68
    6841:	5b                   	pop    rbx
    6842:	5d                   	pop    rbp
    6843:	41 5c                	pop    r12
    6845:	41 5d                	pop    r13
    6847:	41 5e                	pop    r14
    6849:	41 5f                	pop    r15
    684b:	c3                   	ret    
    684c:	0f 1f 40 00          	nop    DWORD PTR [rax+0x0]

0000000000006850 <keccak_absorb_once.constprop.1>:
    6850:	41 55                	push   r13
    6852:	49 89 cd             	mov    r13,rcx
    6855:	31 c0                	xor    eax,eax
    6857:	41 54                	push   r12
    6859:	45 89 c4             	mov    r12d,r8d
    685c:	55                   	push   rbp
    685d:	48 89 fd             	mov    rbp,rdi
    6860:	48 83 c7 08          	add    rdi,0x8
    6864:	53                   	push   rbx
    6865:	48 89 e9             	mov    rcx,rbp
    6868:	48 89 d3             	mov    rbx,rdx
    686b:	48 81 ec a8 00 00 00 	sub    rsp,0xa8
    6872:	48 c7 47 f8 00 00 00 	mov    QWORD PTR [rdi-0x8],0x0
    6879:	00 
    687a:	48 c7 87 b8 00 00 00 	mov    QWORD PTR [rdi+0xb8],0x0
    6881:	00 00 00 00 
    6885:	48 83 e7 f8          	and    rdi,0xfffffffffffffff8
    6889:	48 29 f9             	sub    rcx,rdi
    688c:	81 c1 c8 00 00 00    	add    ecx,0xc8
    6892:	c1 e9 03             	shr    ecx,0x3
    6895:	f3 48 ab             	rep stos QWORD PTR es:[rdi],rax
    6898:	49 81 fd 87 00 00 00 	cmp    r13,0x87
    689f:	0f 86 81 08 00 00    	jbe    7126 <keccak_absorb_once.constprop.1+0x8d6>
    68a5:	66 44 0f 6f 35 92 47 	movdqa xmm14,XMMWORD PTR [rip+0x4792]        # b040 <_IO_stdin_used+0x40>
    68ac:	00 00 
    68ae:	e9 e5 07 00 00       	jmp    7098 <keccak_absorb_once.constprop.1+0x848>
    68b3:	0f 1f 44 00 00       	nop    DWORD PTR [rax+rax*1+0x0]
    68b8:	f3 44 0f 6f 03       	movdqu xmm8,XMMWORD PTR [rbx]
    68bd:	f3 0f 6f 43 10       	movdqu xmm0,XMMWORD PTR [rbx+0x10]
    68c2:	66 45 0f 6f ce       	movdqa xmm9,xmm14
    68c7:	48 81 c3 88 00 00 00 	add    rbx,0x88
    68ce:	f3 0f 6f ab 78 ff ff 	movdqu xmm5,XMMWORD PTR [rbx-0x88]
    68d5:	ff 
    68d6:	f3 0f 6f 7b 98       	movdqu xmm7,XMMWORD PTR [rbx-0x68]
    68db:	66 41 0f db c6       	pand   xmm0,xmm14
    68e0:	66 45 0f db c6       	pand   xmm8,xmm14
    68e5:	f3 0f 6f 63 98       	movdqu xmm4,XMMWORD PTR [rbx-0x68]
    68ea:	f3 0f 6f 73 b8       	movdqu xmm6,XMMWORD PTR [rbx-0x48]
    68ef:	66 44 0f 67 c0       	packuswb xmm8,xmm0
    68f4:	f3 0f 6f 43 88       	movdqu xmm0,XMMWORD PTR [rbx-0x78]
    68f9:	66 0f 71 d5 08       	psrlw  xmm5,0x8
    68fe:	66 41 0f db fe       	pand   xmm7,xmm14
    6903:	66 0f 71 d4 08       	psrlw  xmm4,0x8
    6908:	66 41 0f db f6       	pand   xmm6,xmm14
    690d:	f3 0f 6f 4b c8       	movdqu xmm1,XMMWORD PTR [rbx-0x38]
    6912:	f3 0f 6f 53 e8       	movdqu xmm2,XMMWORD PTR [rbx-0x18]
    6917:	66 0f 71 d0 08       	psrlw  xmm0,0x8
    691c:	f3 0f 6f 5b d8       	movdqu xmm3,XMMWORD PTR [rbx-0x28]
    6921:	66 0f 67 e8          	packuswb xmm5,xmm0
    6925:	f3 0f 6f 43 a8       	movdqu xmm0,XMMWORD PTR [rbx-0x58]
    692a:	66 0f 71 d1 08       	psrlw  xmm1,0x8
    692f:	66 41 0f db d6       	pand   xmm2,xmm14
    6934:	66 0f 71 d3 08       	psrlw  xmm3,0x8
    6939:	66 41 0f db c6       	pand   xmm0,xmm14
    693e:	66 0f 67 f8          	packuswb xmm7,xmm0
    6942:	f3 0f 6f 43 a8       	movdqu xmm0,XMMWORD PTR [rbx-0x58]
    6947:	66 44 0f db cf       	pand   xmm9,xmm7
    694c:	66 0f 71 d7 08       	psrlw  xmm7,0x8
    6951:	66 0f 71 d0 08       	psrlw  xmm0,0x8
    6956:	66 0f 67 e0          	packuswb xmm4,xmm0
    695a:	f3 0f 6f 43 c8       	movdqu xmm0,XMMWORD PTR [rbx-0x38]
    695f:	66 41 0f db c6       	pand   xmm0,xmm14
    6964:	66 0f 67 f0          	packuswb xmm6,xmm0
    6968:	f3 0f 6f 43 b8       	movdqu xmm0,XMMWORD PTR [rbx-0x48]
    696d:	66 0f 71 d0 08       	psrlw  xmm0,0x8
    6972:	66 0f 67 c1          	packuswb xmm0,xmm1
    6976:	f3 0f 6f 4b d8       	movdqu xmm1,XMMWORD PTR [rbx-0x28]
    697b:	66 41 0f db ce       	pand   xmm1,xmm14
    6980:	66 0f 67 ca          	packuswb xmm1,xmm2
    6984:	f3 0f 6f 53 e8       	movdqu xmm2,XMMWORD PTR [rbx-0x18]
    6989:	66 0f 71 d2 08       	psrlw  xmm2,0x8
    698e:	66 0f 67 da          	packuswb xmm3,xmm2
    6992:	66 41 0f 6f d6       	movdqa xmm2,xmm14
    6997:	66 41 0f db d0       	pand   xmm2,xmm8
    699c:	66 41 0f 71 d0 08    	psrlw  xmm8,0x8
    69a2:	66 45 0f 6f d0       	movdqa xmm10,xmm8
    69a7:	66 45 0f 6f c6       	movdqa xmm8,xmm14
    69ac:	66 41 0f 67 d1       	packuswb xmm2,xmm9
    69b1:	66 44 0f 67 d7       	packuswb xmm10,xmm7
    69b6:	66 41 0f 6f fe       	movdqa xmm7,xmm14
    69bb:	66 44 0f db c1       	pand   xmm8,xmm1
    69c0:	66 0f db fe          	pand   xmm7,xmm6
    69c4:	66 0f 71 d6 08       	psrlw  xmm6,0x8
    69c9:	66 0f 71 d1 08       	psrlw  xmm1,0x8
    69ce:	66 44 0f 6f de       	movdqa xmm11,xmm6
    69d3:	66 41 0f 6f f6       	movdqa xmm6,xmm14
    69d8:	66 44 0f 67 d9       	packuswb xmm11,xmm1
    69dd:	66 41 0f 6f ce       	movdqa xmm1,xmm14
    69e2:	66 0f db f4          	pand   xmm6,xmm4
    69e6:	66 0f db cd          	pand   xmm1,xmm5
    69ea:	66 0f 71 d5 08       	psrlw  xmm5,0x8
    69ef:	66 41 0f 67 f8       	packuswb xmm7,xmm8
    69f4:	66 0f 71 d4 08       	psrlw  xmm4,0x8
    69f9:	66 44 0f 6f cd       	movdqa xmm9,xmm5
    69fe:	66 41 0f 6f ee       	movdqa xmm5,xmm14
    6a03:	66 44 0f 67 cc       	packuswb xmm9,xmm4
    6a08:	66 41 0f 6f e6       	movdqa xmm4,xmm14
    6a0d:	66 0f db eb          	pand   xmm5,xmm3
    6a11:	66 0f db e0          	pand   xmm4,xmm0
    6a15:	66 0f 71 d3 08       	psrlw  xmm3,0x8
    6a1a:	66 45 0f 6f c6       	movdqa xmm8,xmm14
    6a1f:	66 0f 71 d0 08       	psrlw  xmm0,0x8
    6a24:	66 44 0f db c2       	pand   xmm8,xmm2
    6a29:	66 0f 67 ce          	packuswb xmm1,xmm6
    6a2d:	66 0f 67 c3          	packuswb xmm0,xmm3
    6a31:	66 41 0f 6f de       	movdqa xmm3,xmm14
    6a36:	66 0f 67 e5          	packuswb xmm4,xmm5
    6a3a:	66 0f db df          	pand   xmm3,xmm7
    6a3e:	66 0f 71 d2 08       	psrlw  xmm2,0x8
    6a43:	66 41 0f 6f f6       	movdqa xmm6,xmm14
    6a48:	66 0f 71 d7 08       	psrlw  xmm7,0x8
    6a4d:	66 44 0f 67 c3       	packuswb xmm8,xmm3
    6a52:	66 41 0f 6f de       	movdqa xmm3,xmm14
    6a57:	66 0f 67 d7          	packuswb xmm2,xmm7
    6a5b:	66 41 0f 6f fe       	movdqa xmm7,xmm14
    6a60:	66 0f db dc          	pand   xmm3,xmm4
    6a64:	66 0f db f9          	pand   xmm7,xmm1
    6a68:	66 41 0f db f2       	pand   xmm6,xmm10
    6a6d:	66 41 0f 6f ee       	movdqa xmm5,xmm14
    6a72:	66 0f 67 fb          	packuswb xmm7,xmm3
    6a76:	66 41 0f 6f de       	movdqa xmm3,xmm14
    6a7b:	66 41 0f db e9       	pand   xmm5,xmm9
    6a80:	66 41 0f db db       	pand   xmm3,xmm11
    6a85:	66 0f 71 d4 08       	psrlw  xmm4,0x8
    6a8a:	66 45 0f 6f e8       	movdqa xmm13,xmm8
    6a8f:	66 0f 71 d1 08       	psrlw  xmm1,0x8
    6a94:	66 41 0f 71 d2 08    	psrlw  xmm10,0x8
    6a9a:	66 0f 67 f3          	packuswb xmm6,xmm3
    6a9e:	66 41 0f 6f de       	movdqa xmm3,xmm14
    6aa3:	66 0f 67 cc          	packuswb xmm1,xmm4
    6aa7:	66 0f 6f e6          	movdqa xmm4,xmm6
    6aab:	66 0f db d8          	pand   xmm3,xmm0
    6aaf:	66 41 0f 71 d1 08    	psrlw  xmm9,0x8
    6ab5:	66 45 0f 6f e2       	movdqa xmm12,xmm10
    6aba:	66 0f 67 eb          	packuswb xmm5,xmm3
    6abe:	66 0f ef db          	pxor   xmm3,xmm3
    6ac2:	66 45 0f 6f f9       	movdqa xmm15,xmm9
    6ac7:	66 0f 60 e3          	punpcklbw xmm4,xmm3
    6acb:	66 41 0f 71 d3 08    	psrlw  xmm11,0x8
    6ad1:	66 44 0f 6f d7       	movdqa xmm10,xmm7
    6ad6:	66 0f 71 d0 08       	psrlw  xmm0,0x8
    6adb:	66 45 0f 67 e3       	packuswb xmm12,xmm11
    6ae0:	66 44 0f 60 d3       	punpcklbw xmm10,xmm3
    6ae5:	66 44 0f 67 f8       	packuswb xmm15,xmm0
    6aea:	66 44 0f 6f dc       	movdqa xmm11,xmm4
    6aef:	66 0f ef c0          	pxor   xmm0,xmm0
    6af3:	44 0f 29 64 24 30    	movaps XMMWORD PTR [rsp+0x30],xmm12
    6af9:	66 44 0f 61 d8       	punpcklwd xmm11,xmm0
    6afe:	66 41 0f 71 f2 08    	psllw  xmm10,0x8
    6b04:	66 44 0f 6f cd       	movdqa xmm9,xmm5
    6b09:	66 45 0f 6f e3       	movdqa xmm12,xmm11
    6b0e:	66 45 0f 6f da       	movdqa xmm11,xmm10
    6b13:	66 44 0f 60 cb       	punpcklbw xmm9,xmm3
    6b18:	66 44 0f 61 d8       	punpcklwd xmm11,xmm0
    6b1d:	66 41 0f 72 f4 10    	pslld  xmm12,0x10
    6b23:	66 44 0f 60 eb       	punpcklbw xmm13,xmm3
    6b28:	66 45 0f eb e3       	por    xmm12,xmm11
    6b2d:	66 45 0f 6f d9       	movdqa xmm11,xmm9
    6b32:	66 44 0f 69 c8       	punpckhwd xmm9,xmm0
    6b37:	66 44 0f 61 d8       	punpcklwd xmm11,xmm0
    6b3c:	66 0f 68 f3          	punpckhbw xmm6,xmm3
    6b40:	66 0f 68 fb          	punpckhbw xmm7,xmm3
    6b44:	66 41 0f 72 f3 18    	pslld  xmm11,0x18
    6b4a:	66 0f 69 e0          	punpckhwd xmm4,xmm0
    6b4e:	66 44 0f 69 d0       	punpckhwd xmm10,xmm0
    6b53:	44 0f 29 1c 24       	movaps XMMWORD PTR [rsp],xmm11
    6b58:	66 41 0f 72 f1 18    	pslld  xmm9,0x18
    6b5e:	66 45 0f 6f dd       	movdqa xmm11,xmm13
    6b63:	66 44 0f 69 e8       	punpckhwd xmm13,xmm0
    6b68:	66 45 0f eb e9       	por    xmm13,xmm9
    6b6d:	66 0f 71 f7 08       	psllw  xmm7,0x8
    6b72:	66 44 0f 6f ce       	movdqa xmm9,xmm6
    6b77:	66 0f 72 f4 10       	pslld  xmm4,0x10
    6b7c:	66 44 0f 61 c8       	punpcklwd xmm9,xmm0
    6b81:	66 0f 68 eb          	punpckhbw xmm5,xmm3
    6b85:	66 41 0f eb e2       	por    xmm4,xmm10
    6b8a:	66 44 0f 6f d7       	movdqa xmm10,xmm7
    6b8f:	66 44 0f 61 d8       	punpcklwd xmm11,xmm0
    6b94:	66 44 0f 61 d0       	punpcklwd xmm10,xmm0
    6b99:	66 44 0f eb 1c 24    	por    xmm11,XMMWORD PTR [rsp]
    6b9f:	66 44 0f 68 c3       	punpckhbw xmm8,xmm3
    6ba4:	66 41 0f 72 f1 10    	pslld  xmm9,0x10
    6baa:	66 0f 69 f0          	punpckhwd xmm6,xmm0
    6bae:	66 0f 69 f8          	punpckhwd xmm7,xmm0
    6bb2:	66 45 0f eb ca       	por    xmm9,xmm10
    6bb7:	66 44 0f 6f d5       	movdqa xmm10,xmm5
    6bbc:	66 0f 69 e8          	punpckhwd xmm5,xmm0
    6bc0:	66 45 0f eb e3       	por    xmm12,xmm11
    6bc5:	66 0f 72 f5 18       	pslld  xmm5,0x18
    6bca:	66 45 0f 6f d8       	movdqa xmm11,xmm8
    6bcf:	66 0f 72 f6 10       	pslld  xmm6,0x10
    6bd4:	66 44 0f 69 c0       	punpckhwd xmm8,xmm0
    6bd9:	44 0f 29 24 24       	movaps XMMWORD PTR [rsp],xmm12
    6bde:	66 44 0f 6f 64 24 30 	movdqa xmm12,XMMWORD PTR [rsp+0x30]
    6be5:	66 44 0f eb c5       	por    xmm8,xmm5
    6bea:	66 0f eb f7          	por    xmm6,xmm7
    6bee:	66 44 0f 61 d0       	punpcklwd xmm10,xmm0
    6bf3:	66 41 0f eb f0       	por    xmm6,xmm8
    6bf8:	66 44 0f 6f c2       	movdqa xmm8,xmm2
    6bfd:	66 44 0f 61 d8       	punpcklwd xmm11,xmm0
    6c02:	66 44 0f 60 c3       	punpcklbw xmm8,xmm3
    6c07:	66 41 0f 72 f2 18    	pslld  xmm10,0x18
    6c0d:	66 41 0f eb e5       	por    xmm4,xmm13
    6c12:	0f 29 74 24 40       	movaps XMMWORD PTR [rsp+0x40],xmm6
    6c17:	66 41 0f 6f e8       	movdqa xmm5,xmm8
    6c1c:	66 45 0f eb d3       	por    xmm10,xmm11
    6c21:	66 0f 6f f9          	movdqa xmm7,xmm1
    6c25:	66 0f 61 e8          	punpcklwd xmm5,xmm0
    6c29:	66 0f 68 d3          	punpckhbw xmm2,xmm3
    6c2d:	66 0f 60 fb          	punpcklbw xmm7,xmm3
    6c31:	0f 29 6c 24 10       	movaps XMMWORD PTR [rsp+0x10],xmm5
    6c36:	66 41 0f 6f ec       	movdqa xmm5,xmm12
    6c3b:	66 0f 68 cb          	punpckhbw xmm1,xmm3
    6c3f:	66 0f 6f f2          	movdqa xmm6,xmm2
    6c43:	66 44 0f 68 e3       	punpckhbw xmm12,xmm3
    6c48:	66 0f 60 eb          	punpcklbw xmm5,xmm3
    6c4c:	66 45 0f eb ca       	por    xmm9,xmm10
    6c51:	66 45 0f 6f dc       	movdqa xmm11,xmm12
    6c56:	66 44 0f 6f ed       	movdqa xmm13,xmm5
    6c5b:	66 44 0f 61 e0       	punpcklwd xmm12,xmm0
    6c60:	66 44 0f 69 d8       	punpckhwd xmm11,xmm0
    6c65:	66 44 0f 61 e8       	punpcklwd xmm13,xmm0
    6c6a:	66 44 0f 6f d7       	movdqa xmm10,xmm7
    6c6f:	44 0f 29 64 24 60    	movaps XMMWORD PTR [rsp+0x60],xmm12
    6c75:	44 0f 29 5c 24 70    	movaps XMMWORD PTR [rsp+0x70],xmm11
    6c7b:	66 45 0f 6f df       	movdqa xmm11,xmm15
    6c80:	66 44 0f 68 fb       	punpckhbw xmm15,xmm3
    6c85:	66 44 0f 61 d0       	punpcklwd xmm10,xmm0
    6c8a:	66 44 0f 60 db       	punpcklbw xmm11,xmm3
    6c8f:	44 0f 29 6c 24 30    	movaps XMMWORD PTR [rsp+0x30],xmm13
    6c95:	66 45 0f 6f ef       	movdqa xmm13,xmm15
    6c9a:	66 44 0f 69 c0       	punpckhwd xmm8,xmm0
    6c9f:	66 41 0f 6f db       	movdqa xmm3,xmm11
    6ca4:	44 0f 29 54 24 20    	movaps XMMWORD PTR [rsp+0x20],xmm10
    6caa:	66 0f 61 f0          	punpcklwd xmm6,xmm0
    6cae:	66 0f 69 d0          	punpckhwd xmm2,xmm0
    6cb2:	66 0f 61 d8          	punpcklwd xmm3,xmm0
    6cb6:	66 44 0f 6f d1       	movdqa xmm10,xmm1
    6cbb:	66 0f 69 f8          	punpckhwd xmm7,xmm0
    6cbf:	66 44 0f 6f fb       	movdqa xmm15,xmm3
    6cc4:	66 41 0f 6f dd       	movdqa xmm3,xmm13
    6cc9:	66 44 0f 61 d0       	punpcklwd xmm10,xmm0
    6cce:	66 0f 61 d8          	punpcklwd xmm3,xmm0
    6cd2:	66 0f 69 c8          	punpckhwd xmm1,xmm0
    6cd6:	66 0f 69 e8          	punpckhwd xmm5,xmm0
    6cda:	44 0f 29 bc 24 80 00 	movaps XMMWORD PTR [rsp+0x80],xmm15
    6ce1:	00 00 
    6ce3:	66 44 0f 6f e3       	movdqa xmm12,xmm3
    6ce8:	66 41 0f 6f dd       	movdqa xmm3,xmm13
    6ced:	66 44 0f 69 d8       	punpckhwd xmm11,xmm0
    6cf2:	66 44 0f 6f 6c 24 10 	movdqa xmm13,XMMWORD PTR [rsp+0x10]
    6cf9:	66 0f 69 d8          	punpckhwd xmm3,xmm0
    6cfd:	66 0f ef c0          	pxor   xmm0,xmm0
    6d01:	0f 29 9c 24 90 00 00 	movaps XMMWORD PTR [rsp+0x90],xmm3
    6d08:	00 
    6d09:	66 0f 6f 5c 24 20    	movdqa xmm3,XMMWORD PTR [rsp+0x20]
    6d0f:	66 44 0f 6a e8       	punpckhdq xmm13,xmm0
    6d14:	66 44 0f 6a f8       	punpckhdq xmm15,xmm0
    6d19:	66 41 0f 73 f5 20    	psllq  xmm13,0x20
    6d1f:	66 41 0f 73 f7 38    	psllq  xmm15,0x38
    6d25:	66 0f 6a d8          	punpckhdq xmm3,xmm0
    6d29:	66 0f 73 f3 28       	psllq  xmm3,0x28
    6d2e:	66 44 0f eb eb       	por    xmm13,xmm3
    6d33:	66 0f 6f 5c 24 30    	movdqa xmm3,XMMWORD PTR [rsp+0x30]
    6d39:	66 0f 6a d8          	punpckhdq xmm3,xmm0
    6d3d:	66 0f 73 f3 30       	psllq  xmm3,0x30
    6d42:	66 41 0f eb df       	por    xmm3,xmm15
    6d47:	66 45 0f 6f fb       	movdqa xmm15,xmm11
    6d4c:	66 44 0f 6a d8       	punpckhdq xmm11,xmm0
    6d51:	66 41 0f eb dd       	por    xmm3,xmm13
    6d56:	66 44 0f 6f 2c 24    	movdqa xmm13,XMMWORD PTR [rsp]
    6d5c:	66 44 0f 62 f8       	punpckldq xmm15,xmm0
    6d61:	66 41 0f 73 f7 38    	psllq  xmm15,0x38
    6d67:	66 41 0f 73 f3 38    	psllq  xmm11,0x38
    6d6d:	66 44 0f 6a e8       	punpckhdq xmm13,xmm0
    6d72:	66 41 0f eb dd       	por    xmm3,xmm13
    6d77:	f3 44 0f 6f 6d 10    	movdqu xmm13,XMMWORD PTR [rbp+0x10]
    6d7d:	66 41 0f ef dd       	pxor   xmm3,xmm13
    6d82:	66 45 0f 6f e8       	movdqa xmm13,xmm8
    6d87:	66 44 0f 6a c0       	punpckhdq xmm8,xmm0
    6d8c:	0f 29 5c 24 50       	movaps XMMWORD PTR [rsp+0x50],xmm3
    6d91:	66 0f 6f df          	movdqa xmm3,xmm7
    6d95:	66 44 0f 62 e8       	punpckldq xmm13,xmm0
    6d9a:	66 0f 6a f8          	punpckhdq xmm7,xmm0
    6d9e:	66 41 0f 73 f5 20    	psllq  xmm13,0x20
    6da4:	66 41 0f 73 f0 20    	psllq  xmm8,0x20
    6daa:	66 0f 62 d8          	punpckldq xmm3,xmm0
    6dae:	66 0f 73 f3 28       	psllq  xmm3,0x28
    6db3:	66 0f 73 f7 28       	psllq  xmm7,0x28
    6db8:	66 44 0f eb eb       	por    xmm13,xmm3
    6dbd:	66 0f 6f dd          	movdqa xmm3,xmm5
    6dc1:	66 0f 6a e8          	punpckhdq xmm5,xmm0
    6dc5:	66 0f 62 d8          	punpckldq xmm3,xmm0
    6dc9:	66 0f 73 f5 30       	psllq  xmm5,0x30
    6dce:	66 41 0f eb f8       	por    xmm7,xmm8
    6dd3:	66 0f 73 f3 30       	psllq  xmm3,0x30
    6dd8:	66 41 0f eb eb       	por    xmm5,xmm11
    6ddd:	66 45 0f 6f c4       	movdqa xmm8,xmm12
    6de2:	66 44 0f 6f 5c 24 60 	movdqa xmm11,XMMWORD PTR [rsp+0x60]
    6de9:	66 41 0f eb df       	por    xmm3,xmm15
    6dee:	66 0f eb ef          	por    xmm5,xmm7
    6df2:	66 0f 6f fe          	movdqa xmm7,xmm6
    6df6:	66 44 0f 6f 7c 24 40 	movdqa xmm15,XMMWORD PTR [rsp+0x40]
    6dfd:	66 41 0f eb dd       	por    xmm3,xmm13
    6e02:	66 44 0f 6f ec       	movdqa xmm13,xmm4
    6e07:	66 0f 6a e0          	punpckhdq xmm4,xmm0
    6e0b:	66 0f eb ec          	por    xmm5,xmm4
    6e0f:	f3 0f 6f 65 30       	movdqu xmm4,XMMWORD PTR [rbp+0x30]
    6e14:	66 0f 62 f8          	punpckldq xmm7,xmm0
    6e18:	66 44 0f 62 c0       	punpckldq xmm8,xmm0
    6e1d:	66 0f 73 f7 20       	psllq  xmm7,0x20
    6e22:	66 41 0f 73 f0 38    	psllq  xmm8,0x38
    6e28:	66 44 0f 6a e0       	punpckhdq xmm12,xmm0
    6e2d:	66 0f ef e5          	pxor   xmm4,xmm5
    6e31:	66 41 0f 6f ea       	movdqa xmm5,xmm10
    6e36:	66 0f 6a f0          	punpckhdq xmm6,xmm0
    6e3a:	66 0f 62 e8          	punpckldq xmm5,xmm0
    6e3e:	66 44 0f 6a d0       	punpckhdq xmm10,xmm0
    6e43:	66 44 0f 62 e8       	punpckldq xmm13,xmm0
    6e48:	0f 11 65 30          	movups XMMWORD PTR [rbp+0x30],xmm4
    6e4c:	66 0f 73 f5 28       	psllq  xmm5,0x28
    6e51:	66 0f 73 f6 20       	psllq  xmm6,0x20
    6e56:	66 41 0f eb dd       	por    xmm3,xmm13
    6e5b:	f3 44 0f 6f 6d 20    	movdqu xmm13,XMMWORD PTR [rbp+0x20]
    6e61:	66 41 0f 73 f4 38    	psllq  xmm12,0x38
    6e67:	66 41 0f 73 f2 28    	psllq  xmm10,0x28
    6e6d:	66 0f eb fd          	por    xmm7,xmm5
    6e71:	66 41 0f 6f eb       	movdqa xmm5,xmm11
    6e76:	66 41 0f eb f2       	por    xmm6,xmm10
    6e7b:	66 41 0f ef dd       	pxor   xmm3,xmm13
    6e80:	66 0f 62 e8          	punpckldq xmm5,xmm0
    6e84:	0f 11 5d 20          	movups XMMWORD PTR [rbp+0x20],xmm3
    6e88:	66 0f 73 f5 30       	psllq  xmm5,0x30
    6e8d:	66 41 0f eb e8       	por    xmm5,xmm8
    6e92:	f3 44 0f 6f 45 40    	movdqu xmm8,XMMWORD PTR [rbp+0x40]
    6e98:	66 0f eb ef          	por    xmm5,xmm7
    6e9c:	66 41 0f 6f f9       	movdqa xmm7,xmm9
    6ea1:	66 44 0f 6a c8       	punpckhdq xmm9,xmm0
    6ea6:	66 0f 62 f8          	punpckldq xmm7,xmm0
    6eaa:	66 0f eb ef          	por    xmm5,xmm7
    6eae:	66 41 0f 6f fb       	movdqa xmm7,xmm11
    6eb3:	66 44 0f 6f 9c 24 90 	movdqa xmm11,XMMWORD PTR [rsp+0x90]
    6eba:	00 00 00 
    6ebd:	66 0f 6a f8          	punpckhdq xmm7,xmm0
    6ec1:	66 41 0f ef e8       	pxor   xmm5,xmm8
    6ec6:	66 44 0f 6f c1       	movdqa xmm8,xmm1
    6ecb:	66 0f 73 f7 30       	psllq  xmm7,0x30
    6ed0:	66 44 0f 62 c0       	punpckldq xmm8,xmm0
    6ed5:	66 0f 6a c8          	punpckhdq xmm1,xmm0
    6ed9:	0f 11 6d 40          	movups XMMWORD PTR [rbp+0x40],xmm5
    6edd:	66 41 0f 73 f0 28    	psllq  xmm8,0x28
    6ee3:	66 0f 73 f1 28       	psllq  xmm1,0x28
    6ee8:	66 44 0f eb e7       	por    xmm12,xmm7
    6eed:	66 41 0f eb f4       	por    xmm6,xmm12
    6ef2:	66 44 0f 6f 64 24 70 	movdqa xmm12,XMMWORD PTR [rsp+0x70]
    6ef9:	66 41 0f eb f1       	por    xmm6,xmm9
    6efe:	f3 44 0f 6f 4d 50    	movdqu xmm9,XMMWORD PTR [rbp+0x50]
    6f04:	66 41 0f 6f fc       	movdqa xmm7,xmm12
    6f09:	66 44 0f ef ce       	pxor   xmm9,xmm6
    6f0e:	66 41 0f 6f f3       	movdqa xmm6,xmm11
    6f13:	66 0f 62 f8          	punpckldq xmm7,xmm0
    6f17:	66 0f 62 f0          	punpckldq xmm6,xmm0
    6f1b:	66 0f 73 f7 30       	psllq  xmm7,0x30
    6f20:	44 0f 11 4d 50       	movups XMMWORD PTR [rbp+0x50],xmm9
    6f25:	66 0f 73 f6 38       	psllq  xmm6,0x38
    6f2a:	66 0f eb fe          	por    xmm7,xmm6
    6f2e:	66 0f 6f f2          	movdqa xmm6,xmm2
    6f32:	66 0f 6a d0          	punpckhdq xmm2,xmm0
    6f36:	66 0f 62 f0          	punpckldq xmm6,xmm0
    6f3a:	66 0f 73 f2 20       	psllq  xmm2,0x20
    6f3f:	66 0f 73 f6 20       	psllq  xmm6,0x20
    6f44:	66 0f eb ca          	por    xmm1,xmm2
    6f48:	66 41 0f 6f d4       	movdqa xmm2,xmm12
    6f4d:	f3 44 0f 6f 65 70    	movdqu xmm12,XMMWORD PTR [rbp+0x70]
    6f53:	66 41 0f eb f0       	por    xmm6,xmm8
    6f58:	66 0f 6a d0          	punpckhdq xmm2,xmm0
    6f5c:	f3 44 0f 6f 45 60    	movdqu xmm8,XMMWORD PTR [rbp+0x60]
    6f62:	66 0f eb f7          	por    xmm6,xmm7
    6f66:	66 0f 73 f2 30       	psllq  xmm2,0x30
    6f6b:	66 41 0f 6f ff       	movdqa xmm7,xmm15
    6f70:	66 0f 62 f8          	punpckldq xmm7,xmm0
    6f74:	66 0f eb f7          	por    xmm6,xmm7
    6f78:	66 41 0f 6f fb       	movdqa xmm7,xmm11
    6f7d:	66 0f 6a f8          	punpckhdq xmm7,xmm0
    6f81:	66 41 0f ef f0       	pxor   xmm6,xmm8
    6f86:	66 44 0f 6f 84 24 80 	movdqa xmm8,XMMWORD PTR [rsp+0x80]
    6f8d:	00 00 00 
    6f90:	66 0f 73 f7 38       	psllq  xmm7,0x38
    6f95:	0f 11 75 60          	movups XMMWORD PTR [rbp+0x60],xmm6
    6f99:	66 0f eb d7          	por    xmm2,xmm7
    6f9d:	66 0f 6f 7c 24 20    	movdqa xmm7,XMMWORD PTR [rsp+0x20]
    6fa3:	66 44 0f 62 c0       	punpckldq xmm8,xmm0
    6fa8:	66 0f eb ca          	por    xmm1,xmm2
    6fac:	66 41 0f 73 f0 38    	psllq  xmm8,0x38
    6fb2:	66 41 0f 6f d7       	movdqa xmm2,xmm15
    6fb7:	66 0f 6a d0          	punpckhdq xmm2,xmm0
    6fbb:	66 0f 62 f8          	punpckldq xmm7,xmm0
    6fbf:	66 0f eb ca          	por    xmm1,xmm2
    6fc3:	66 0f 6f 54 24 10    	movdqa xmm2,XMMWORD PTR [rsp+0x10]
    6fc9:	66 0f 73 f7 28       	psllq  xmm7,0x28
    6fce:	66 41 0f ef cc       	pxor   xmm1,xmm12
    6fd3:	66 0f 62 d0          	punpckldq xmm2,xmm0
    6fd7:	0f 11 4d 70          	movups XMMWORD PTR [rbp+0x70],xmm1
    6fdb:	66 0f 73 f2 20       	psllq  xmm2,0x20
    6fe0:	66 0f eb d7          	por    xmm2,xmm7
    6fe4:	66 0f 6f 7c 24 30    	movdqa xmm7,XMMWORD PTR [rsp+0x30]
    6fea:	66 0f 62 f8          	punpckldq xmm7,xmm0
    6fee:	66 0f 73 f7 30       	psllq  xmm7,0x30
    6ff3:	66 41 0f eb f8       	por    xmm7,xmm8
    6ff8:	66 0f eb d7          	por    xmm2,xmm7
    6ffc:	66 0f 6f 3c 24       	movdqa xmm7,XMMWORD PTR [rsp]
    7001:	66 0f 62 f8          	punpckldq xmm7,xmm0
    7005:	66 0f 6f c2          	movdqa xmm0,xmm2
    7009:	66 0f 6f 54 24 50    	movdqa xmm2,XMMWORD PTR [rsp+0x50]
    700f:	66 0f eb c7          	por    xmm0,xmm7
    7013:	f3 0f 6f 7d 00       	movdqu xmm7,XMMWORD PTR [rbp+0x0]
    7018:	0f 11 55 10          	movups XMMWORD PTR [rbp+0x10],xmm2
    701c:	66 0f ef c7          	pxor   xmm0,xmm7
    7020:	0f 11 45 00          	movups XMMWORD PTR [rbp+0x0],xmm0
    7024:	0f b6 43 fa          	movzx  eax,BYTE PTR [rbx-0x6]
    7028:	0f b6 53 f9          	movzx  edx,BYTE PTR [rbx-0x7]
    702c:	48 c1 e0 10          	shl    rax,0x10
    7030:	48 c1 e2 08          	shl    rdx,0x8
    7034:	48 09 d0             	or     rax,rdx
    7037:	0f b6 53 f8          	movzx  edx,BYTE PTR [rbx-0x8]
    703b:	48 09 d0             	or     rax,rdx
    703e:	0f b6 53 fb          	movzx  edx,BYTE PTR [rbx-0x5]
    7042:	48 c1 e2 18          	shl    rdx,0x18
    7046:	48 09 d0             	or     rax,rdx
    7049:	0f b6 53 fc          	movzx  edx,BYTE PTR [rbx-0x4]
    704d:	48 c1 e2 20          	shl    rdx,0x20
    7051:	48 09 c2             	or     rdx,rax
    7054:	0f b6 43 fd          	movzx  eax,BYTE PTR [rbx-0x3]
    7058:	48 c1 e0 28          	shl    rax,0x28
    705c:	48 09 d0             	or     rax,rdx
    705f:	0f b6 53 fe          	movzx  edx,BYTE PTR [rbx-0x2]
    7063:	48 c1 e2 30          	shl    rdx,0x30
    7067:	48 09 c2             	or     rdx,rax
    706a:	0f b6 43 ff          	movzx  eax,BYTE PTR [rbx-0x1]
    706e:	48 c1 e0 38          	shl    rax,0x38
    7072:	48 09 d0             	or     rax,rdx
    7075:	48 31 85 80 00 00 00 	xor    QWORD PTR [rbp+0x80],rax
    707c:	49 81 ed 88 00 00 00 	sub    r13,0x88
    7083:	48 89 ef             	mov    rdi,rbp
    7086:	e8 15 ef ff ff       	call   5fa0 <KeccakF1600_StatePermute>
    708b:	49 81 fd 87 00 00 00 	cmp    r13,0x87
    7092:	0f 86 8e 00 00 00    	jbe    7126 <keccak_absorb_once.constprop.1+0x8d6>
    7098:	48 89 d8             	mov    rax,rbx
    709b:	48 f7 d0             	not    rax
    709e:	48 01 e8             	add    rax,rbp
    70a1:	48 83 f8 7e          	cmp    rax,0x7e
    70a5:	0f 87 0d f8 ff ff    	ja     68b8 <keccak_absorb_once.constprop.1+0x68>
    70ab:	48 89 d8             	mov    rax,rbx
    70ae:	48 89 ee             	mov    rsi,rbp
    70b1:	48 8d 9b 88 00 00 00 	lea    rbx,[rbx+0x88]
    70b8:	0f 1f 84 00 00 00 00 	nop    DWORD PTR [rax+rax*1+0x0]
    70bf:	00 
    70c0:	0f b6 50 02          	movzx  edx,BYTE PTR [rax+0x2]
    70c4:	0f b6 48 01          	movzx  ecx,BYTE PTR [rax+0x1]
    70c8:	48 83 c0 08          	add    rax,0x8
    70cc:	48 c1 e1 08          	shl    rcx,0x8
    70d0:	48 c1 e2 10          	shl    rdx,0x10
    70d4:	48 09 ca             	or     rdx,rcx
    70d7:	0f b6 48 f8          	movzx  ecx,BYTE PTR [rax-0x8]
    70db:	48 09 ca             	or     rdx,rcx
    70de:	0f b6 48 fb          	movzx  ecx,BYTE PTR [rax-0x5]
    70e2:	48 c1 e1 18          	shl    rcx,0x18
    70e6:	48 09 ca             	or     rdx,rcx
    70e9:	0f b6 48 fc          	movzx  ecx,BYTE PTR [rax-0x4]
    70ed:	48 c1 e1 20          	shl    rcx,0x20
    70f1:	48 09 d1             	or     rcx,rdx
    70f4:	0f b6 50 fd          	movzx  edx,BYTE PTR [rax-0x3]
    70f8:	48 c1 e2 28          	shl    rdx,0x28
    70fc:	48 09 ca             	or     rdx,rcx
    70ff:	0f b6 48 fe          	movzx  ecx,BYTE PTR [rax-0x2]
    7103:	48 c1 e1 30          	shl    rcx,0x30
    7107:	48 09 d1             	or     rcx,rdx
    710a:	0f b6 50 ff          	movzx  edx,BYTE PTR [rax-0x1]
    710e:	48 c1 e2 38          	shl    rdx,0x38
    7112:	48 09 ca             	or     rdx,rcx
    7115:	48 31 16             	xor    QWORD PTR [rsi],rdx
    7118:	48 83 c6 08          	add    rsi,0x8
    711c:	48 39 d8             	cmp    rax,rbx
    711f:	75 9f                	jne    70c0 <keccak_absorb_once.constprop.1+0x870>
    7121:	e9 56 ff ff ff       	jmp    707c <keccak_absorb_once.constprop.1+0x82c>
    7126:	4d 85 ed             	test   r13,r13
    7129:	74 5e                	je     7189 <keccak_absorb_once.constprop.1+0x939>
    712b:	31 c9                	xor    ecx,ecx
    712d:	31 c0                	xor    eax,eax
    712f:	90                   	nop
    7130:	0f b6 34 0b          	movzx  esi,BYTE PTR [rbx+rcx*1]
    7134:	89 c1                	mov    ecx,eax
    7136:	89 c2                	mov    edx,eax
    7138:	83 e1 07             	and    ecx,0x7
    713b:	c1 ea 03             	shr    edx,0x3
    713e:	c1 e1 03             	shl    ecx,0x3
    7141:	48 d3 e6             	shl    rsi,cl
    7144:	8d 48 01             	lea    ecx,[rax+0x1]
    7147:	48 31 74 d5 00       	xor    QWORD PTR [rbp+rdx*8+0x0],rsi
    714c:	48 89 c8             	mov    rax,rcx
    714f:	4c 39 e9             	cmp    rcx,r13
    7152:	72 dc                	jb     7130 <keccak_absorb_once.constprop.1+0x8e0>
    7154:	89 ca                	mov    edx,ecx
    7156:	83 e0 07             	and    eax,0x7
    7159:	c1 ea 03             	shr    edx,0x3
    715c:	8d 0c c5 00 00 00 00 	lea    ecx,[rax*8+0x0]
    7163:	48 8d 54 d5 00       	lea    rdx,[rbp+rdx*8+0x0]
    7168:	45 0f b6 e4          	movzx  r12d,r12b
    716c:	49 d3 e4             	shl    r12,cl
    716f:	4c 31 22             	xor    QWORD PTR [rdx],r12
    7172:	48 0f ba bd 80 00 00 	btc    QWORD PTR [rbp+0x80],0x3f
    7179:	00 3f 
    717b:	48 81 c4 a8 00 00 00 	add    rsp,0xa8
    7182:	5b                   	pop    rbx
    7183:	5d                   	pop    rbp
    7184:	41 5c                	pop    r12
    7186:	41 5d                	pop    r13
    7188:	c3                   	ret    
    7189:	48 89 ea             	mov    rdx,rbp
    718c:	31 c9                	xor    ecx,ecx
    718e:	eb d8                	jmp    7168 <keccak_absorb_once.constprop.1+0x918>

0000000000007190 <keccak_absorb_once.constprop.2>:
    7190:	41 54                	push   r12
    7192:	49 89 cc             	mov    r12,rcx
    7195:	31 c0                	xor    eax,eax
    7197:	55                   	push   rbp
    7198:	48 89 fd             	mov    rbp,rdi
    719b:	48 83 c7 08          	add    rdi,0x8
    719f:	53                   	push   rbx
    71a0:	48 89 e9             	mov    rcx,rbp
    71a3:	48 89 d3             	mov    rbx,rdx
    71a6:	48 81 ec a0 00 00 00 	sub    rsp,0xa0
    71ad:	48 c7 47 f8 00 00 00 	mov    QWORD PTR [rdi-0x8],0x0
    71b4:	00 
    71b5:	48 c7 87 b8 00 00 00 	mov    QWORD PTR [rdi+0xb8],0x0
    71bc:	00 00 00 00 
    71c0:	48 83 e7 f8          	and    rdi,0xfffffffffffffff8
    71c4:	48 29 f9             	sub    rcx,rdi
    71c7:	81 c1 c8 00 00 00    	add    ecx,0xc8
    71cd:	c1 e9 03             	shr    ecx,0x3
    71d0:	f3 48 ab             	rep stos QWORD PTR es:[rdi],rax
    71d3:	49 81 fc a7 00 00 00 	cmp    r12,0xa7
    71da:	0f 86 26 0a 00 00    	jbe    7c06 <keccak_absorb_once.constprop.2+0xa76>
    71e0:	66 44 0f 6f 35 57 3e 	movdqa xmm14,XMMWORD PTR [rip+0x3e57]        # b040 <_IO_stdin_used+0x40>
    71e7:	00 00 
    71e9:	e9 90 09 00 00       	jmp    7b7e <keccak_absorb_once.constprop.2+0x9ee>
    71ee:	66 90                	xchg   ax,ax
    71f0:	f3 44 0f 6f 03       	movdqu xmm8,XMMWORD PTR [rbx]
    71f5:	f3 0f 6f 43 10       	movdqu xmm0,XMMWORD PTR [rbx+0x10]
    71fa:	66 45 0f 6f ce       	movdqa xmm9,xmm14
    71ff:	f3 0f 6f 23          	movdqu xmm4,XMMWORD PTR [rbx]
    7203:	f3 0f 6f 7b 20       	movdqu xmm7,XMMWORD PTR [rbx+0x20]
    7208:	66 41 0f db c6       	pand   xmm0,xmm14
    720d:	66 45 0f db c6       	pand   xmm8,xmm14
    7212:	f3 0f 6f 5b 20       	movdqu xmm3,XMMWORD PTR [rbx+0x20]
    7217:	f3 0f 6f 73 40       	movdqu xmm6,XMMWORD PTR [rbx+0x40]
    721c:	66 44 0f 67 c0       	packuswb xmm8,xmm0
    7221:	f3 0f 6f 43 10       	movdqu xmm0,XMMWORD PTR [rbx+0x10]
    7226:	66 0f 71 d4 08       	psrlw  xmm4,0x8
    722b:	66 41 0f db fe       	pand   xmm7,xmm14
    7230:	66 0f 71 d3 08       	psrlw  xmm3,0x8
    7235:	66 41 0f db f6       	pand   xmm6,xmm14
    723a:	f3 0f 6f 4b 50       	movdqu xmm1,XMMWORD PTR [rbx+0x50]
    723f:	f3 0f 6f 6b 60       	movdqu xmm5,XMMWORD PTR [rbx+0x60]
    7244:	66 0f 71 d0 08       	psrlw  xmm0,0x8
    7249:	f3 0f 6f 53 60       	movdqu xmm2,XMMWORD PTR [rbx+0x60]
    724e:	66 0f 67 e0          	packuswb xmm4,xmm0
    7252:	f3 0f 6f 43 30       	movdqu xmm0,XMMWORD PTR [rbx+0x30]
    7257:	66 0f 71 d1 08       	psrlw  xmm1,0x8
    725c:	66 41 0f db ee       	pand   xmm5,xmm14
    7261:	66 0f 71 d2 08       	psrlw  xmm2,0x8
    7266:	66 41 0f db c6       	pand   xmm0,xmm14
    726b:	66 0f 67 f8          	packuswb xmm7,xmm0
    726f:	f3 0f 6f 43 30       	movdqu xmm0,XMMWORD PTR [rbx+0x30]
    7274:	66 44 0f db cf       	pand   xmm9,xmm7
    7279:	66 0f 71 d7 08       	psrlw  xmm7,0x8
    727e:	66 0f 71 d0 08       	psrlw  xmm0,0x8
    7283:	66 0f 67 d8          	packuswb xmm3,xmm0
    7287:	f3 0f 6f 43 50       	movdqu xmm0,XMMWORD PTR [rbx+0x50]
    728c:	66 41 0f db c6       	pand   xmm0,xmm14
    7291:	66 0f 67 f0          	packuswb xmm6,xmm0
    7295:	f3 0f 6f 43 40       	movdqu xmm0,XMMWORD PTR [rbx+0x40]
    729a:	66 0f 71 d0 08       	psrlw  xmm0,0x8
    729f:	66 0f 67 c1          	packuswb xmm0,xmm1
    72a3:	f3 0f 6f 4b 70       	movdqu xmm1,XMMWORD PTR [rbx+0x70]
    72a8:	66 41 0f db ce       	pand   xmm1,xmm14
    72ad:	66 0f 67 e9          	packuswb xmm5,xmm1
    72b1:	f3 0f 6f 4b 70       	movdqu xmm1,XMMWORD PTR [rbx+0x70]
    72b6:	66 0f 71 d1 08       	psrlw  xmm1,0x8
    72bb:	66 0f 67 d1          	packuswb xmm2,xmm1
    72bf:	66 41 0f 6f ce       	movdqa xmm1,xmm14
    72c4:	66 41 0f db c8       	pand   xmm1,xmm8
    72c9:	66 41 0f 71 d0 08    	psrlw  xmm8,0x8
    72cf:	66 45 0f 6f d0       	movdqa xmm10,xmm8
    72d4:	66 45 0f 6f c6       	movdqa xmm8,xmm14
    72d9:	66 41 0f 67 c9       	packuswb xmm1,xmm9
    72de:	66 44 0f 67 d7       	packuswb xmm10,xmm7
    72e3:	66 41 0f 6f fe       	movdqa xmm7,xmm14
    72e8:	66 44 0f db c5       	pand   xmm8,xmm5
    72ed:	66 0f db fe          	pand   xmm7,xmm6
    72f1:	66 0f 71 d6 08       	psrlw  xmm6,0x8
    72f6:	66 0f 71 d5 08       	psrlw  xmm5,0x8
    72fb:	66 44 0f 6f de       	movdqa xmm11,xmm6
    7300:	66 41 0f 6f f6       	movdqa xmm6,xmm14
    7305:	66 44 0f 67 dd       	packuswb xmm11,xmm5
    730a:	66 0f db f4          	pand   xmm6,xmm4
    730e:	66 41 0f 6f ee       	movdqa xmm5,xmm14
    7313:	66 0f 71 d4 08       	psrlw  xmm4,0x8
    7318:	66 0f db eb          	pand   xmm5,xmm3
    731c:	66 41 0f 67 f8       	packuswb xmm7,xmm8
    7321:	66 0f 71 d3 08       	psrlw  xmm3,0x8
    7326:	66 44 0f 6f cc       	movdqa xmm9,xmm4
    732b:	66 41 0f 6f e6       	movdqa xmm4,xmm14
    7330:	66 44 0f 67 cb       	packuswb xmm9,xmm3
    7335:	66 41 0f 6f de       	movdqa xmm3,xmm14
    733a:	66 0f db e2          	pand   xmm4,xmm2
    733e:	66 0f db d8          	pand   xmm3,xmm0
    7342:	66 0f 71 d2 08       	psrlw  xmm2,0x8
    7347:	66 45 0f 6f c6       	movdqa xmm8,xmm14
    734c:	66 0f 71 d0 08       	psrlw  xmm0,0x8
    7351:	66 44 0f db c1       	pand   xmm8,xmm1
    7356:	66 0f 67 f5          	packuswb xmm6,xmm5
    735a:	66 0f 67 c2          	packuswb xmm0,xmm2
    735e:	66 41 0f 6f d6       	movdqa xmm2,xmm14
    7363:	66 0f 67 dc          	packuswb xmm3,xmm4
    7367:	66 0f db d7          	pand   xmm2,xmm7
    736b:	66 0f 71 d1 08       	psrlw  xmm1,0x8
    7370:	66 41 0f 6f ee       	movdqa xmm5,xmm14
    7375:	66 0f 71 d7 08       	psrlw  xmm7,0x8
    737a:	66 44 0f 67 c2       	packuswb xmm8,xmm2
    737f:	66 41 0f 6f d6       	movdqa xmm2,xmm14
    7384:	66 0f 67 cf          	packuswb xmm1,xmm7
    7388:	66 41 0f 6f fe       	movdqa xmm7,xmm14
    738d:	66 0f db d3          	pand   xmm2,xmm3
    7391:	66 0f db fe          	pand   xmm7,xmm6
    7395:	66 41 0f db ea       	pand   xmm5,xmm10
    739a:	66 45 0f 6f e8       	movdqa xmm13,xmm8
    739f:	66 41 0f 71 d2 08    	psrlw  xmm10,0x8
    73a5:	66 0f 71 d3 08       	psrlw  xmm3,0x8
    73aa:	66 0f 67 fa          	packuswb xmm7,xmm2
    73ae:	66 41 0f 6f d6       	movdqa xmm2,xmm14
    73b3:	66 0f 71 d6 08       	psrlw  xmm6,0x8
    73b8:	66 41 0f 6f e2       	movdqa xmm4,xmm10
    73bd:	66 41 0f db d3       	pand   xmm2,xmm11
    73c2:	66 41 0f 71 d3 08    	psrlw  xmm11,0x8
    73c8:	66 0f 67 f3          	packuswb xmm6,xmm3
    73cc:	66 41 0f 67 e3       	packuswb xmm4,xmm11
    73d1:	66 0f 67 ea          	packuswb xmm5,xmm2
    73d5:	66 41 0f 6f d6       	movdqa xmm2,xmm14
    73da:	0f 29 64 24 20       	movaps XMMWORD PTR [rsp+0x20],xmm4
    73df:	66 41 0f 6f e6       	movdqa xmm4,xmm14
    73e4:	66 0f db d0          	pand   xmm2,xmm0
    73e8:	66 0f 6f dd          	movdqa xmm3,xmm5
    73ec:	66 41 0f db e1       	pand   xmm4,xmm9
    73f1:	66 41 0f 71 d1 08    	psrlw  xmm9,0x8
    73f7:	66 44 0f 6f d7       	movdqa xmm10,xmm7
    73fc:	66 0f 67 e2          	packuswb xmm4,xmm2
    7400:	66 0f ef d2          	pxor   xmm2,xmm2
    7404:	66 45 0f 6f f9       	movdqa xmm15,xmm9
    7409:	66 0f 60 da          	punpcklbw xmm3,xmm2
    740d:	66 0f 71 d0 08       	psrlw  xmm0,0x8
    7412:	66 44 0f 60 d2       	punpcklbw xmm10,xmm2
    7417:	66 44 0f 67 f8       	packuswb xmm15,xmm0
    741c:	66 41 0f 71 f2 08    	psllw  xmm10,0x8
    7422:	66 0f ef c0          	pxor   xmm0,xmm0
    7426:	66 44 0f 6f e3       	movdqa xmm12,xmm3
    742b:	66 44 0f 6f cc       	movdqa xmm9,xmm4
    7430:	66 45 0f 6f da       	movdqa xmm11,xmm10
    7435:	66 44 0f 61 e0       	punpcklwd xmm12,xmm0
    743a:	66 44 0f 60 ca       	punpcklbw xmm9,xmm2
    743f:	66 44 0f 61 d8       	punpcklwd xmm11,xmm0
    7444:	66 41 0f 72 f4 10    	pslld  xmm12,0x10
    744a:	66 0f 69 d8          	punpckhwd xmm3,xmm0
    744e:	66 44 0f 60 ea       	punpcklbw xmm13,xmm2
    7453:	66 45 0f eb e3       	por    xmm12,xmm11
    7458:	66 45 0f 6f d9       	movdqa xmm11,xmm9
    745d:	66 44 0f 69 d0       	punpckhwd xmm10,xmm0
    7462:	66 44 0f 61 d8       	punpcklwd xmm11,xmm0
    7467:	66 0f 72 f3 10       	pslld  xmm3,0x10
    746c:	66 44 0f 69 c8       	punpckhwd xmm9,xmm0
    7471:	66 41 0f 72 f3 18    	pslld  xmm11,0x18
    7477:	66 0f 68 ea          	punpckhbw xmm5,xmm2
    747b:	66 44 0f eb d3       	por    xmm10,xmm3
    7480:	44 0f 29 1c 24       	movaps XMMWORD PTR [rsp],xmm11
    7485:	66 0f 68 fa          	punpckhbw xmm7,xmm2
    7489:	66 45 0f 6f dd       	movdqa xmm11,xmm13
    748e:	66 44 0f 69 e8       	punpckhwd xmm13,xmm0
    7493:	66 41 0f 72 f1 18    	pslld  xmm9,0x18
    7499:	66 0f 71 f7 08       	psllw  xmm7,0x8
    749e:	66 0f 68 e2          	punpckhbw xmm4,xmm2
    74a2:	66 45 0f eb e9       	por    xmm13,xmm9
    74a7:	66 45 0f 6f ca       	movdqa xmm9,xmm10
    74ac:	66 44 0f 6f d5       	movdqa xmm10,xmm5
    74b1:	66 44 0f 61 d0       	punpcklwd xmm10,xmm0
    74b6:	66 0f 6f df          	movdqa xmm3,xmm7
    74ba:	66 44 0f 61 d8       	punpcklwd xmm11,xmm0
    74bf:	66 0f 61 d8          	punpcklwd xmm3,xmm0
    74c3:	66 44 0f eb 1c 24    	por    xmm11,XMMWORD PTR [rsp]
    74c9:	66 44 0f 68 c2       	punpckhbw xmm8,xmm2
    74ce:	66 41 0f 72 f2 10    	pslld  xmm10,0x10
    74d4:	66 0f 69 e8          	punpckhwd xmm5,xmm0
    74d8:	66 0f 69 f8          	punpckhwd xmm7,xmm0
    74dc:	66 44 0f eb d3       	por    xmm10,xmm3
    74e1:	66 0f 6f dc          	movdqa xmm3,xmm4
    74e5:	66 0f 69 e0          	punpckhwd xmm4,xmm0
    74e9:	66 45 0f eb e3       	por    xmm12,xmm11
    74ee:	66 0f 72 f4 18       	pslld  xmm4,0x18
    74f3:	66 45 0f 6f d8       	movdqa xmm11,xmm8
    74f8:	66 0f 72 f5 10       	pslld  xmm5,0x10
    74fd:	66 44 0f 69 c0       	punpckhwd xmm8,xmm0
    7502:	66 0f 61 d8          	punpcklwd xmm3,xmm0
    7506:	44 0f 29 24 24       	movaps XMMWORD PTR [rsp],xmm12
    750b:	66 44 0f eb c4       	por    xmm8,xmm4
    7510:	66 0f eb ef          	por    xmm5,xmm7
    7514:	66 44 0f 61 d8       	punpcklwd xmm11,xmm0
    7519:	66 41 0f eb e8       	por    xmm5,xmm8
    751e:	66 0f 72 f3 18       	pslld  xmm3,0x18
    7523:	66 0f 6f f9          	movdqa xmm7,xmm1
    7527:	0f 29 6c 24 30       	movaps XMMWORD PTR [rsp+0x30],xmm5
    752c:	66 0f 6f ee          	movdqa xmm5,xmm6
    7530:	66 0f 68 f2          	punpckhbw xmm6,xmm2
    7534:	66 0f 60 fa          	punpcklbw xmm7,xmm2
    7538:	66 41 0f eb db       	por    xmm3,xmm11
    753d:	66 0f 60 ea          	punpcklbw xmm5,xmm2
    7541:	66 44 0f 6f c6       	movdqa xmm8,xmm6
    7546:	66 44 0f eb d3       	por    xmm10,xmm3
    754b:	66 44 0f 6f de       	movdqa xmm11,xmm6
    7550:	66 0f 6f dd          	movdqa xmm3,xmm5
    7554:	66 0f 6f 74 24 20    	movdqa xmm6,XMMWORD PTR [rsp+0x20]
    755a:	66 0f 61 d8          	punpcklwd xmm3,xmm0
    755e:	66 44 0f 69 d8       	punpckhwd xmm11,xmm0
    7563:	66 0f 68 ca          	punpckhbw xmm1,xmm2
    7567:	0f 29 5c 24 10       	movaps XMMWORD PTR [rsp+0x10],xmm3
    756c:	66 0f 6f de          	movdqa xmm3,xmm6
    7570:	66 0f 68 f2          	punpckhbw xmm6,xmm2
    7574:	66 0f 6f e1          	movdqa xmm4,xmm1
    7578:	66 0f 60 da          	punpcklbw xmm3,xmm2
    757c:	44 0f 29 5c 24 60    	movaps XMMWORD PTR [rsp+0x60],xmm11
    7582:	66 0f 61 e0          	punpcklwd xmm4,xmm0
    7586:	66 0f 69 c8          	punpckhwd xmm1,xmm0
    758a:	66 44 0f 6f de       	movdqa xmm11,xmm6
    758f:	66 0f 69 f0          	punpckhwd xmm6,xmm0
    7593:	66 44 0f 6f e3       	movdqa xmm12,xmm3
    7598:	0f 29 74 24 70       	movaps XMMWORD PTR [rsp+0x70],xmm6
    759d:	66 41 0f 6f f7       	movdqa xmm6,xmm15
    75a2:	66 0f 69 e8          	punpckhwd xmm5,xmm0
    75a6:	66 0f 69 d8          	punpckhwd xmm3,xmm0
    75aa:	66 44 0f 61 e0       	punpcklwd xmm12,xmm0
    75af:	66 0f 60 f2          	punpcklbw xmm6,xmm2
    75b3:	66 45 0f eb cd       	por    xmm9,xmm13
    75b8:	44 0f 29 64 24 20    	movaps XMMWORD PTR [rsp+0x20],xmm12
    75be:	66 44 0f 6f e6       	movdqa xmm12,xmm6
    75c3:	66 41 0f 6f f7       	movdqa xmm6,xmm15
    75c8:	66 44 0f 6f ef       	movdqa xmm13,xmm7
    75cd:	66 0f 68 f2          	punpckhbw xmm6,xmm2
    75d1:	66 41 0f 6f d4       	movdqa xmm2,xmm12
    75d6:	66 44 0f 61 e8       	punpcklwd xmm13,xmm0
    75db:	66 0f 61 d0          	punpcklwd xmm2,xmm0
    75df:	66 0f 69 f8          	punpckhwd xmm7,xmm0
    75e3:	66 44 0f 61 c0       	punpcklwd xmm8,xmm0
    75e8:	44 0f 29 6c 24 50    	movaps XMMWORD PTR [rsp+0x50],xmm13
    75ee:	66 44 0f 6f fa       	movdqa xmm15,xmm2
    75f3:	66 41 0f 6f d4       	movdqa xmm2,xmm12
    75f8:	66 44 0f 6f e6       	movdqa xmm12,xmm6
    75fd:	66 0f 69 f0          	punpckhwd xmm6,xmm0
    7601:	66 44 0f 61 d8       	punpcklwd xmm11,xmm0
    7606:	66 0f 69 d0          	punpckhwd xmm2,xmm0
    760a:	44 0f 29 bc 24 80 00 	movaps XMMWORD PTR [rsp+0x80],xmm15
    7611:	00 00 
    7613:	0f 29 b4 24 90 00 00 	movaps XMMWORD PTR [rsp+0x90],xmm6
    761a:	00 
    761b:	66 0f 6f 74 24 10    	movdqa xmm6,XMMWORD PTR [rsp+0x10]
    7621:	66 44 0f 61 e0       	punpcklwd xmm12,xmm0
    7626:	66 0f ef c0          	pxor   xmm0,xmm0
    762a:	66 44 0f 6a e8       	punpckhdq xmm13,xmm0
    762f:	66 44 0f 6a f8       	punpckhdq xmm15,xmm0
    7634:	66 41 0f 73 f5 20    	psllq  xmm13,0x20
    763a:	66 41 0f 73 f7 38    	psllq  xmm15,0x38
    7640:	66 0f 6a f0          	punpckhdq xmm6,xmm0
    7644:	66 0f 73 f6 28       	psllq  xmm6,0x28
    7649:	66 44 0f eb ee       	por    xmm13,xmm6
    764e:	66 0f 6f 74 24 20    	movdqa xmm6,XMMWORD PTR [rsp+0x20]
    7654:	66 0f 6a f0          	punpckhdq xmm6,xmm0
    7658:	66 0f 73 f6 30       	psllq  xmm6,0x30
    765d:	66 41 0f eb f7       	por    xmm6,xmm15
    7662:	66 41 0f eb f5       	por    xmm6,xmm13
    7667:	66 44 0f 6f 2c 24    	movdqa xmm13,XMMWORD PTR [rsp]
    766d:	f3 44 0f 6f 7d 10    	movdqu xmm15,XMMWORD PTR [rbp+0x10]
    7673:	66 44 0f 6a e8       	punpckhdq xmm13,xmm0
    7678:	66 41 0f eb f5       	por    xmm6,xmm13
    767d:	66 44 0f 6f ef       	movdqa xmm13,xmm7
    7682:	66 0f 6a f8          	punpckhdq xmm7,xmm0
    7686:	66 41 0f ef f7       	pxor   xmm6,xmm15
    768b:	66 44 0f 62 e8       	punpckldq xmm13,xmm0
    7690:	66 44 0f 6f fa       	movdqa xmm15,xmm2
    7695:	0f 29 74 24 40       	movaps XMMWORD PTR [rsp+0x40],xmm6
    769a:	66 0f 6f f5          	movdqa xmm6,xmm5
    769e:	66 0f 6a d0          	punpckhdq xmm2,xmm0
    76a2:	66 0f 6a e8          	punpckhdq xmm5,xmm0
    76a6:	66 0f 62 f0          	punpckldq xmm6,xmm0
    76aa:	66 41 0f 73 f5 20    	psllq  xmm13,0x20
    76b0:	66 44 0f 62 f8       	punpckldq xmm15,xmm0
    76b5:	66 0f 73 f6 28       	psllq  xmm6,0x28
    76ba:	66 41 0f 73 f7 38    	psllq  xmm15,0x38
    76c0:	66 0f 73 f7 20       	psllq  xmm7,0x20
    76c5:	66 0f 73 f2 38       	psllq  xmm2,0x38
    76ca:	66 44 0f eb ee       	por    xmm13,xmm6
    76cf:	66 0f 6f f3          	movdqa xmm6,xmm3
    76d3:	66 0f 73 f5 28       	psllq  xmm5,0x28
    76d8:	66 0f 6a d8          	punpckhdq xmm3,xmm0
    76dc:	66 0f 62 f0          	punpckldq xmm6,xmm0
    76e0:	66 0f 73 f3 30       	psllq  xmm3,0x30
    76e5:	66 0f eb ef          	por    xmm5,xmm7
    76e9:	66 0f 6f 7c 24 30    	movdqa xmm7,XMMWORD PTR [rsp+0x30]
    76ef:	66 0f 73 f6 30       	psllq  xmm6,0x30
    76f4:	66 0f eb da          	por    xmm3,xmm2
    76f8:	66 41 0f 6f d0       	movdqa xmm2,xmm8
    76fd:	66 41 0f eb f7       	por    xmm6,xmm15
    7702:	66 0f eb dd          	por    xmm3,xmm5
    7706:	66 0f 62 d0          	punpckldq xmm2,xmm0
    770a:	f3 44 0f 6f 7d 20    	movdqu xmm15,XMMWORD PTR [rbp+0x20]
    7710:	66 41 0f eb f5       	por    xmm6,xmm13
    7715:	66 45 0f 6f e9       	movdqa xmm13,xmm9
    771a:	66 44 0f 6a c8       	punpckhdq xmm9,xmm0
    771f:	66 41 0f eb d9       	por    xmm3,xmm9
    7724:	f3 44 0f 6f 4d 30    	movdqu xmm9,XMMWORD PTR [rbp+0x30]
    772a:	66 0f 73 f2 28       	psllq  xmm2,0x28
    772f:	66 41 0f 6f ec       	movdqa xmm5,xmm12
    7734:	66 0f 62 e8          	punpckldq xmm5,xmm0
    7738:	66 44 0f 6a e0       	punpckhdq xmm12,xmm0
    773d:	66 44 0f 6a c0       	punpckhdq xmm8,xmm0
    7742:	66 44 0f ef cb       	pxor   xmm9,xmm3
    7747:	66 0f 6f dc          	movdqa xmm3,xmm4
    774b:	66 0f 6a e0          	punpckhdq xmm4,xmm0
    774f:	66 0f 62 d8          	punpckldq xmm3,xmm0
    7753:	66 0f 73 f5 38       	psllq  xmm5,0x38
    7758:	66 44 0f 62 e8       	punpckldq xmm13,xmm0
    775d:	44 0f 11 4d 30       	movups XMMWORD PTR [rbp+0x30],xmm9
    7762:	66 0f 73 f3 20       	psllq  xmm3,0x20
    7767:	66 41 0f 73 f0 28    	psllq  xmm8,0x28
    776d:	66 41 0f eb f5       	por    xmm6,xmm13
    7772:	66 0f eb da          	por    xmm3,xmm2
    7776:	66 41 0f 6f d3       	movdqa xmm2,xmm11
    777b:	66 44 0f 6a d8       	punpckhdq xmm11,xmm0
    7780:	66 0f 62 d0          	punpckldq xmm2,xmm0
    7784:	66 41 0f 73 f3 30    	psllq  xmm11,0x30
    778a:	66 41 0f ef f7       	pxor   xmm6,xmm15
    778f:	66 44 0f 6f 7c 24 60 	movdqa xmm15,XMMWORD PTR [rsp+0x60]
    7796:	66 0f 73 f2 30       	psllq  xmm2,0x30
    779b:	66 41 0f 73 f4 38    	psllq  xmm12,0x38
    77a1:	0f 11 75 20          	movups XMMWORD PTR [rbp+0x20],xmm6
    77a5:	66 0f eb d5          	por    xmm2,xmm5
    77a9:	66 0f 73 f4 20       	psllq  xmm4,0x20
    77ae:	66 45 0f eb e3       	por    xmm12,xmm11
    77b3:	66 0f eb d3          	por    xmm2,xmm3
    77b7:	66 41 0f eb e0       	por    xmm4,xmm8
    77bc:	66 41 0f 6f da       	movdqa xmm3,xmm10
    77c1:	66 44 0f 6f 44 24 70 	movdqa xmm8,XMMWORD PTR [rsp+0x70]
    77c8:	66 0f 62 d8          	punpckldq xmm3,xmm0
    77cc:	66 44 0f 6a d0       	punpckhdq xmm10,xmm0
    77d1:	66 41 0f eb e4       	por    xmm4,xmm12
    77d6:	66 44 0f 6f a4 24 90 	movdqa xmm12,XMMWORD PTR [rsp+0x90]
    77dd:	00 00 00 
    77e0:	66 41 0f eb e2       	por    xmm4,xmm10
    77e5:	66 0f eb d3          	por    xmm2,xmm3
    77e9:	f3 44 0f 6f 55 50    	movdqu xmm10,XMMWORD PTR [rbp+0x50]
    77ef:	f3 0f 6f 5d 40       	movdqu xmm3,XMMWORD PTR [rbp+0x40]
    77f4:	66 45 0f 6f df       	movdqa xmm11,xmm15
    77f9:	66 0f ef d3          	pxor   xmm2,xmm3
    77fd:	66 44 0f ef d4       	pxor   xmm10,xmm4
    7802:	66 41 0f 6f dc       	movdqa xmm3,xmm12
    7807:	66 41 0f 6f e0       	movdqa xmm4,xmm8
    780c:	66 0f 62 d8          	punpckldq xmm3,xmm0
    7810:	66 44 0f 62 d8       	punpckldq xmm11,xmm0
    7815:	0f 11 55 40          	movups XMMWORD PTR [rbp+0x40],xmm2
    7819:	66 0f 62 e0          	punpckldq xmm4,xmm0
    781d:	66 0f 73 f3 38       	psllq  xmm3,0x38
    7822:	66 41 0f 6f eb       	movdqa xmm5,xmm11
    7827:	44 0f 11 55 50       	movups XMMWORD PTR [rbp+0x50],xmm10
    782c:	66 0f 73 f4 30       	psllq  xmm4,0x30
    7831:	66 0f 73 f5 28       	psllq  xmm5,0x28
    7836:	66 0f eb e3          	por    xmm4,xmm3
    783a:	66 0f 6f d9          	movdqa xmm3,xmm1
    783e:	66 0f 6a c8          	punpckhdq xmm1,xmm0
    7842:	66 0f 62 d8          	punpckldq xmm3,xmm0
    7846:	66 0f 73 f1 20       	psllq  xmm1,0x20
    784b:	66 0f 73 f3 20       	psllq  xmm3,0x20
    7850:	66 0f eb dd          	por    xmm3,xmm5
    7854:	66 41 0f 6f ec       	movdqa xmm5,xmm12
    7859:	66 0f eb dc          	por    xmm3,xmm4
    785d:	66 0f 6f e7          	movdqa xmm4,xmm7
    7861:	66 0f 6a e8          	punpckhdq xmm5,xmm0
    7865:	66 0f 62 e0          	punpckldq xmm4,xmm0
    7869:	66 0f 73 f5 38       	psllq  xmm5,0x38
    786e:	66 0f eb dc          	por    xmm3,xmm4
    7872:	f3 0f 6f 65 60       	movdqu xmm4,XMMWORD PTR [rbp+0x60]
    7877:	66 0f ef dc          	pxor   xmm3,xmm4
    787b:	66 41 0f 6f e7       	movdqa xmm4,xmm15
    7880:	66 0f 6a e0          	punpckhdq xmm4,xmm0
    7884:	0f 11 5d 60          	movups XMMWORD PTR [rbp+0x60],xmm3
    7888:	66 0f 73 f4 28       	psllq  xmm4,0x28
    788d:	66 0f eb e1          	por    xmm4,xmm1
    7891:	66 41 0f 6f c8       	movdqa xmm1,xmm8
    7896:	66 0f 6a c8          	punpckhdq xmm1,xmm0
    789a:	66 0f 73 f1 30       	psllq  xmm1,0x30
    789f:	66 0f eb cd          	por    xmm1,xmm5
    78a3:	66 0f eb e1          	por    xmm4,xmm1
    78a7:	66 0f 6f cf          	movdqa xmm1,xmm7
    78ab:	66 0f 6f 7c 24 10    	movdqa xmm7,XMMWORD PTR [rsp+0x10]
    78b1:	66 0f 6a c8          	punpckhdq xmm1,xmm0
    78b5:	66 0f eb e1          	por    xmm4,xmm1
    78b9:	f3 0f 6f 4d 70       	movdqu xmm1,XMMWORD PTR [rbp+0x70]
    78be:	66 0f 62 f8          	punpckldq xmm7,xmm0
    78c2:	66 0f 73 f7 28       	psllq  xmm7,0x28
    78c7:	66 0f ef e1          	pxor   xmm4,xmm1
    78cb:	66 0f 6f 4c 24 50    	movdqa xmm1,XMMWORD PTR [rsp+0x50]
    78d1:	0f 11 65 70          	movups XMMWORD PTR [rbp+0x70],xmm4
    78d5:	66 0f 62 c8          	punpckldq xmm1,xmm0
    78d9:	66 0f 73 f1 20       	psllq  xmm1,0x20
    78de:	66 0f eb cf          	por    xmm1,xmm7
    78e2:	66 0f 6f bc 24 80 00 	movdqa xmm7,XMMWORD PTR [rsp+0x80]
    78e9:	00 00 
    78eb:	66 0f 6f e9          	movdqa xmm5,xmm1
    78ef:	66 0f 6f 4c 24 20    	movdqa xmm1,XMMWORD PTR [rsp+0x20]
    78f5:	66 0f 62 f8          	punpckldq xmm7,xmm0
    78f9:	66 0f 62 c8          	punpckldq xmm1,xmm0
    78fd:	66 0f 73 f7 38       	psllq  xmm7,0x38
    7902:	66 0f 73 f1 30       	psllq  xmm1,0x30
    7907:	66 0f eb cf          	por    xmm1,xmm7
    790b:	66 0f 6f 7c 24 40    	movdqa xmm7,XMMWORD PTR [rsp+0x40]
    7911:	66 0f eb cd          	por    xmm1,xmm5
    7915:	66 0f 6f 2c 24       	movdqa xmm5,XMMWORD PTR [rsp]
    791a:	0f 11 7d 10          	movups XMMWORD PTR [rbp+0x10],xmm7
    791e:	66 0f 62 e8          	punpckldq xmm5,xmm0
    7922:	66 0f eb cd          	por    xmm1,xmm5
    7926:	f3 0f 6f 6d 00       	movdqu xmm5,XMMWORD PTR [rbp+0x0]
    792b:	66 0f 6f c1          	movdqa xmm0,xmm1
    792f:	66 0f ef c5          	pxor   xmm0,xmm5
    7933:	0f 11 45 00          	movups XMMWORD PTR [rbp+0x0],xmm0
    7937:	0f b6 83 82 00 00 00 	movzx  eax,BYTE PTR [rbx+0x82]
    793e:	0f b6 93 81 00 00 00 	movzx  edx,BYTE PTR [rbx+0x81]
    7945:	48 c1 e0 10          	shl    rax,0x10
    7949:	48 c1 e2 08          	shl    rdx,0x8
    794d:	48 09 d0             	or     rax,rdx
    7950:	0f b6 93 80 00 00 00 	movzx  edx,BYTE PTR [rbx+0x80]
    7957:	48 09 d0             	or     rax,rdx
    795a:	0f b6 93 83 00 00 00 	movzx  edx,BYTE PTR [rbx+0x83]
    7961:	48 c1 e2 18          	shl    rdx,0x18
    7965:	48 09 d0             	or     rax,rdx
    7968:	0f b6 93 84 00 00 00 	movzx  edx,BYTE PTR [rbx+0x84]
    796f:	48 c1 e2 20          	shl    rdx,0x20
    7973:	48 09 c2             	or     rdx,rax
    7976:	0f b6 83 85 00 00 00 	movzx  eax,BYTE PTR [rbx+0x85]
    797d:	48 c1 e0 28          	shl    rax,0x28
    7981:	48 09 d0             	or     rax,rdx
    7984:	0f b6 93 86 00 00 00 	movzx  edx,BYTE PTR [rbx+0x86]
    798b:	48 c1 e2 30          	shl    rdx,0x30
    798f:	48 09 c2             	or     rdx,rax
    7992:	0f b6 83 87 00 00 00 	movzx  eax,BYTE PTR [rbx+0x87]
    7999:	48 c1 e0 38          	shl    rax,0x38
    799d:	48 09 d0             	or     rax,rdx
    79a0:	48 31 85 80 00 00 00 	xor    QWORD PTR [rbp+0x80],rax
    79a7:	0f b6 83 8a 00 00 00 	movzx  eax,BYTE PTR [rbx+0x8a]
    79ae:	0f b6 93 89 00 00 00 	movzx  edx,BYTE PTR [rbx+0x89]
    79b5:	48 c1 e0 10          	shl    rax,0x10
    79b9:	48 c1 e2 08          	shl    rdx,0x8
    79bd:	48 09 d0             	or     rax,rdx
    79c0:	0f b6 93 88 00 00 00 	movzx  edx,BYTE PTR [rbx+0x88]
    79c7:	48 09 d0             	or     rax,rdx
    79ca:	0f b6 93 8b 00 00 00 	movzx  edx,BYTE PTR [rbx+0x8b]
    79d1:	48 c1 e2 18          	shl    rdx,0x18
    79d5:	48 09 d0             	or     rax,rdx
    79d8:	0f b6 93 8c 00 00 00 	movzx  edx,BYTE PTR [rbx+0x8c]
    79df:	48 c1 e2 20          	shl    rdx,0x20
    79e3:	48 09 c2             	or     rdx,rax
    79e6:	0f b6 83 8d 00 00 00 	movzx  eax,BYTE PTR [rbx+0x8d]
    79ed:	48 c1 e0 28          	shl    rax,0x28
    79f1:	48 09 d0             	or     rax,rdx
    79f4:	0f b6 93 8e 00 00 00 	movzx  edx,BYTE PTR [rbx+0x8e]
    79fb:	48 c1 e2 30          	shl    rdx,0x30
    79ff:	48 09 c2             	or     rdx,rax
    7a02:	0f b6 83 8f 00 00 00 	movzx  eax,BYTE PTR [rbx+0x8f]
    7a09:	48 c1 e0 38          	shl    rax,0x38
    7a0d:	48 09 d0             	or     rax,rdx
    7a10:	48 31 85 88 00 00 00 	xor    QWORD PTR [rbp+0x88],rax
    7a17:	0f b6 83 91 00 00 00 	movzx  eax,BYTE PTR [rbx+0x91]
    7a1e:	0f b6 93 92 00 00 00 	movzx  edx,BYTE PTR [rbx+0x92]
    7a25:	48 c1 e0 08          	shl    rax,0x8
    7a29:	48 c1 e2 10          	shl    rdx,0x10
    7a2d:	48 09 d0             	or     rax,rdx
    7a30:	0f b6 93 90 00 00 00 	movzx  edx,BYTE PTR [rbx+0x90]
    7a37:	48 09 d0             	or     rax,rdx
    7a3a:	0f b6 93 93 00 00 00 	movzx  edx,BYTE PTR [rbx+0x93]
    7a41:	48 c1 e2 18          	shl    rdx,0x18
    7a45:	48 09 d0             	or     rax,rdx
    7a48:	0f b6 93 94 00 00 00 	movzx  edx,BYTE PTR [rbx+0x94]
    7a4f:	48 c1 e2 20          	shl    rdx,0x20
    7a53:	48 09 c2             	or     rdx,rax
    7a56:	0f b6 83 95 00 00 00 	movzx  eax,BYTE PTR [rbx+0x95]
    7a5d:	48 c1 e0 28          	shl    rax,0x28
    7a61:	48 09 d0             	or     rax,rdx
    7a64:	0f b6 93 96 00 00 00 	movzx  edx,BYTE PTR [rbx+0x96]
    7a6b:	48 c1 e2 30          	shl    rdx,0x30
    7a6f:	48 09 c2             	or     rdx,rax
    7a72:	0f b6 83 97 00 00 00 	movzx  eax,BYTE PTR [rbx+0x97]
    7a79:	48 c1 e0 38          	shl    rax,0x38
    7a7d:	48 09 d0             	or     rax,rdx
    7a80:	48 31 85 90 00 00 00 	xor    QWORD PTR [rbp+0x90],rax
    7a87:	0f b6 83 99 00 00 00 	movzx  eax,BYTE PTR [rbx+0x99]
    7a8e:	0f b6 93 9a 00 00 00 	movzx  edx,BYTE PTR [rbx+0x9a]
    7a95:	48 c1 e0 08          	shl    rax,0x8
    7a99:	48 c1 e2 10          	shl    rdx,0x10
    7a9d:	48 09 d0             	or     rax,rdx
    7aa0:	0f b6 93 98 00 00 00 	movzx  edx,BYTE PTR [rbx+0x98]
    7aa7:	48 09 d0             	or     rax,rdx
    7aaa:	0f b6 93 9b 00 00 00 	movzx  edx,BYTE PTR [rbx+0x9b]
    7ab1:	48 c1 e2 18          	shl    rdx,0x18
    7ab5:	48 09 d0             	or     rax,rdx
    7ab8:	0f b6 93 9c 00 00 00 	movzx  edx,BYTE PTR [rbx+0x9c]
    7abf:	48 c1 e2 20          	shl    rdx,0x20
    7ac3:	48 09 c2             	or     rdx,rax
    7ac6:	0f b6 83 9d 00 00 00 	movzx  eax,BYTE PTR [rbx+0x9d]
    7acd:	48 c1 e0 28          	shl    rax,0x28
    7ad1:	48 09 d0             	or     rax,rdx
    7ad4:	0f b6 93 9e 00 00 00 	movzx  edx,BYTE PTR [rbx+0x9e]
    7adb:	48 c1 e2 30          	shl    rdx,0x30
    7adf:	48 09 c2             	or     rdx,rax
    7ae2:	0f b6 83 9f 00 00 00 	movzx  eax,BYTE PTR [rbx+0x9f]
    7ae9:	48 c1 e0 38          	shl    rax,0x38
    7aed:	48 09 d0             	or     rax,rdx
    7af0:	48 31 85 98 00 00 00 	xor    QWORD PTR [rbp+0x98],rax
    7af7:	0f b6 83 a2 00 00 00 	movzx  eax,BYTE PTR [rbx+0xa2]
    7afe:	0f b6 93 a1 00 00 00 	movzx  edx,BYTE PTR [rbx+0xa1]
    7b05:	48 c1 e0 10          	shl    rax,0x10
    7b09:	48 c1 e2 08          	shl    rdx,0x8
    7b0d:	48 09 d0             	or     rax,rdx
    7b10:	0f b6 93 a0 00 00 00 	movzx  edx,BYTE PTR [rbx+0xa0]
    7b17:	48 09 d0             	or     rax,rdx
    7b1a:	0f b6 93 a3 00 00 00 	movzx  edx,BYTE PTR [rbx+0xa3]
    7b21:	48 c1 e2 18          	shl    rdx,0x18
    7b25:	48 81 c3 a8 00 00 00 	add    rbx,0xa8
    7b2c:	48 09 d0             	or     rax,rdx
    7b2f:	0f b6 53 fc          	movzx  edx,BYTE PTR [rbx-0x4]
    7b33:	48 c1 e2 20          	shl    rdx,0x20
    7b37:	48 09 c2             	or     rdx,rax
    7b3a:	0f b6 43 fd          	movzx  eax,BYTE PTR [rbx-0x3]
    7b3e:	48 c1 e0 28          	shl    rax,0x28
    7b42:	48 09 d0             	or     rax,rdx
    7b45:	0f b6 53 fe          	movzx  edx,BYTE PTR [rbx-0x2]
    7b49:	48 c1 e2 30          	shl    rdx,0x30
    7b4d:	48 09 c2             	or     rdx,rax
    7b50:	0f b6 43 ff          	movzx  eax,BYTE PTR [rbx-0x1]
    7b54:	48 c1 e0 38          	shl    rax,0x38
    7b58:	48 09 d0             	or     rax,rdx
    7b5b:	48 31 85 a0 00 00 00 	xor    QWORD PTR [rbp+0xa0],rax
    7b62:	49 81 ec a8 00 00 00 	sub    r12,0xa8
    7b69:	48 89 ef             	mov    rdi,rbp
    7b6c:	e8 2f e4 ff ff       	call   5fa0 <KeccakF1600_StatePermute>
    7b71:	49 81 fc a7 00 00 00 	cmp    r12,0xa7
    7b78:	0f 86 88 00 00 00    	jbe    7c06 <keccak_absorb_once.constprop.2+0xa76>
    7b7e:	48 89 d8             	mov    rax,rbx
    7b81:	48 f7 d0             	not    rax
    7b84:	48 01 e8             	add    rax,rbp
    7b87:	48 83 f8 7e          	cmp    rax,0x7e
    7b8b:	0f 87 5f f6 ff ff    	ja     71f0 <keccak_absorb_once.constprop.2+0x60>
    7b91:	48 89 da             	mov    rdx,rbx
    7b94:	48 89 ee             	mov    rsi,rbp
    7b97:	48 8d 9b a8 00 00 00 	lea    rbx,[rbx+0xa8]
    7b9e:	66 90                	xchg   ax,ax
    7ba0:	0f b6 42 02          	movzx  eax,BYTE PTR [rdx+0x2]
    7ba4:	0f b6 4a 01          	movzx  ecx,BYTE PTR [rdx+0x1]
    7ba8:	48 83 c2 08          	add    rdx,0x8
    7bac:	48 c1 e1 08          	shl    rcx,0x8
    7bb0:	48 c1 e0 10          	shl    rax,0x10
    7bb4:	48 09 c8             	or     rax,rcx
    7bb7:	0f b6 4a f8          	movzx  ecx,BYTE PTR [rdx-0x8]
    7bbb:	48 09 c8             	or     rax,rcx
    7bbe:	0f b6 4a fb          	movzx  ecx,BYTE PTR [rdx-0x5]
    7bc2:	48 c1 e1 18          	shl    rcx,0x18
    7bc6:	48 09 c8             	or     rax,rcx
    7bc9:	0f b6 4a fc          	movzx  ecx,BYTE PTR [rdx-0x4]
    7bcd:	48 c1 e1 20          	shl    rcx,0x20
    7bd1:	48 09 c1             	or     rcx,rax
    7bd4:	0f b6 42 fd          	movzx  eax,BYTE PTR [rdx-0x3]
    7bd8:	48 c1 e0 28          	shl    rax,0x28
    7bdc:	48 09 c8             	or     rax,rcx
    7bdf:	0f b6 4a fe          	movzx  ecx,BYTE PTR [rdx-0x2]
    7be3:	48 c1 e1 30          	shl    rcx,0x30
    7be7:	48 09 c1             	or     rcx,rax
    7bea:	0f b6 42 ff          	movzx  eax,BYTE PTR [rdx-0x1]
    7bee:	48 c1 e0 38          	shl    rax,0x38
    7bf2:	48 09 c8             	or     rax,rcx
    7bf5:	48 31 06             	xor    QWORD PTR [rsi],rax
    7bf8:	48 83 c6 08          	add    rsi,0x8
    7bfc:	48 39 d3             	cmp    rbx,rdx
    7bff:	75 9f                	jne    7ba0 <keccak_absorb_once.constprop.2+0xa10>
    7c01:	e9 5c ff ff ff       	jmp    7b62 <keccak_absorb_once.constprop.2+0x9d2>
    7c06:	4d 85 e4             	test   r12,r12
    7c09:	74 5d                	je     7c68 <keccak_absorb_once.constprop.2+0xad8>
    7c0b:	31 c9                	xor    ecx,ecx
    7c0d:	31 c0                	xor    eax,eax
    7c0f:	90                   	nop
    7c10:	0f b6 34 0b          	movzx  esi,BYTE PTR [rbx+rcx*1]
    7c14:	89 c1                	mov    ecx,eax
    7c16:	89 c2                	mov    edx,eax
    7c18:	83 e1 07             	and    ecx,0x7
    7c1b:	c1 ea 03             	shr    edx,0x3
    7c1e:	c1 e1 03             	shl    ecx,0x3
    7c21:	48 d3 e6             	shl    rsi,cl
    7c24:	8d 48 01             	lea    ecx,[rax+0x1]
    7c27:	48 31 74 d5 00       	xor    QWORD PTR [rbp+rdx*8+0x0],rsi
    7c2c:	48 89 c8             	mov    rax,rcx
    7c2f:	4c 39 e1             	cmp    rcx,r12
    7c32:	72 dc                	jb     7c10 <keccak_absorb_once.constprop.2+0xa80>
    7c34:	89 ca                	mov    edx,ecx
    7c36:	83 e0 07             	and    eax,0x7
    7c39:	8d 0c c5 00 00 00 00 	lea    ecx,[rax*8+0x0]
    7c40:	c1 ea 03             	shr    edx,0x3
    7c43:	b8 1f 00 00 00       	mov    eax,0x1f
    7c48:	48 8d 54 d5 00       	lea    rdx,[rbp+rdx*8+0x0]
    7c4d:	48 d3 e0             	shl    rax,cl
    7c50:	48 31 02             	xor    QWORD PTR [rdx],rax
    7c53:	48 0f ba bd a0 00 00 	btc    QWORD PTR [rbp+0xa0],0x3f
    7c5a:	00 3f 
    7c5c:	48 81 c4 a0 00 00 00 	add    rsp,0xa0
    7c63:	5b                   	pop    rbx
    7c64:	5d                   	pop    rbp
    7c65:	41 5c                	pop    r12
    7c67:	c3                   	ret    
    7c68:	48 89 ea             	mov    rdx,rbp
    7c6b:	b8 1f 00 00 00       	mov    eax,0x1f
    7c70:	eb de                	jmp    7c50 <keccak_absorb_once.constprop.2+0xac0>
    7c72:	66 66 2e 0f 1f 84 00 	data16 cs nop WORD PTR [rax+rax*1+0x0]
    7c79:	00 00 00 00 
    7c7d:	0f 1f 00             	nop    DWORD PTR [rax]

0000000000007c80 <pqcrystals_kyber_fips202_ref_shake128_init>:
    7c80:	f3 0f 1e fa          	endbr64 
    7c84:	48 c7 07 00 00 00 00 	mov    QWORD PTR [rdi],0x0
    7c8b:	48 89 fa             	mov    rdx,rdi
    7c8e:	48 8d 7f 08          	lea    rdi,[rdi+0x8]
    7c92:	31 c0                	xor    eax,eax
    7c94:	48 c7 87 b8 00 00 00 	mov    QWORD PTR [rdi+0xb8],0x0
    7c9b:	00 00 00 00 
    7c9f:	48 89 d1             	mov    rcx,rdx
    7ca2:	48 83 e7 f8          	and    rdi,0xfffffffffffffff8
    7ca6:	48 29 f9             	sub    rcx,rdi
    7ca9:	81 c1 c8 00 00 00    	add    ecx,0xc8
    7caf:	c1 e9 03             	shr    ecx,0x3
    7cb2:	f3 48 ab             	rep stos QWORD PTR es:[rdi],rax
    7cb5:	c7 82 c8 00 00 00 00 	mov    DWORD PTR [rdx+0xc8],0x0
    7cbc:	00 00 00 
    7cbf:	c3                   	ret    

0000000000007cc0 <pqcrystals_kyber_fips202_ref_shake128_absorb>:
    7cc0:	f3 0f 1e fa          	endbr64 
    7cc4:	41 54                	push   r12
    7cc6:	49 89 d4             	mov    r12,rdx
    7cc9:	55                   	push   rbp
    7cca:	48 89 f5             	mov    rbp,rsi
    7ccd:	53                   	push   rbx
    7cce:	8b 87 c8 00 00 00    	mov    eax,DWORD PTR [rdi+0xc8]
    7cd4:	48 89 fb             	mov    rbx,rdi
    7cd7:	48 01 c2             	add    rdx,rax
    7cda:	49 89 c0             	mov    r8,rax
    7cdd:	48 81 fa a7 00 00 00 	cmp    rdx,0xa7
    7ce4:	0f 86 c4 00 00 00    	jbe    7dae <pqcrystals_kyber_fips202_ref_shake128_absorb+0xee>
    7cea:	41 b9 a8 00 00 00    	mov    r9d,0xa8
    7cf0:	41 29 c1             	sub    r9d,eax
    7cf3:	3d a7 00 00 00       	cmp    eax,0xa7
    7cf8:	77 55                	ja     7d4f <pqcrystals_kyber_fips202_ref_shake128_absorb+0x8f>
    7cfa:	66 0f 1f 44 00 00    	nop    WORD PTR [rax+rax*1+0x0]
    7d00:	44 89 c0             	mov    eax,r8d
    7d03:	48 89 ef             	mov    rdi,rbp
    7d06:	66 2e 0f 1f 84 00 00 	cs nop WORD PTR [rax+rax*1+0x0]
    7d0d:	00 00 00 
    7d10:	89 c1                	mov    ecx,eax
    7d12:	89 c2                	mov    edx,eax
    7d14:	0f b6 37             	movzx  esi,BYTE PTR [rdi]
    7d17:	83 c0 01             	add    eax,0x1
    7d1a:	83 e1 07             	and    ecx,0x7
    7d1d:	c1 ea 03             	shr    edx,0x3
    7d20:	48 83 c7 01          	add    rdi,0x1
    7d24:	c1 e1 03             	shl    ecx,0x3
    7d27:	48 d3 e6             	shl    rsi,cl
    7d2a:	48 31 34 d3          	xor    QWORD PTR [rbx+rdx*8],rsi
    7d2e:	3d a8 00 00 00       	cmp    eax,0xa8
    7d33:	75 db                	jne    7d10 <pqcrystals_kyber_fips202_ref_shake128_absorb+0x50>
    7d35:	44 29 c0             	sub    eax,r8d
    7d38:	41 83 c0 01          	add    r8d,0x1
    7d3c:	ba 01 00 00 00       	mov    edx,0x1
    7d41:	41 81 f8 a8 00 00 00 	cmp    r8d,0xa8
    7d48:	48 0f 47 c2          	cmova  rax,rdx
    7d4c:	48 01 c5             	add    rbp,rax
    7d4f:	4d 29 cc             	sub    r12,r9
    7d52:	48 89 df             	mov    rdi,rbx
    7d55:	e8 46 e2 ff ff       	call   5fa0 <KeccakF1600_StatePermute>
    7d5a:	45 31 c0             	xor    r8d,r8d
    7d5d:	41 b9 a8 00 00 00    	mov    r9d,0xa8
    7d63:	31 c0                	xor    eax,eax
    7d65:	49 81 fc a7 00 00 00 	cmp    r12,0xa7
    7d6c:	77 92                	ja     7d00 <pqcrystals_kyber_fips202_ref_shake128_absorb+0x40>
    7d6e:	49 39 c4             	cmp    r12,rax
    7d71:	76 2f                	jbe    7da2 <pqcrystals_kyber_fips202_ref_shake128_absorb+0xe2>
    7d73:	0f 1f 44 00 00       	nop    DWORD PTR [rax+rax*1+0x0]
    7d78:	44 89 c1             	mov    ecx,r8d
    7d7b:	44 89 c0             	mov    eax,r8d
    7d7e:	0f b6 55 00          	movzx  edx,BYTE PTR [rbp+0x0]
    7d82:	48 83 c5 01          	add    rbp,0x1
    7d86:	83 e1 07             	and    ecx,0x7
    7d89:	c1 e8 03             	shr    eax,0x3
    7d8c:	c1 e1 03             	shl    ecx,0x3
    7d8f:	48 d3 e2             	shl    rdx,cl
    7d92:	48 31 14 c3          	xor    QWORD PTR [rbx+rax*8],rdx
    7d96:	41 8d 40 01          	lea    eax,[r8+0x1]
    7d9a:	49 89 c0             	mov    r8,rax
    7d9d:	4c 39 e0             	cmp    rax,r12
    7da0:	72 d6                	jb     7d78 <pqcrystals_kyber_fips202_ref_shake128_absorb+0xb8>
    7da2:	44 89 83 c8 00 00 00 	mov    DWORD PTR [rbx+0xc8],r8d
    7da9:	5b                   	pop    rbx
    7daa:	5d                   	pop    rbp
    7dab:	41 5c                	pop    r12
    7dad:	c3                   	ret    
    7dae:	49 89 d4             	mov    r12,rdx
    7db1:	eb bb                	jmp    7d6e <pqcrystals_kyber_fips202_ref_shake128_absorb+0xae>
    7db3:	66 66 2e 0f 1f 84 00 	data16 cs nop WORD PTR [rax+rax*1+0x0]
    7dba:	00 00 00 00 
    7dbe:	66 90                	xchg   ax,ax

0000000000007dc0 <pqcrystals_kyber_fips202_ref_shake128_finalize>:
    7dc0:	f3 0f 1e fa          	endbr64 
    7dc4:	8b 8f c8 00 00 00    	mov    ecx,DWORD PTR [rdi+0xc8]
    7dca:	ba 1f 00 00 00       	mov    edx,0x1f
    7dcf:	89 c8                	mov    eax,ecx
    7dd1:	83 e1 07             	and    ecx,0x7
    7dd4:	c1 e8 03             	shr    eax,0x3
    7dd7:	c1 e1 03             	shl    ecx,0x3
    7dda:	48 d3 e2             	shl    rdx,cl
    7ddd:	48 31 14 c7          	xor    QWORD PTR [rdi+rax*8],rdx
    7de1:	c7 87 c8 00 00 00 a8 	mov    DWORD PTR [rdi+0xc8],0xa8
    7de8:	00 00 00 
    7deb:	48 0f ba bf a0 00 00 	btc    QWORD PTR [rdi+0xa0],0x3f
    7df2:	00 3f 
    7df4:	c3                   	ret    
    7df5:	66 66 2e 0f 1f 84 00 	data16 cs nop WORD PTR [rax+rax*1+0x0]
    7dfc:	00 00 00 00 

0000000000007e00 <pqcrystals_kyber_fips202_ref_shake128_squeeze>:
    7e00:	f3 0f 1e fa          	endbr64 
    7e04:	41 54                	push   r12
    7e06:	55                   	push   rbp
    7e07:	48 89 d5             	mov    rbp,rdx
    7e0a:	53                   	push   rbx
    7e0b:	44 8b 8a c8 00 00 00 	mov    r9d,DWORD PTR [rdx+0xc8]
    7e12:	48 85 f6             	test   rsi,rsi
    7e15:	0f 84 c5 00 00 00    	je     7ee0 <pqcrystals_kyber_fips202_ref_shake128_squeeze+0xe0>
    7e1b:	48 89 fb             	mov    rbx,rdi
    7e1e:	49 89 f4             	mov    r12,rsi
    7e21:	41 81 f9 a8 00 00 00 	cmp    r9d,0xa8
    7e28:	0f 84 89 00 00 00    	je     7eb7 <pqcrystals_kyber_fips202_ref_shake128_squeeze+0xb7>
    7e2e:	66 90                	xchg   ax,ax
    7e30:	41 81 f9 a7 00 00 00 	cmp    r9d,0xa7
    7e37:	0f 87 b3 00 00 00    	ja     7ef0 <pqcrystals_kyber_fips202_ref_shake128_squeeze+0xf0>
    7e3d:	44 89 c8             	mov    eax,r9d
    7e40:	49 8d 3c 04          	lea    rdi,[r12+rax*1]
    7e44:	48 39 f8             	cmp    rax,rdi
    7e47:	0f 83 a3 00 00 00    	jae    7ef0 <pqcrystals_kyber_fips202_ref_shake128_squeeze+0xf0>
    7e4d:	48 89 de             	mov    rsi,rbx
    7e50:	44 89 ca             	mov    edx,r9d
    7e53:	45 8d 41 01          	lea    r8d,[r9+0x1]
    7e57:	eb 16                	jmp    7e6f <pqcrystals_kyber_fips202_ref_shake128_squeeze+0x6f>
    7e59:	0f 1f 80 00 00 00 00 	nop    DWORD PTR [rax+0x0]
    7e60:	48 8d 46 ff          	lea    rax,[rsi-0x1]
    7e64:	48 29 d8             	sub    rax,rbx
    7e67:	4c 01 c0             	add    rax,r8
    7e6a:	48 39 c7             	cmp    rdi,rax
    7e6d:	76 61                	jbe    7ed0 <pqcrystals_kyber_fips202_ref_shake128_squeeze+0xd0>
    7e6f:	89 d0                	mov    eax,edx
    7e71:	89 d1                	mov    ecx,edx
    7e73:	48 83 c6 01          	add    rsi,0x1
    7e77:	83 c2 01             	add    edx,0x1
    7e7a:	c1 e8 03             	shr    eax,0x3
    7e7d:	83 e1 07             	and    ecx,0x7
    7e80:	48 8b 44 c5 00       	mov    rax,QWORD PTR [rbp+rax*8+0x0]
    7e85:	c1 e1 03             	shl    ecx,0x3
    7e88:	48 d3 e8             	shr    rax,cl
    7e8b:	88 46 ff             	mov    BYTE PTR [rsi-0x1],al
    7e8e:	81 fa a8 00 00 00    	cmp    edx,0xa8
    7e94:	75 ca                	jne    7e60 <pqcrystals_kyber_fips202_ref_shake128_squeeze+0x60>
    7e96:	44 29 ca             	sub    edx,r9d
    7e99:	41 b9 a8 00 00 00    	mov    r9d,0xa8
    7e9f:	49 29 d4             	sub    r12,rdx
    7ea2:	4d 85 e4             	test   r12,r12
    7ea5:	74 39                	je     7ee0 <pqcrystals_kyber_fips202_ref_shake128_squeeze+0xe0>
    7ea7:	48 89 f3             	mov    rbx,rsi
    7eaa:	41 81 f9 a8 00 00 00 	cmp    r9d,0xa8
    7eb1:	0f 85 79 ff ff ff    	jne    7e30 <pqcrystals_kyber_fips202_ref_shake128_squeeze+0x30>
    7eb7:	48 89 ef             	mov    rdi,rbp
    7eba:	e8 e1 e0 ff ff       	call   5fa0 <KeccakF1600_StatePermute>
    7ebf:	4c 89 e7             	mov    rdi,r12
    7ec2:	45 31 c9             	xor    r9d,r9d
    7ec5:	eb 86                	jmp    7e4d <pqcrystals_kyber_fips202_ref_shake128_squeeze+0x4d>
    7ec7:	66 0f 1f 84 00 00 00 	nop    WORD PTR [rax+rax*1+0x0]
    7ece:	00 00 
    7ed0:	89 d0                	mov    eax,edx
    7ed2:	44 29 c8             	sub    eax,r9d
    7ed5:	41 89 d1             	mov    r9d,edx
    7ed8:	49 29 c4             	sub    r12,rax
    7edb:	4d 85 e4             	test   r12,r12
    7ede:	75 c7                	jne    7ea7 <pqcrystals_kyber_fips202_ref_shake128_squeeze+0xa7>
    7ee0:	5b                   	pop    rbx
    7ee1:	44 89 8d c8 00 00 00 	mov    DWORD PTR [rbp+0xc8],r9d
    7ee8:	5d                   	pop    rbp
    7ee9:	41 5c                	pop    r12
    7eeb:	c3                   	ret    
    7eec:	0f 1f 40 00          	nop    DWORD PTR [rax+0x0]
    7ef0:	48 89 de             	mov    rsi,rbx
    7ef3:	eb b2                	jmp    7ea7 <pqcrystals_kyber_fips202_ref_shake128_squeeze+0xa7>
    7ef5:	66 66 2e 0f 1f 84 00 	data16 cs nop WORD PTR [rax+rax*1+0x0]
    7efc:	00 00 00 00 

0000000000007f00 <pqcrystals_kyber_fips202_ref_shake128_absorb_once>:
    7f00:	f3 0f 1e fa          	endbr64 
    7f04:	53                   	push   rbx
    7f05:	48 89 d1             	mov    rcx,rdx
    7f08:	48 89 fb             	mov    rbx,rdi
    7f0b:	48 89 f2             	mov    rdx,rsi
    7f0e:	41 b8 1f 00 00 00    	mov    r8d,0x1f
    7f14:	be a8 00 00 00       	mov    esi,0xa8
    7f19:	e8 72 f2 ff ff       	call   7190 <keccak_absorb_once.constprop.2>
    7f1e:	c7 83 c8 00 00 00 a8 	mov    DWORD PTR [rbx+0xc8],0xa8
    7f25:	00 00 00 
    7f28:	5b                   	pop    rbx
    7f29:	c3                   	ret    
    7f2a:	66 0f 1f 44 00 00    	nop    WORD PTR [rax+rax*1+0x0]

0000000000007f30 <pqcrystals_kyber_fips202_ref_shake128_squeezeblocks>:
    7f30:	f3 0f 1e fa          	endbr64 
    7f34:	48 85 f6             	test   rsi,rsi
    7f37:	0f 84 c0 06 00 00    	je     85fd <pqcrystals_kyber_fips202_ref_shake128_squeezeblocks+0x6cd>
    7f3d:	41 55                	push   r13
    7f3f:	4c 8d 6a 08          	lea    r13,[rdx+0x8]
    7f43:	41 54                	push   r12
    7f45:	49 89 f4             	mov    r12,rsi
    7f48:	55                   	push   rbp
    7f49:	48 89 d5             	mov    rbp,rdx
    7f4c:	53                   	push   rbx
    7f4d:	48 89 fb             	mov    rbx,rdi
    7f50:	48 83 ec 08          	sub    rsp,0x8
    7f54:	66 44 0f 6f 1d e3 30 	movdqa xmm11,XMMWORD PTR [rip+0x30e3]        # b040 <_IO_stdin_used+0x40>
    7f5b:	00 00 
    7f5d:	e9 4b 06 00 00       	jmp    85ad <pqcrystals_kyber_fips202_ref_shake128_squeezeblocks+0x67d>
    7f62:	66 0f 1f 44 00 00    	nop    WORD PTR [rax+rax*1+0x0]
    7f68:	f3 44 0f 6f 55 20    	movdqu xmm10,XMMWORD PTR [rbp+0x20]
    7f6e:	f3 0f 6f 55 30       	movdqu xmm2,XMMWORD PTR [rbp+0x30]
    7f73:	48 81 c3 a8 00 00 00 	add    rbx,0xa8
    7f7a:	f3 0f 6f 5d 40       	movdqu xmm3,XMMWORD PTR [rbp+0x40]
    7f7f:	f3 0f 6f 4d 00       	movdqu xmm1,XMMWORD PTR [rbp+0x0]
    7f84:	66 45 0f 6f f2       	movdqa xmm14,xmm10
    7f89:	f3 44 0f 6f 4d 60    	movdqu xmm9,XMMWORD PTR [rbp+0x60]
    7f8f:	f3 44 0f 6f 65 10    	movdqu xmm12,XMMWORD PTR [rbp+0x10]
    7f95:	44 0f c6 f2 88       	shufps xmm14,xmm2,0x88
    7f9a:	f3 0f 6f 55 50       	movdqu xmm2,XMMWORD PTR [rbp+0x50]
    7f9f:	66 0f 6f e3          	movdqa xmm4,xmm3
    7fa3:	66 0f 6f c1          	movdqa xmm0,xmm1
    7fa7:	66 41 0f 6f f9       	movdqa xmm7,xmm9
    7fac:	41 0f c6 c4 88       	shufps xmm0,xmm12,0x88
    7fb1:	66 0f 6f e8          	movdqa xmm5,xmm0
    7fb5:	66 45 0f 6f ee       	movdqa xmm13,xmm14
    7fba:	0f c6 e2 88          	shufps xmm4,xmm2,0x88
    7fbe:	f3 0f 6f 55 70       	movdqu xmm2,XMMWORD PTR [rbp+0x70]
    7fc3:	66 41 0f 69 ee       	punpckhwd xmm5,xmm14
    7fc8:	66 41 0f 72 d5 10    	psrld  xmm13,0x10
    7fce:	0f c6 fa 88          	shufps xmm7,xmm2,0x88
    7fd2:	66 0f 6f d0          	movdqa xmm2,xmm0
    7fd6:	66 44 0f 6f ff       	movdqa xmm15,xmm7
    7fdb:	66 41 0f 61 d6       	punpcklwd xmm2,xmm14
    7fe0:	66 41 0f 72 d7 10    	psrld  xmm15,0x10
    7fe6:	66 0f 6f f2          	movdqa xmm6,xmm2
    7fea:	66 41 0f 72 d6 18    	psrld  xmm14,0x18
    7ff0:	66 0f 61 d5          	punpcklwd xmm2,xmm5
    7ff4:	66 0f 69 f5          	punpckhwd xmm6,xmm5
    7ff8:	66 0f 6f ec          	movdqa xmm5,xmm4
    7ffc:	66 0f 61 d6          	punpcklwd xmm2,xmm6
    8000:	66 0f 61 ef          	punpcklwd xmm5,xmm7
    8004:	66 0f 6f f4          	movdqa xmm6,xmm4
    8008:	66 0f 69 f7          	punpckhwd xmm6,xmm7
    800c:	66 0f 72 d7 18       	psrld  xmm7,0x18
    8011:	66 44 0f 6f c5       	movdqa xmm8,xmm5
    8016:	66 44 0f 69 c6       	punpckhwd xmm8,xmm6
    801b:	66 0f 61 ee          	punpcklwd xmm5,xmm6
    801f:	66 41 0f 6f f3       	movdqa xmm6,xmm11
    8024:	66 41 0f 61 e8       	punpcklwd xmm5,xmm8
    8029:	66 45 0f 6f c3       	movdqa xmm8,xmm11
    802e:	66 0f db f5          	pand   xmm6,xmm5
    8032:	66 0f 71 d5 08       	psrlw  xmm5,0x8
    8037:	66 44 0f db c2       	pand   xmm8,xmm2
    803c:	66 44 0f 67 c6       	packuswb xmm8,xmm6
    8041:	66 0f 71 d2 08       	psrlw  xmm2,0x8
    8046:	66 0f 6f f0          	movdqa xmm6,xmm0
    804a:	66 41 0f db eb       	pand   xmm5,xmm11
    804f:	66 0f 72 d6 10       	psrld  xmm6,0x10
    8054:	66 41 0f db d3       	pand   xmm2,xmm11
    8059:	66 0f 67 d5          	packuswb xmm2,xmm5
    805d:	66 0f 72 d0 18       	psrld  xmm0,0x18
    8062:	66 0f 6f ee          	movdqa xmm5,xmm6
    8066:	66 41 0f 61 f5       	punpcklwd xmm6,xmm13
    806b:	66 41 0f 69 ed       	punpckhwd xmm5,xmm13
    8070:	66 44 0f 6f ee       	movdqa xmm13,xmm6
    8075:	66 0f 61 f5          	punpcklwd xmm6,xmm5
    8079:	66 44 0f 69 ed       	punpckhwd xmm13,xmm5
    807e:	66 0f 6f ec          	movdqa xmm5,xmm4
    8082:	66 0f 72 d5 10       	psrld  xmm5,0x10
    8087:	66 0f 72 d4 18       	psrld  xmm4,0x18
    808c:	66 41 0f 61 f5       	punpcklwd xmm6,xmm13
    8091:	66 44 0f 6f ed       	movdqa xmm13,xmm5
    8096:	66 41 0f 61 ef       	punpcklwd xmm5,xmm15
    809b:	66 41 0f db f3       	pand   xmm6,xmm11
    80a0:	66 45 0f 69 ef       	punpckhwd xmm13,xmm15
    80a5:	66 44 0f 6f fd       	movdqa xmm15,xmm5
    80aa:	66 45 0f 69 fd       	punpckhwd xmm15,xmm13
    80af:	66 41 0f 61 ed       	punpcklwd xmm5,xmm13
    80b4:	66 44 0f 6f ee       	movdqa xmm13,xmm6
    80b9:	66 41 0f 61 ef       	punpcklwd xmm5,xmm15
    80be:	f3 44 0f 6f 7d 70    	movdqu xmm15,XMMWORD PTR [rbp+0x70]
    80c4:	66 41 0f db eb       	pand   xmm5,xmm11
    80c9:	66 44 0f 67 ed       	packuswb xmm13,xmm5
    80ce:	66 41 0f 73 d7 30    	psrlq  xmm15,0x30
    80d4:	66 0f 6f e8          	movdqa xmm5,xmm0
    80d8:	66 41 0f 61 c6       	punpcklwd xmm0,xmm14
    80dd:	66 41 0f 69 ee       	punpckhwd xmm5,xmm14
    80e2:	f3 44 0f 6f 75 70    	movdqu xmm14,XMMWORD PTR [rbp+0x70]
    80e8:	66 0f 6f f0          	movdqa xmm6,xmm0
    80ec:	66 0f 61 c5          	punpcklwd xmm0,xmm5
    80f0:	66 0f 69 f5          	punpckhwd xmm6,xmm5
    80f4:	66 41 0f 73 d6 28    	psrlq  xmm14,0x28
    80fa:	66 0f 6f ec          	movdqa xmm5,xmm4
    80fe:	66 0f 61 e7          	punpcklwd xmm4,xmm7
    8102:	66 0f 69 ef          	punpckhwd xmm5,xmm7
    8106:	66 0f 61 c6          	punpcklwd xmm0,xmm6
    810a:	f3 0f 6f 7d 70       	movdqu xmm7,XMMWORD PTR [rbp+0x70]
    810f:	66 0f 6f f4          	movdqa xmm6,xmm4
    8113:	66 0f 61 e5          	punpcklwd xmm4,xmm5
    8117:	66 41 0f db c3       	pand   xmm0,xmm11
    811c:	66 0f 69 f5          	punpckhwd xmm6,xmm5
    8120:	f3 0f 6f 6d 30       	movdqu xmm5,XMMWORD PTR [rbp+0x30]
    8125:	66 0f 73 d7 20       	psrlq  xmm7,0x20
    812a:	66 0f 61 e6          	punpcklwd xmm4,xmm6
    812e:	66 0f 6f f1          	movdqa xmm6,xmm1
    8132:	66 0f 73 d6 20       	psrlq  xmm6,0x20
    8137:	66 0f 73 d5 20       	psrlq  xmm5,0x20
    813c:	66 41 0f db e3       	pand   xmm4,xmm11
    8141:	66 0f 67 c4          	packuswb xmm0,xmm4
    8145:	66 41 0f 6f e4       	movdqa xmm4,xmm12
    814a:	66 0f 73 d4 20       	psrlq  xmm4,0x20
    814f:	0f c6 f4 88          	shufps xmm6,xmm4,0x88
    8153:	66 41 0f 6f e2       	movdqa xmm4,xmm10
    8158:	66 0f 73 d4 20       	psrlq  xmm4,0x20
    815d:	0f c6 e5 88          	shufps xmm4,xmm5,0x88
    8161:	66 0f 6f ee          	movdqa xmm5,xmm6
    8165:	66 0f 61 f4          	punpcklwd xmm6,xmm4
    8169:	66 0f 69 ec          	punpckhwd xmm5,xmm4
    816d:	66 0f 6f e6          	movdqa xmm4,xmm6
    8171:	66 0f 69 e5          	punpckhwd xmm4,xmm5
    8175:	66 0f 61 f5          	punpcklwd xmm6,xmm5
    8179:	f3 0f 6f 6d 50       	movdqu xmm5,XMMWORD PTR [rbp+0x50]
    817e:	66 0f 61 f4          	punpcklwd xmm6,xmm4
    8182:	66 0f 6f e3          	movdqa xmm4,xmm3
    8186:	66 0f 73 d5 20       	psrlq  xmm5,0x20
    818b:	66 0f 73 d4 20       	psrlq  xmm4,0x20
    8190:	66 41 0f db f3       	pand   xmm6,xmm11
    8195:	0f c6 e5 88          	shufps xmm4,xmm5,0x88
    8199:	66 41 0f 6f e9       	movdqa xmm5,xmm9
    819e:	66 0f 73 d5 20       	psrlq  xmm5,0x20
    81a3:	0f c6 ef 88          	shufps xmm5,xmm7,0x88
    81a7:	66 0f 6f fc          	movdqa xmm7,xmm4
    81ab:	66 0f 61 e5          	punpcklwd xmm4,xmm5
    81af:	66 0f 69 fd          	punpckhwd xmm7,xmm5
    81b3:	66 0f 6f ec          	movdqa xmm5,xmm4
    81b7:	66 0f 69 ef          	punpckhwd xmm5,xmm7
    81bb:	66 0f 61 e7          	punpcklwd xmm4,xmm7
    81bf:	f3 0f 6f 7d 30       	movdqu xmm7,XMMWORD PTR [rbp+0x30]
    81c4:	66 0f 61 e5          	punpcklwd xmm4,xmm5
    81c8:	66 0f 6f e9          	movdqa xmm5,xmm1
    81cc:	66 0f 73 d5 28       	psrlq  xmm5,0x28
    81d1:	66 0f 73 d7 28       	psrlq  xmm7,0x28
    81d6:	66 41 0f db e3       	pand   xmm4,xmm11
    81db:	66 0f 67 f4          	packuswb xmm6,xmm4
    81df:	66 41 0f 6f e4       	movdqa xmm4,xmm12
    81e4:	66 0f 73 d4 28       	psrlq  xmm4,0x28
    81e9:	0f c6 ec 88          	shufps xmm5,xmm4,0x88
    81ed:	66 41 0f 6f e2       	movdqa xmm4,xmm10
    81f2:	66 0f 73 d4 28       	psrlq  xmm4,0x28
    81f7:	0f c6 e7 88          	shufps xmm4,xmm7,0x88
    81fb:	66 0f 6f fd          	movdqa xmm7,xmm5
    81ff:	66 0f 61 ec          	punpcklwd xmm5,xmm4
    8203:	66 0f 69 fc          	punpckhwd xmm7,xmm4
    8207:	66 0f 6f e5          	movdqa xmm4,xmm5
    820b:	66 0f 69 e7          	punpckhwd xmm4,xmm7
    820f:	66 0f 61 ef          	punpcklwd xmm5,xmm7
    8213:	f3 0f 6f 7d 50       	movdqu xmm7,XMMWORD PTR [rbp+0x50]
    8218:	66 0f 61 ec          	punpcklwd xmm5,xmm4
    821c:	66 0f 6f e3          	movdqa xmm4,xmm3
    8220:	66 0f 73 d7 28       	psrlq  xmm7,0x28
    8225:	66 0f 73 d4 28       	psrlq  xmm4,0x28
    822a:	66 41 0f db eb       	pand   xmm5,xmm11
    822f:	0f c6 e7 88          	shufps xmm4,xmm7,0x88
    8233:	66 41 0f 6f f9       	movdqa xmm7,xmm9
    8238:	66 0f 73 d7 28       	psrlq  xmm7,0x28
    823d:	41 0f c6 fe 88       	shufps xmm7,xmm14,0x88
    8242:	66 44 0f 6f f4       	movdqa xmm14,xmm4
    8247:	66 0f 61 e7          	punpcklwd xmm4,xmm7
    824b:	66 44 0f 69 f7       	punpckhwd xmm14,xmm7
    8250:	66 0f 6f fc          	movdqa xmm7,xmm4
    8254:	66 41 0f 69 fe       	punpckhwd xmm7,xmm14
    8259:	66 41 0f 61 e6       	punpcklwd xmm4,xmm14
    825e:	f3 44 0f 6f 75 30    	movdqu xmm14,XMMWORD PTR [rbp+0x30]
    8264:	66 0f 61 e7          	punpcklwd xmm4,xmm7
    8268:	66 41 0f 6f fc       	movdqa xmm7,xmm12
    826d:	66 0f 73 d7 30       	psrlq  xmm7,0x30
    8272:	66 41 0f db e3       	pand   xmm4,xmm11
    8277:	66 41 0f 73 d6 30    	psrlq  xmm14,0x30
    827d:	66 41 0f 73 d4 38    	psrlq  xmm12,0x38
    8283:	66 0f 67 ec          	packuswb xmm5,xmm4
    8287:	66 0f 6f e1          	movdqa xmm4,xmm1
    828b:	66 0f 73 d1 38       	psrlq  xmm1,0x38
    8290:	66 0f 73 d4 30       	psrlq  xmm4,0x30
    8295:	41 0f c6 cc 88       	shufps xmm1,xmm12,0x88
    829a:	0f c6 e7 88          	shufps xmm4,xmm7,0x88
    829e:	66 41 0f 6f fa       	movdqa xmm7,xmm10
    82a3:	66 41 0f 73 d2 38    	psrlq  xmm10,0x38
    82a9:	66 0f 73 d7 30       	psrlq  xmm7,0x30
    82ae:	41 0f c6 fe 88       	shufps xmm7,xmm14,0x88
    82b3:	66 44 0f 6f f4       	movdqa xmm14,xmm4
    82b8:	66 0f 61 e7          	punpcklwd xmm4,xmm7
    82bc:	66 44 0f 69 f7       	punpckhwd xmm14,xmm7
    82c1:	66 0f 6f fc          	movdqa xmm7,xmm4
    82c5:	66 41 0f 69 fe       	punpckhwd xmm7,xmm14
    82ca:	66 41 0f 61 e6       	punpcklwd xmm4,xmm14
    82cf:	f3 44 0f 6f 75 50    	movdqu xmm14,XMMWORD PTR [rbp+0x50]
    82d5:	66 0f 61 e7          	punpcklwd xmm4,xmm7
    82d9:	66 0f 6f fb          	movdqa xmm7,xmm3
    82dd:	66 41 0f 73 d6 30    	psrlq  xmm14,0x30
    82e3:	66 0f 73 d7 30       	psrlq  xmm7,0x30
    82e8:	66 41 0f db e3       	pand   xmm4,xmm11
    82ed:	41 0f c6 fe 88       	shufps xmm7,xmm14,0x88
    82f2:	66 45 0f 6f f1       	movdqa xmm14,xmm9
    82f7:	66 0f 73 d3 38       	psrlq  xmm3,0x38
    82fc:	66 41 0f 73 d6 30    	psrlq  xmm14,0x30
    8302:	66 41 0f 73 d1 38    	psrlq  xmm9,0x38
    8308:	45 0f c6 f7 88       	shufps xmm14,xmm15,0x88
    830d:	66 44 0f 6f ff       	movdqa xmm15,xmm7
    8312:	66 41 0f 61 fe       	punpcklwd xmm7,xmm14
    8317:	66 45 0f 69 fe       	punpckhwd xmm15,xmm14
    831c:	66 44 0f 6f f7       	movdqa xmm14,xmm7
    8321:	66 45 0f 69 f7       	punpckhwd xmm14,xmm15
    8326:	66 41 0f 61 ff       	punpcklwd xmm7,xmm15
    832b:	66 41 0f 61 fe       	punpcklwd xmm7,xmm14
    8330:	66 41 0f db fb       	pand   xmm7,xmm11
    8335:	66 0f 67 e7          	packuswb xmm4,xmm7
    8339:	f3 0f 6f 7d 30       	movdqu xmm7,XMMWORD PTR [rbp+0x30]
    833e:	66 0f 73 d7 38       	psrlq  xmm7,0x38
    8343:	44 0f c6 d7 88       	shufps xmm10,xmm7,0x88
    8348:	66 0f 6f f9          	movdqa xmm7,xmm1
    834c:	66 41 0f 61 ca       	punpcklwd xmm1,xmm10
    8351:	66 41 0f 69 fa       	punpckhwd xmm7,xmm10
    8356:	66 44 0f 6f d1       	movdqa xmm10,xmm1
    835b:	66 44 0f 69 d7       	punpckhwd xmm10,xmm7
    8360:	66 0f 61 cf          	punpcklwd xmm1,xmm7
    8364:	f3 0f 6f 7d 50       	movdqu xmm7,XMMWORD PTR [rbp+0x50]
    8369:	66 41 0f 61 ca       	punpcklwd xmm1,xmm10
    836e:	66 0f 73 d7 38       	psrlq  xmm7,0x38
    8373:	66 41 0f db cb       	pand   xmm1,xmm11
    8378:	0f c6 df 88          	shufps xmm3,xmm7,0x88
    837c:	f3 0f 6f 7d 70       	movdqu xmm7,XMMWORD PTR [rbp+0x70]
    8381:	66 0f 73 d7 38       	psrlq  xmm7,0x38
    8386:	44 0f c6 cf 88       	shufps xmm9,xmm7,0x88
    838b:	66 0f 6f fb          	movdqa xmm7,xmm3
    838f:	66 41 0f 61 d9       	punpcklwd xmm3,xmm9
    8394:	66 41 0f 69 f9       	punpckhwd xmm7,xmm9
    8399:	66 44 0f 6f cb       	movdqa xmm9,xmm3
    839e:	66 44 0f 69 cf       	punpckhwd xmm9,xmm7
    83a3:	66 0f 61 df          	punpcklwd xmm3,xmm7
    83a7:	66 41 0f 6f fd       	movdqa xmm7,xmm13
    83ac:	66 41 0f 61 d9       	punpcklwd xmm3,xmm9
    83b1:	66 0f 60 fc          	punpcklbw xmm7,xmm4
    83b5:	66 44 0f 6f c8       	movdqa xmm9,xmm0
    83ba:	66 41 0f db db       	pand   xmm3,xmm11
    83bf:	66 44 0f 68 ec       	punpckhbw xmm13,xmm4
    83c4:	66 0f 67 cb          	packuswb xmm1,xmm3
    83c8:	66 41 0f 6f d8       	movdqa xmm3,xmm8
    83cd:	66 44 0f 68 c6       	punpckhbw xmm8,xmm6
    83d2:	66 0f 60 de          	punpcklbw xmm3,xmm6
    83d6:	66 0f 6f f2          	movdqa xmm6,xmm2
    83da:	66 0f 68 d5          	punpckhbw xmm2,xmm5
    83de:	66 0f 60 f5          	punpcklbw xmm6,xmm5
    83e2:	66 0f 6f eb          	movdqa xmm5,xmm3
    83e6:	66 0f 68 c1          	punpckhbw xmm0,xmm1
    83ea:	66 44 0f 60 c9       	punpcklbw xmm9,xmm1
    83ef:	66 0f 60 ef          	punpcklbw xmm5,xmm7
    83f3:	66 0f 68 df          	punpckhbw xmm3,xmm7
    83f7:	66 0f 6f ce          	movdqa xmm1,xmm6
    83fb:	66 0f 6f fe          	movdqa xmm7,xmm6
    83ff:	66 0f 6f f2          	movdqa xmm6,xmm2
    8403:	66 0f 60 f0          	punpcklbw xmm6,xmm0
    8407:	66 0f 68 d0          	punpckhbw xmm2,xmm0
    840b:	66 41 0f 60 f9       	punpcklbw xmm7,xmm9
    8410:	66 0f 6f c5          	movdqa xmm0,xmm5
    8414:	66 0f 6f e3          	movdqa xmm4,xmm3
    8418:	66 41 0f 68 c9       	punpckhbw xmm1,xmm9
    841d:	66 0f 60 c7          	punpcklbw xmm0,xmm7
    8421:	66 41 0f 6f d8       	movdqa xmm3,xmm8
    8426:	66 45 0f 68 c5       	punpckhbw xmm8,xmm13
    842b:	0f 11 83 58 ff ff ff 	movups XMMWORD PTR [rbx-0xa8],xmm0
    8432:	66 0f 6f c4          	movdqa xmm0,xmm4
    8436:	66 41 0f 60 dd       	punpcklbw xmm3,xmm13
    843b:	66 0f 68 ef          	punpckhbw xmm5,xmm7
    843f:	66 0f 60 c1          	punpcklbw xmm0,xmm1
    8443:	66 0f 68 e1          	punpckhbw xmm4,xmm1
    8447:	0f 11 ab 68 ff ff ff 	movups XMMWORD PTR [rbx-0x98],xmm5
    844e:	0f 11 83 78 ff ff ff 	movups XMMWORD PTR [rbx-0x88],xmm0
    8455:	66 0f 6f c3          	movdqa xmm0,xmm3
    8459:	66 0f 68 de          	punpckhbw xmm3,xmm6
    845d:	66 0f 60 c6          	punpcklbw xmm0,xmm6
    8461:	0f 11 63 88          	movups XMMWORD PTR [rbx-0x78],xmm4
    8465:	0f 11 43 98          	movups XMMWORD PTR [rbx-0x68],xmm0
    8469:	66 41 0f 6f c0       	movdqa xmm0,xmm8
    846e:	66 44 0f 68 c2       	punpckhbw xmm8,xmm2
    8473:	66 0f 60 c2          	punpcklbw xmm0,xmm2
    8477:	0f 11 5b a8          	movups XMMWORD PTR [rbx-0x58],xmm3
    847b:	0f 11 43 b8          	movups XMMWORD PTR [rbx-0x48],xmm0
    847f:	44 0f 11 43 c8       	movups XMMWORD PTR [rbx-0x38],xmm8
    8484:	48 8b 85 80 00 00 00 	mov    rax,QWORD PTR [rbp+0x80]
    848b:	48 89 c2             	mov    rdx,rax
    848e:	88 43 d8             	mov    BYTE PTR [rbx-0x28],al
    8491:	48 c1 ea 10          	shr    rdx,0x10
    8495:	88 63 d9             	mov    BYTE PTR [rbx-0x27],ah
    8498:	88 53 da             	mov    BYTE PTR [rbx-0x26],dl
    849b:	48 89 c2             	mov    rdx,rax
    849e:	48 c1 ea 18          	shr    rdx,0x18
    84a2:	88 53 db             	mov    BYTE PTR [rbx-0x25],dl
    84a5:	48 89 c2             	mov    rdx,rax
    84a8:	48 c1 ea 20          	shr    rdx,0x20
    84ac:	88 53 dc             	mov    BYTE PTR [rbx-0x24],dl
    84af:	48 89 c2             	mov    rdx,rax
    84b2:	48 c1 ea 28          	shr    rdx,0x28
    84b6:	88 53 dd             	mov    BYTE PTR [rbx-0x23],dl
    84b9:	48 89 c2             	mov    rdx,rax
    84bc:	48 c1 e8 38          	shr    rax,0x38
    84c0:	48 c1 ea 30          	shr    rdx,0x30
    84c4:	88 43 df             	mov    BYTE PTR [rbx-0x21],al
    84c7:	88 53 de             	mov    BYTE PTR [rbx-0x22],dl
    84ca:	48 8b 85 88 00 00 00 	mov    rax,QWORD PTR [rbp+0x88]
    84d1:	48 89 c2             	mov    rdx,rax
    84d4:	88 43 e0             	mov    BYTE PTR [rbx-0x20],al
    84d7:	48 c1 ea 10          	shr    rdx,0x10
    84db:	88 63 e1             	mov    BYTE PTR [rbx-0x1f],ah
    84de:	88 53 e2             	mov    BYTE PTR [rbx-0x1e],dl
    84e1:	48 89 c2             	mov    rdx,rax
    84e4:	48 c1 ea 18          	shr    rdx,0x18
    84e8:	88 53 e3             	mov    BYTE PTR [rbx-0x1d],dl
    84eb:	48 89 c2             	mov    rdx,rax
    84ee:	48 c1 ea 20          	shr    rdx,0x20
    84f2:	88 53 e4             	mov    BYTE PTR [rbx-0x1c],dl
    84f5:	48 89 c2             	mov    rdx,rax
    84f8:	48 c1 ea 28          	shr    rdx,0x28
    84fc:	88 53 e5             	mov    BYTE PTR [rbx-0x1b],dl
    84ff:	48 89 c2             	mov    rdx,rax
    8502:	48 c1 e8 38          	shr    rax,0x38
    8506:	48 c1 ea 30          	shr    rdx,0x30
    850a:	88 43 e7             	mov    BYTE PTR [rbx-0x19],al
    850d:	88 53 e6             	mov    BYTE PTR [rbx-0x1a],dl
    8510:	48 8b 85 90 00 00 00 	mov    rax,QWORD PTR [rbp+0x90]
    8517:	48 89 c2             	mov    rdx,rax
    851a:	88 43 e8             	mov    BYTE PTR [rbx-0x18],al
    851d:	48 c1 ea 10          	shr    rdx,0x10
    8521:	88 63 e9             	mov    BYTE PTR [rbx-0x17],ah
    8524:	88 53 ea             	mov    BYTE PTR [rbx-0x16],dl
    8527:	48 89 c2             	mov    rdx,rax
    852a:	48 c1 ea 18          	shr    rdx,0x18
    852e:	88 53 eb             	mov    BYTE PTR [rbx-0x15],dl
    8531:	48 89 c2             	mov    rdx,rax
    8534:	48 c1 ea 20          	shr    rdx,0x20
    8538:	88 53 ec             	mov    BYTE PTR [rbx-0x14],dl
    853b:	48 89 c2             	mov    rdx,rax
    853e:	48 c1 ea 28          	shr    rdx,0x28
    8542:	88 53 ed             	mov    BYTE PTR [rbx-0x13],dl
    8545:	48 89 c2             	mov    rdx,rax
    8548:	48 c1 e8 38          	shr    rax,0x38
    854c:	48 c1 ea 30          	shr    rdx,0x30
    8550:	88 43 ef             	mov    BYTE PTR [rbx-0x11],al
    8553:	88 53 ee             	mov    BYTE PTR [rbx-0x12],dl
    8556:	48 8b 85 98 00 00 00 	mov    rax,QWORD PTR [rbp+0x98]
    855d:	48 89 c2             	mov    rdx,rax
    8560:	88 43 f0             	mov    BYTE PTR [rbx-0x10],al
    8563:	48 c1 ea 10          	shr    rdx,0x10
    8567:	88 63 f1             	mov    BYTE PTR [rbx-0xf],ah
    856a:	88 53 f2             	mov    BYTE PTR [rbx-0xe],dl
    856d:	48 89 c2             	mov    rdx,rax
    8570:	48 c1 ea 18          	shr    rdx,0x18
    8574:	88 53 f3             	mov    BYTE PTR [rbx-0xd],dl
    8577:	48 89 c2             	mov    rdx,rax
    857a:	48 c1 ea 20          	shr    rdx,0x20
    857e:	88 53 f4             	mov    BYTE PTR [rbx-0xc],dl
    8581:	48 89 c2             	mov    rdx,rax
    8584:	48 c1 ea 28          	shr    rdx,0x28
    8588:	88 53 f5             	mov    BYTE PTR [rbx-0xb],dl
    858b:	48 89 c2             	mov    rdx,rax
    858e:	48 c1 e8 38          	shr    rax,0x38
    8592:	48 c1 ea 30          	shr    rdx,0x30
    8596:	88 43 f7             	mov    BYTE PTR [rbx-0x9],al
    8599:	88 53 f6             	mov    BYTE PTR [rbx-0xa],dl
    859c:	48 8b 85 a0 00 00 00 	mov    rax,QWORD PTR [rbp+0xa0]
    85a3:	48 89 43 f8          	mov    QWORD PTR [rbx-0x8],rax
    85a7:	49 83 ec 01          	sub    r12,0x1
    85ab:	74 45                	je     85f2 <pqcrystals_kyber_fips202_ref_shake128_squeezeblocks+0x6c2>
    85ad:	48 89 ef             	mov    rdi,rbp
    85b0:	e8 eb d9 ff ff       	call   5fa0 <KeccakF1600_StatePermute>
    85b5:	48 89 d8             	mov    rax,rbx
    85b8:	4c 29 e8             	sub    rax,r13
    85bb:	48 83 c0 07          	add    rax,0x7
    85bf:	48 83 f8 7e          	cmp    rax,0x7e
    85c3:	0f 87 9f f9 ff ff    	ja     7f68 <pqcrystals_kyber_fips202_ref_shake128_squeezeblocks+0x38>
    85c9:	31 c0                	xor    eax,eax
    85cb:	0f 1f 44 00 00       	nop    DWORD PTR [rax+rax*1+0x0]
    85d0:	48 8b 54 05 00       	mov    rdx,QWORD PTR [rbp+rax*1+0x0]
    85d5:	48 89 14 03          	mov    QWORD PTR [rbx+rax*1],rdx
    85d9:	48 83 c0 08          	add    rax,0x8
    85dd:	48 3d a8 00 00 00    	cmp    rax,0xa8
    85e3:	75 eb                	jne    85d0 <pqcrystals_kyber_fips202_ref_shake128_squeezeblocks+0x6a0>
    85e5:	48 81 c3 a8 00 00 00 	add    rbx,0xa8
    85ec:	49 83 ec 01          	sub    r12,0x1
    85f0:	75 bb                	jne    85ad <pqcrystals_kyber_fips202_ref_shake128_squeezeblocks+0x67d>
    85f2:	48 83 c4 08          	add    rsp,0x8
    85f6:	5b                   	pop    rbx
    85f7:	5d                   	pop    rbp
    85f8:	41 5c                	pop    r12
    85fa:	41 5d                	pop    r13
    85fc:	c3                   	ret    
    85fd:	c3                   	ret    
    85fe:	66 90                	xchg   ax,ax

0000000000008600 <pqcrystals_kyber_fips202_ref_shake256_init>:
    8600:	f3 0f 1e fa          	endbr64 
    8604:	48 c7 07 00 00 00 00 	mov    QWORD PTR [rdi],0x0
    860b:	48 89 fa             	mov    rdx,rdi
    860e:	48 8d 7f 08          	lea    rdi,[rdi+0x8]
    8612:	31 c0                	xor    eax,eax
    8614:	48 c7 87 b8 00 00 00 	mov    QWORD PTR [rdi+0xb8],0x0
    861b:	00 00 00 00 
    861f:	48 89 d1             	mov    rcx,rdx
    8622:	48 83 e7 f8          	and    rdi,0xfffffffffffffff8
    8626:	48 29 f9             	sub    rcx,rdi
    8629:	81 c1 c8 00 00 00    	add    ecx,0xc8
    862f:	c1 e9 03             	shr    ecx,0x3
    8632:	f3 48 ab             	rep stos QWORD PTR es:[rdi],rax
    8635:	c7 82 c8 00 00 00 00 	mov    DWORD PTR [rdx+0xc8],0x0
    863c:	00 00 00 
    863f:	c3                   	ret    

0000000000008640 <pqcrystals_kyber_fips202_ref_shake256_absorb>:
    8640:	f3 0f 1e fa          	endbr64 
    8644:	41 54                	push   r12
    8646:	49 89 d4             	mov    r12,rdx
    8649:	55                   	push   rbp
    864a:	48 89 f5             	mov    rbp,rsi
    864d:	53                   	push   rbx
    864e:	8b 87 c8 00 00 00    	mov    eax,DWORD PTR [rdi+0xc8]
    8654:	48 89 fb             	mov    rbx,rdi
    8657:	48 01 c2             	add    rdx,rax
    865a:	49 89 c0             	mov    r8,rax
    865d:	48 81 fa 87 00 00 00 	cmp    rdx,0x87
    8664:	0f 86 c4 00 00 00    	jbe    872e <pqcrystals_kyber_fips202_ref_shake256_absorb+0xee>
    866a:	41 b9 88 00 00 00    	mov    r9d,0x88
    8670:	41 29 c1             	sub    r9d,eax
    8673:	3d 87 00 00 00       	cmp    eax,0x87
    8678:	77 55                	ja     86cf <pqcrystals_kyber_fips202_ref_shake256_absorb+0x8f>
    867a:	66 0f 1f 44 00 00    	nop    WORD PTR [rax+rax*1+0x0]
    8680:	44 89 c0             	mov    eax,r8d
    8683:	48 89 ef             	mov    rdi,rbp
    8686:	66 2e 0f 1f 84 00 00 	cs nop WORD PTR [rax+rax*1+0x0]
    868d:	00 00 00 
    8690:	89 c1                	mov    ecx,eax
    8692:	89 c2                	mov    edx,eax
    8694:	0f b6 37             	movzx  esi,BYTE PTR [rdi]
    8697:	83 c0 01             	add    eax,0x1
    869a:	83 e1 07             	and    ecx,0x7
    869d:	c1 ea 03             	shr    edx,0x3
    86a0:	48 83 c7 01          	add    rdi,0x1
    86a4:	c1 e1 03             	shl    ecx,0x3
    86a7:	48 d3 e6             	shl    rsi,cl
    86aa:	48 31 34 d3          	xor    QWORD PTR [rbx+rdx*8],rsi
    86ae:	3d 88 00 00 00       	cmp    eax,0x88
    86b3:	75 db                	jne    8690 <pqcrystals_kyber_fips202_ref_shake256_absorb+0x50>
    86b5:	44 29 c0             	sub    eax,r8d
    86b8:	41 83 c0 01          	add    r8d,0x1
    86bc:	ba 01 00 00 00       	mov    edx,0x1
    86c1:	41 81 f8 88 00 00 00 	cmp    r8d,0x88
    86c8:	48 0f 47 c2          	cmova  rax,rdx
    86cc:	48 01 c5             	add    rbp,rax
    86cf:	4d 29 cc             	sub    r12,r9
    86d2:	48 89 df             	mov    rdi,rbx
    86d5:	e8 c6 d8 ff ff       	call   5fa0 <KeccakF1600_StatePermute>
    86da:	45 31 c0             	xor    r8d,r8d
    86dd:	41 b9 88 00 00 00    	mov    r9d,0x88
    86e3:	31 c0                	xor    eax,eax
    86e5:	49 81 fc 87 00 00 00 	cmp    r12,0x87
    86ec:	77 92                	ja     8680 <pqcrystals_kyber_fips202_ref_shake256_absorb+0x40>
    86ee:	49 39 c4             	cmp    r12,rax
    86f1:	76 2f                	jbe    8722 <pqcrystals_kyber_fips202_ref_shake256_absorb+0xe2>
    86f3:	0f 1f 44 00 00       	nop    DWORD PTR [rax+rax*1+0x0]
    86f8:	44 89 c1             	mov    ecx,r8d
    86fb:	44 89 c0             	mov    eax,r8d
    86fe:	0f b6 55 00          	movzx  edx,BYTE PTR [rbp+0x0]
    8702:	48 83 c5 01          	add    rbp,0x1
    8706:	83 e1 07             	and    ecx,0x7
    8709:	c1 e8 03             	shr    eax,0x3
    870c:	c1 e1 03             	shl    ecx,0x3
    870f:	48 d3 e2             	shl    rdx,cl
    8712:	48 31 14 c3          	xor    QWORD PTR [rbx+rax*8],rdx
    8716:	41 8d 40 01          	lea    eax,[r8+0x1]
    871a:	49 89 c0             	mov    r8,rax
    871d:	4c 39 e0             	cmp    rax,r12
    8720:	72 d6                	jb     86f8 <pqcrystals_kyber_fips202_ref_shake256_absorb+0xb8>
    8722:	44 89 83 c8 00 00 00 	mov    DWORD PTR [rbx+0xc8],r8d
    8729:	5b                   	pop    rbx
    872a:	5d                   	pop    rbp
    872b:	41 5c                	pop    r12
    872d:	c3                   	ret    
    872e:	49 89 d4             	mov    r12,rdx
    8731:	eb bb                	jmp    86ee <pqcrystals_kyber_fips202_ref_shake256_absorb+0xae>
    8733:	66 66 2e 0f 1f 84 00 	data16 cs nop WORD PTR [rax+rax*1+0x0]
    873a:	00 00 00 00 
    873e:	66 90                	xchg   ax,ax

0000000000008740 <pqcrystals_kyber_fips202_ref_shake256_finalize>:
    8740:	f3 0f 1e fa          	endbr64 
    8744:	8b 8f c8 00 00 00    	mov    ecx,DWORD PTR [rdi+0xc8]
    874a:	ba 1f 00 00 00       	mov    edx,0x1f
    874f:	89 c8                	mov    eax,ecx
    8751:	83 e1 07             	and    ecx,0x7
    8754:	c1 e8 03             	shr    eax,0x3
    8757:	c1 e1 03             	shl    ecx,0x3
    875a:	48 d3 e2             	shl    rdx,cl
    875d:	48 31 14 c7          	xor    QWORD PTR [rdi+rax*8],rdx
    8761:	c7 87 c8 00 00 00 88 	mov    DWORD PTR [rdi+0xc8],0x88
    8768:	00 00 00 
    876b:	48 0f ba bf 80 00 00 	btc    QWORD PTR [rdi+0x80],0x3f
    8772:	00 3f 
    8774:	c3                   	ret    
    8775:	66 66 2e 0f 1f 84 00 	data16 cs nop WORD PTR [rax+rax*1+0x0]
    877c:	00 00 00 00 

0000000000008780 <pqcrystals_kyber_fips202_ref_shake256_squeeze>:
    8780:	f3 0f 1e fa          	endbr64 
    8784:	41 54                	push   r12
    8786:	55                   	push   rbp
    8787:	48 89 d5             	mov    rbp,rdx
    878a:	53                   	push   rbx
    878b:	44 8b 8a c8 00 00 00 	mov    r9d,DWORD PTR [rdx+0xc8]
    8792:	48 85 f6             	test   rsi,rsi
    8795:	0f 84 c5 00 00 00    	je     8860 <pqcrystals_kyber_fips202_ref_shake256_squeeze+0xe0>
    879b:	48 89 fb             	mov    rbx,rdi
    879e:	49 89 f4             	mov    r12,rsi
    87a1:	41 81 f9 88 00 00 00 	cmp    r9d,0x88
    87a8:	0f 84 89 00 00 00    	je     8837 <pqcrystals_kyber_fips202_ref_shake256_squeeze+0xb7>
    87ae:	66 90                	xchg   ax,ax
    87b0:	41 81 f9 87 00 00 00 	cmp    r9d,0x87
    87b7:	0f 87 b3 00 00 00    	ja     8870 <pqcrystals_kyber_fips202_ref_shake256_squeeze+0xf0>
    87bd:	44 89 c8             	mov    eax,r9d
    87c0:	49 8d 3c 04          	lea    rdi,[r12+rax*1]
    87c4:	48 39 f8             	cmp    rax,rdi
    87c7:	0f 83 a3 00 00 00    	jae    8870 <pqcrystals_kyber_fips202_ref_shake256_squeeze+0xf0>
    87cd:	48 89 de             	mov    rsi,rbx
    87d0:	44 89 ca             	mov    edx,r9d
    87d3:	45 8d 41 01          	lea    r8d,[r9+0x1]
    87d7:	eb 16                	jmp    87ef <pqcrystals_kyber_fips202_ref_shake256_squeeze+0x6f>
    87d9:	0f 1f 80 00 00 00 00 	nop    DWORD PTR [rax+0x0]
    87e0:	48 8d 46 ff          	lea    rax,[rsi-0x1]
    87e4:	48 29 d8             	sub    rax,rbx
    87e7:	4c 01 c0             	add    rax,r8
    87ea:	48 39 c7             	cmp    rdi,rax
    87ed:	76 61                	jbe    8850 <pqcrystals_kyber_fips202_ref_shake256_squeeze+0xd0>
    87ef:	89 d0                	mov    eax,edx
    87f1:	89 d1                	mov    ecx,edx
    87f3:	48 83 c6 01          	add    rsi,0x1
    87f7:	83 c2 01             	add    edx,0x1
    87fa:	c1 e8 03             	shr    eax,0x3
    87fd:	83 e1 07             	and    ecx,0x7
    8800:	48 8b 44 c5 00       	mov    rax,QWORD PTR [rbp+rax*8+0x0]
    8805:	c1 e1 03             	shl    ecx,0x3
    8808:	48 d3 e8             	shr    rax,cl
    880b:	88 46 ff             	mov    BYTE PTR [rsi-0x1],al
    880e:	81 fa 88 00 00 00    	cmp    edx,0x88
    8814:	75 ca                	jne    87e0 <pqcrystals_kyber_fips202_ref_shake256_squeeze+0x60>
    8816:	44 29 ca             	sub    edx,r9d
    8819:	41 b9 88 00 00 00    	mov    r9d,0x88
    881f:	49 29 d4             	sub    r12,rdx
    8822:	4d 85 e4             	test   r12,r12
    8825:	74 39                	je     8860 <pqcrystals_kyber_fips202_ref_shake256_squeeze+0xe0>
    8827:	48 89 f3             	mov    rbx,rsi
    882a:	41 81 f9 88 00 00 00 	cmp    r9d,0x88
    8831:	0f 85 79 ff ff ff    	jne    87b0 <pqcrystals_kyber_fips202_ref_shake256_squeeze+0x30>
    8837:	48 89 ef             	mov    rdi,rbp
    883a:	e8 61 d7 ff ff       	call   5fa0 <KeccakF1600_StatePermute>
    883f:	4c 89 e7             	mov    rdi,r12
    8842:	45 31 c9             	xor    r9d,r9d
    8845:	eb 86                	jmp    87cd <pqcrystals_kyber_fips202_ref_shake256_squeeze+0x4d>
    8847:	66 0f 1f 84 00 00 00 	nop    WORD PTR [rax+rax*1+0x0]
    884e:	00 00 
    8850:	89 d0                	mov    eax,edx
    8852:	44 29 c8             	sub    eax,r9d
    8855:	41 89 d1             	mov    r9d,edx
    8858:	49 29 c4             	sub    r12,rax
    885b:	4d 85 e4             	test   r12,r12
    885e:	75 c7                	jne    8827 <pqcrystals_kyber_fips202_ref_shake256_squeeze+0xa7>
    8860:	5b                   	pop    rbx
    8861:	44 89 8d c8 00 00 00 	mov    DWORD PTR [rbp+0xc8],r9d
    8868:	5d                   	pop    rbp
    8869:	41 5c                	pop    r12
    886b:	c3                   	ret    
    886c:	0f 1f 40 00          	nop    DWORD PTR [rax+0x0]
    8870:	48 89 de             	mov    rsi,rbx
    8873:	eb b2                	jmp    8827 <pqcrystals_kyber_fips202_ref_shake256_squeeze+0xa7>
    8875:	66 66 2e 0f 1f 84 00 	data16 cs nop WORD PTR [rax+rax*1+0x0]
    887c:	00 00 00 00 

0000000000008880 <pqcrystals_kyber_fips202_ref_shake256_absorb_once>:
    8880:	f3 0f 1e fa          	endbr64 
    8884:	53                   	push   rbx
    8885:	48 89 d1             	mov    rcx,rdx
    8888:	48 89 fb             	mov    rbx,rdi
    888b:	48 89 f2             	mov    rdx,rsi
    888e:	41 b8 1f 00 00 00    	mov    r8d,0x1f
    8894:	be 88 00 00 00       	mov    esi,0x88
    8899:	e8 b2 df ff ff       	call   6850 <keccak_absorb_once.constprop.1>
    889e:	c7 83 c8 00 00 00 88 	mov    DWORD PTR [rbx+0xc8],0x88
    88a5:	00 00 00 
    88a8:	5b                   	pop    rbx
    88a9:	c3                   	ret    
    88aa:	66 0f 1f 44 00 00    	nop    WORD PTR [rax+rax*1+0x0]

00000000000088b0 <pqcrystals_kyber_fips202_ref_shake256_squeezeblocks>:
    88b0:	f3 0f 1e fa          	endbr64 
    88b4:	48 85 f6             	test   rsi,rsi
    88b7:	0f 84 a0 05 00 00    	je     8e5d <pqcrystals_kyber_fips202_ref_shake256_squeezeblocks+0x5ad>
    88bd:	41 55                	push   r13
    88bf:	4c 8d 6a 08          	lea    r13,[rdx+0x8]
    88c3:	41 54                	push   r12
    88c5:	49 89 f4             	mov    r12,rsi
    88c8:	55                   	push   rbp
    88c9:	48 89 d5             	mov    rbp,rdx
    88cc:	53                   	push   rbx
    88cd:	48 89 fb             	mov    rbx,rdi
    88d0:	48 83 ec 08          	sub    rsp,0x8
    88d4:	66 44 0f 6f 1d 63 27 	movdqa xmm11,XMMWORD PTR [rip+0x2763]        # b040 <_IO_stdin_used+0x40>
    88db:	00 00 
    88dd:	e9 2d 05 00 00       	jmp    8e0f <pqcrystals_kyber_fips202_ref_shake256_squeezeblocks+0x55f>
    88e2:	66 0f 1f 44 00 00    	nop    WORD PTR [rax+rax*1+0x0]
    88e8:	f3 44 0f 6f 55 20    	movdqu xmm10,XMMWORD PTR [rbp+0x20]
    88ee:	f3 0f 6f 55 30       	movdqu xmm2,XMMWORD PTR [rbp+0x30]
    88f3:	48 81 c3 88 00 00 00 	add    rbx,0x88
    88fa:	f3 0f 6f 5d 40       	movdqu xmm3,XMMWORD PTR [rbp+0x40]
    88ff:	f3 0f 6f 4d 00       	movdqu xmm1,XMMWORD PTR [rbp+0x0]
    8904:	66 45 0f 6f f2       	movdqa xmm14,xmm10
    8909:	f3 44 0f 6f 4d 60    	movdqu xmm9,XMMWORD PTR [rbp+0x60]
    890f:	f3 44 0f 6f 65 10    	movdqu xmm12,XMMWORD PTR [rbp+0x10]
    8915:	44 0f c6 f2 88       	shufps xmm14,xmm2,0x88
    891a:	f3 0f 6f 55 50       	movdqu xmm2,XMMWORD PTR [rbp+0x50]
    891f:	66 0f 6f e3          	movdqa xmm4,xmm3
    8923:	66 0f 6f c1          	movdqa xmm0,xmm1
    8927:	66 41 0f 6f f9       	movdqa xmm7,xmm9
    892c:	41 0f c6 c4 88       	shufps xmm0,xmm12,0x88
    8931:	66 0f 6f e8          	movdqa xmm5,xmm0
    8935:	66 45 0f 6f ee       	movdqa xmm13,xmm14
    893a:	0f c6 e2 88          	shufps xmm4,xmm2,0x88
    893e:	f3 0f 6f 55 70       	movdqu xmm2,XMMWORD PTR [rbp+0x70]
    8943:	66 41 0f 69 ee       	punpckhwd xmm5,xmm14
    8948:	66 41 0f 72 d5 10    	psrld  xmm13,0x10
    894e:	0f c6 fa 88          	shufps xmm7,xmm2,0x88
    8952:	66 0f 6f d0          	movdqa xmm2,xmm0
    8956:	66 44 0f 6f ff       	movdqa xmm15,xmm7
    895b:	66 41 0f 61 d6       	punpcklwd xmm2,xmm14
    8960:	66 41 0f 72 d7 10    	psrld  xmm15,0x10
    8966:	66 0f 6f f2          	movdqa xmm6,xmm2
    896a:	66 41 0f 72 d6 18    	psrld  xmm14,0x18
    8970:	66 0f 61 d5          	punpcklwd xmm2,xmm5
    8974:	66 0f 69 f5          	punpckhwd xmm6,xmm5
    8978:	66 0f 6f ec          	movdqa xmm5,xmm4
    897c:	66 0f 61 d6          	punpcklwd xmm2,xmm6
    8980:	66 0f 61 ef          	punpcklwd xmm5,xmm7
    8984:	66 0f 6f f4          	movdqa xmm6,xmm4
    8988:	66 0f 69 f7          	punpckhwd xmm6,xmm7
    898c:	66 0f 72 d7 18       	psrld  xmm7,0x18
    8991:	66 44 0f 6f c5       	movdqa xmm8,xmm5
    8996:	66 44 0f 69 c6       	punpckhwd xmm8,xmm6
    899b:	66 0f 61 ee          	punpcklwd xmm5,xmm6
    899f:	66 41 0f 6f f3       	movdqa xmm6,xmm11
    89a4:	66 41 0f 61 e8       	punpcklwd xmm5,xmm8
    89a9:	66 45 0f 6f c3       	movdqa xmm8,xmm11
    89ae:	66 0f db f5          	pand   xmm6,xmm5
    89b2:	66 0f 71 d5 08       	psrlw  xmm5,0x8
    89b7:	66 44 0f db c2       	pand   xmm8,xmm2
    89bc:	66 44 0f 67 c6       	packuswb xmm8,xmm6
    89c1:	66 0f 71 d2 08       	psrlw  xmm2,0x8
    89c6:	66 0f 6f f0          	movdqa xmm6,xmm0
    89ca:	66 41 0f db eb       	pand   xmm5,xmm11
    89cf:	66 0f 72 d6 10       	psrld  xmm6,0x10
    89d4:	66 41 0f db d3       	pand   xmm2,xmm11
    89d9:	66 0f 67 d5          	packuswb xmm2,xmm5
    89dd:	66 0f 72 d0 18       	psrld  xmm0,0x18
    89e2:	66 0f 6f ee          	movdqa xmm5,xmm6
    89e6:	66 41 0f 61 f5       	punpcklwd xmm6,xmm13
    89eb:	66 41 0f 69 ed       	punpckhwd xmm5,xmm13
    89f0:	66 44 0f 6f ee       	movdqa xmm13,xmm6
    89f5:	66 0f 61 f5          	punpcklwd xmm6,xmm5
    89f9:	66 44 0f 69 ed       	punpckhwd xmm13,xmm5
    89fe:	66 0f 6f ec          	movdqa xmm5,xmm4
    8a02:	66 0f 72 d5 10       	psrld  xmm5,0x10
    8a07:	66 0f 72 d4 18       	psrld  xmm4,0x18
    8a0c:	66 41 0f 61 f5       	punpcklwd xmm6,xmm13
    8a11:	66 44 0f 6f ed       	movdqa xmm13,xmm5
    8a16:	66 41 0f 61 ef       	punpcklwd xmm5,xmm15
    8a1b:	66 41 0f db f3       	pand   xmm6,xmm11
    8a20:	66 45 0f 69 ef       	punpckhwd xmm13,xmm15
    8a25:	66 44 0f 6f fd       	movdqa xmm15,xmm5
    8a2a:	66 45 0f 69 fd       	punpckhwd xmm15,xmm13
    8a2f:	66 41 0f 61 ed       	punpcklwd xmm5,xmm13
    8a34:	66 44 0f 6f ee       	movdqa xmm13,xmm6
    8a39:	66 41 0f 61 ef       	punpcklwd xmm5,xmm15
    8a3e:	f3 44 0f 6f 7d 70    	movdqu xmm15,XMMWORD PTR [rbp+0x70]
    8a44:	66 41 0f db eb       	pand   xmm5,xmm11
    8a49:	66 44 0f 67 ed       	packuswb xmm13,xmm5
    8a4e:	66 41 0f 73 d7 30    	psrlq  xmm15,0x30
    8a54:	66 0f 6f e8          	movdqa xmm5,xmm0
    8a58:	66 41 0f 61 c6       	punpcklwd xmm0,xmm14
    8a5d:	66 41 0f 69 ee       	punpckhwd xmm5,xmm14
    8a62:	f3 44 0f 6f 75 70    	movdqu xmm14,XMMWORD PTR [rbp+0x70]
    8a68:	66 0f 6f f0          	movdqa xmm6,xmm0
    8a6c:	66 0f 61 c5          	punpcklwd xmm0,xmm5
    8a70:	66 0f 69 f5          	punpckhwd xmm6,xmm5
    8a74:	66 41 0f 73 d6 28    	psrlq  xmm14,0x28
    8a7a:	66 0f 6f ec          	movdqa xmm5,xmm4
    8a7e:	66 0f 61 e7          	punpcklwd xmm4,xmm7
    8a82:	66 0f 69 ef          	punpckhwd xmm5,xmm7
    8a86:	66 0f 61 c6          	punpcklwd xmm0,xmm6
    8a8a:	f3 0f 6f 7d 70       	movdqu xmm7,XMMWORD PTR [rbp+0x70]
    8a8f:	66 0f 6f f4          	movdqa xmm6,xmm4
    8a93:	66 0f 61 e5          	punpcklwd xmm4,xmm5
    8a97:	66 41 0f db c3       	pand   xmm0,xmm11
    8a9c:	66 0f 69 f5          	punpckhwd xmm6,xmm5
    8aa0:	f3 0f 6f 6d 30       	movdqu xmm5,XMMWORD PTR [rbp+0x30]
    8aa5:	66 0f 73 d7 20       	psrlq  xmm7,0x20
    8aaa:	66 0f 61 e6          	punpcklwd xmm4,xmm6
    8aae:	66 0f 6f f1          	movdqa xmm6,xmm1
    8ab2:	66 0f 73 d6 20       	psrlq  xmm6,0x20
    8ab7:	66 0f 73 d5 20       	psrlq  xmm5,0x20
    8abc:	66 41 0f db e3       	pand   xmm4,xmm11
    8ac1:	66 0f 67 c4          	packuswb xmm0,xmm4
    8ac5:	66 41 0f 6f e4       	movdqa xmm4,xmm12
    8aca:	66 0f 73 d4 20       	psrlq  xmm4,0x20
    8acf:	0f c6 f4 88          	shufps xmm6,xmm4,0x88
    8ad3:	66 41 0f 6f e2       	movdqa xmm4,xmm10
    8ad8:	66 0f 73 d4 20       	psrlq  xmm4,0x20
    8add:	0f c6 e5 88          	shufps xmm4,xmm5,0x88
    8ae1:	66 0f 6f ee          	movdqa xmm5,xmm6
    8ae5:	66 0f 61 f4          	punpcklwd xmm6,xmm4
    8ae9:	66 0f 69 ec          	punpckhwd xmm5,xmm4
    8aed:	66 0f 6f e6          	movdqa xmm4,xmm6
    8af1:	66 0f 69 e5          	punpckhwd xmm4,xmm5
    8af5:	66 0f 61 f5          	punpcklwd xmm6,xmm5
    8af9:	f3 0f 6f 6d 50       	movdqu xmm5,XMMWORD PTR [rbp+0x50]
    8afe:	66 0f 61 f4          	punpcklwd xmm6,xmm4
    8b02:	66 0f 6f e3          	movdqa xmm4,xmm3
    8b06:	66 0f 73 d5 20       	psrlq  xmm5,0x20
    8b0b:	66 0f 73 d4 20       	psrlq  xmm4,0x20
    8b10:	66 41 0f db f3       	pand   xmm6,xmm11
    8b15:	0f c6 e5 88          	shufps xmm4,xmm5,0x88
    8b19:	66 41 0f 6f e9       	movdqa xmm5,xmm9
    8b1e:	66 0f 73 d5 20       	psrlq  xmm5,0x20
    8b23:	0f c6 ef 88          	shufps xmm5,xmm7,0x88
    8b27:	66 0f 6f fc          	movdqa xmm7,xmm4
    8b2b:	66 0f 61 e5          	punpcklwd xmm4,xmm5
    8b2f:	66 0f 69 fd          	punpckhwd xmm7,xmm5
    8b33:	66 0f 6f ec          	movdqa xmm5,xmm4
    8b37:	66 0f 69 ef          	punpckhwd xmm5,xmm7
    8b3b:	66 0f 61 e7          	punpcklwd xmm4,xmm7
    8b3f:	f3 0f 6f 7d 30       	movdqu xmm7,XMMWORD PTR [rbp+0x30]
    8b44:	66 0f 61 e5          	punpcklwd xmm4,xmm5
    8b48:	66 0f 6f e9          	movdqa xmm5,xmm1
    8b4c:	66 0f 73 d5 28       	psrlq  xmm5,0x28
    8b51:	66 0f 73 d7 28       	psrlq  xmm7,0x28
    8b56:	66 41 0f db e3       	pand   xmm4,xmm11
    8b5b:	66 0f 67 f4          	packuswb xmm6,xmm4
    8b5f:	66 41 0f 6f e4       	movdqa xmm4,xmm12
    8b64:	66 0f 73 d4 28       	psrlq  xmm4,0x28
    8b69:	0f c6 ec 88          	shufps xmm5,xmm4,0x88
    8b6d:	66 41 0f 6f e2       	movdqa xmm4,xmm10
    8b72:	66 0f 73 d4 28       	psrlq  xmm4,0x28
    8b77:	0f c6 e7 88          	shufps xmm4,xmm7,0x88
    8b7b:	66 0f 6f fd          	movdqa xmm7,xmm5
    8b7f:	66 0f 61 ec          	punpcklwd xmm5,xmm4
    8b83:	66 0f 69 fc          	punpckhwd xmm7,xmm4
    8b87:	66 0f 6f e5          	movdqa xmm4,xmm5
    8b8b:	66 0f 69 e7          	punpckhwd xmm4,xmm7
    8b8f:	66 0f 61 ef          	punpcklwd xmm5,xmm7
    8b93:	f3 0f 6f 7d 50       	movdqu xmm7,XMMWORD PTR [rbp+0x50]
    8b98:	66 0f 61 ec          	punpcklwd xmm5,xmm4
    8b9c:	66 0f 6f e3          	movdqa xmm4,xmm3
    8ba0:	66 0f 73 d7 28       	psrlq  xmm7,0x28
    8ba5:	66 0f 73 d4 28       	psrlq  xmm4,0x28
    8baa:	66 41 0f db eb       	pand   xmm5,xmm11
    8baf:	0f c6 e7 88          	shufps xmm4,xmm7,0x88
    8bb3:	66 41 0f 6f f9       	movdqa xmm7,xmm9
    8bb8:	66 0f 73 d7 28       	psrlq  xmm7,0x28
    8bbd:	41 0f c6 fe 88       	shufps xmm7,xmm14,0x88
    8bc2:	66 44 0f 6f f4       	movdqa xmm14,xmm4
    8bc7:	66 0f 61 e7          	punpcklwd xmm4,xmm7
    8bcb:	66 44 0f 69 f7       	punpckhwd xmm14,xmm7
    8bd0:	66 0f 6f fc          	movdqa xmm7,xmm4
    8bd4:	66 41 0f 69 fe       	punpckhwd xmm7,xmm14
    8bd9:	66 41 0f 61 e6       	punpcklwd xmm4,xmm14
    8bde:	f3 44 0f 6f 75 30    	movdqu xmm14,XMMWORD PTR [rbp+0x30]
    8be4:	66 0f 61 e7          	punpcklwd xmm4,xmm7
    8be8:	66 41 0f 6f fc       	movdqa xmm7,xmm12
    8bed:	66 0f 73 d7 30       	psrlq  xmm7,0x30
    8bf2:	66 41 0f db e3       	pand   xmm4,xmm11
    8bf7:	66 41 0f 73 d6 30    	psrlq  xmm14,0x30
    8bfd:	66 41 0f 73 d4 38    	psrlq  xmm12,0x38
    8c03:	66 0f 67 ec          	packuswb xmm5,xmm4
    8c07:	66 0f 6f e1          	movdqa xmm4,xmm1
    8c0b:	66 0f 73 d1 38       	psrlq  xmm1,0x38
    8c10:	66 0f 73 d4 30       	psrlq  xmm4,0x30
    8c15:	41 0f c6 cc 88       	shufps xmm1,xmm12,0x88
    8c1a:	0f c6 e7 88          	shufps xmm4,xmm7,0x88
    8c1e:	66 41 0f 6f fa       	movdqa xmm7,xmm10
    8c23:	66 41 0f 73 d2 38    	psrlq  xmm10,0x38
    8c29:	66 0f 73 d7 30       	psrlq  xmm7,0x30
    8c2e:	41 0f c6 fe 88       	shufps xmm7,xmm14,0x88
    8c33:	66 44 0f 6f f4       	movdqa xmm14,xmm4
    8c38:	66 0f 61 e7          	punpcklwd xmm4,xmm7
    8c3c:	66 44 0f 69 f7       	punpckhwd xmm14,xmm7
    8c41:	66 0f 6f fc          	movdqa xmm7,xmm4
    8c45:	66 41 0f 69 fe       	punpckhwd xmm7,xmm14
    8c4a:	66 41 0f 61 e6       	punpcklwd xmm4,xmm14
    8c4f:	f3 44 0f 6f 75 50    	movdqu xmm14,XMMWORD PTR [rbp+0x50]
    8c55:	66 0f 61 e7          	punpcklwd xmm4,xmm7
    8c59:	66 0f 6f fb          	movdqa xmm7,xmm3
    8c5d:	66 41 0f 73 d6 30    	psrlq  xmm14,0x30
    8c63:	66 0f 73 d7 30       	psrlq  xmm7,0x30
    8c68:	66 41 0f db e3       	pand   xmm4,xmm11
    8c6d:	41 0f c6 fe 88       	shufps xmm7,xmm14,0x88
    8c72:	66 45 0f 6f f1       	movdqa xmm14,xmm9
    8c77:	66 0f 73 d3 38       	psrlq  xmm3,0x38
    8c7c:	66 41 0f 73 d6 30    	psrlq  xmm14,0x30
    8c82:	66 41 0f 73 d1 38    	psrlq  xmm9,0x38
    8c88:	45 0f c6 f7 88       	shufps xmm14,xmm15,0x88
    8c8d:	66 44 0f 6f ff       	movdqa xmm15,xmm7
    8c92:	66 41 0f 61 fe       	punpcklwd xmm7,xmm14
    8c97:	66 45 0f 69 fe       	punpckhwd xmm15,xmm14
    8c9c:	66 44 0f 6f f7       	movdqa xmm14,xmm7
    8ca1:	66 45 0f 69 f7       	punpckhwd xmm14,xmm15
    8ca6:	66 41 0f 61 ff       	punpcklwd xmm7,xmm15
    8cab:	66 41 0f 61 fe       	punpcklwd xmm7,xmm14
    8cb0:	66 41 0f db fb       	pand   xmm7,xmm11
    8cb5:	66 0f 67 e7          	packuswb xmm4,xmm7
    8cb9:	f3 0f 6f 7d 30       	movdqu xmm7,XMMWORD PTR [rbp+0x30]
    8cbe:	66 0f 73 d7 38       	psrlq  xmm7,0x38
    8cc3:	44 0f c6 d7 88       	shufps xmm10,xmm7,0x88
    8cc8:	66 0f 6f f9          	movdqa xmm7,xmm1
    8ccc:	66 41 0f 61 ca       	punpcklwd xmm1,xmm10
    8cd1:	66 41 0f 69 fa       	punpckhwd xmm7,xmm10
    8cd6:	66 44 0f 6f d1       	movdqa xmm10,xmm1
    8cdb:	66 44 0f 69 d7       	punpckhwd xmm10,xmm7
    8ce0:	66 0f 61 cf          	punpcklwd xmm1,xmm7
    8ce4:	f3 0f 6f 7d 50       	movdqu xmm7,XMMWORD PTR [rbp+0x50]
    8ce9:	66 41 0f 61 ca       	punpcklwd xmm1,xmm10
    8cee:	66 0f 73 d7 38       	psrlq  xmm7,0x38
    8cf3:	66 41 0f db cb       	pand   xmm1,xmm11
    8cf8:	0f c6 df 88          	shufps xmm3,xmm7,0x88
    8cfc:	f3 0f 6f 7d 70       	movdqu xmm7,XMMWORD PTR [rbp+0x70]
    8d01:	66 0f 73 d7 38       	psrlq  xmm7,0x38
    8d06:	44 0f c6 cf 88       	shufps xmm9,xmm7,0x88
    8d0b:	66 0f 6f fb          	movdqa xmm7,xmm3
    8d0f:	66 41 0f 61 d9       	punpcklwd xmm3,xmm9
    8d14:	66 41 0f 69 f9       	punpckhwd xmm7,xmm9
    8d19:	66 44 0f 6f cb       	movdqa xmm9,xmm3
    8d1e:	66 44 0f 69 cf       	punpckhwd xmm9,xmm7
    8d23:	66 0f 61 df          	punpcklwd xmm3,xmm7
    8d27:	66 41 0f 6f fd       	movdqa xmm7,xmm13
    8d2c:	66 41 0f 61 d9       	punpcklwd xmm3,xmm9
    8d31:	66 0f 60 fc          	punpcklbw xmm7,xmm4
    8d35:	66 44 0f 6f c8       	movdqa xmm9,xmm0
    8d3a:	66 41 0f db db       	pand   xmm3,xmm11
    8d3f:	66 44 0f 68 ec       	punpckhbw xmm13,xmm4
    8d44:	66 0f 67 cb          	packuswb xmm1,xmm3
    8d48:	66 41 0f 6f d8       	movdqa xmm3,xmm8
    8d4d:	66 44 0f 68 c6       	punpckhbw xmm8,xmm6
    8d52:	66 0f 60 de          	punpcklbw xmm3,xmm6
    8d56:	66 0f 6f f2          	movdqa xmm6,xmm2
    8d5a:	66 0f 68 d5          	punpckhbw xmm2,xmm5
    8d5e:	66 0f 60 f5          	punpcklbw xmm6,xmm5
    8d62:	66 0f 6f eb          	movdqa xmm5,xmm3
    8d66:	66 0f 68 c1          	punpckhbw xmm0,xmm1
    8d6a:	66 44 0f 60 c9       	punpcklbw xmm9,xmm1
    8d6f:	66 0f 60 ef          	punpcklbw xmm5,xmm7
    8d73:	66 0f 68 df          	punpckhbw xmm3,xmm7
    8d77:	66 0f 6f ce          	movdqa xmm1,xmm6
    8d7b:	66 0f 6f fe          	movdqa xmm7,xmm6
    8d7f:	66 0f 6f f2          	movdqa xmm6,xmm2
    8d83:	66 0f 60 f0          	punpcklbw xmm6,xmm0
    8d87:	66 0f 68 d0          	punpckhbw xmm2,xmm0
    8d8b:	66 41 0f 60 f9       	punpcklbw xmm7,xmm9
    8d90:	66 0f 6f c5          	movdqa xmm0,xmm5
    8d94:	66 0f 6f e3          	movdqa xmm4,xmm3
    8d98:	66 41 0f 68 c9       	punpckhbw xmm1,xmm9
    8d9d:	66 0f 60 c7          	punpcklbw xmm0,xmm7
    8da1:	66 41 0f 6f d8       	movdqa xmm3,xmm8
    8da6:	66 45 0f 68 c5       	punpckhbw xmm8,xmm13
    8dab:	0f 11 83 78 ff ff ff 	movups XMMWORD PTR [rbx-0x88],xmm0
    8db2:	66 0f 6f c4          	movdqa xmm0,xmm4
    8db6:	66 41 0f 60 dd       	punpcklbw xmm3,xmm13
    8dbb:	66 0f 68 ef          	punpckhbw xmm5,xmm7
    8dbf:	66 0f 60 c1          	punpcklbw xmm0,xmm1
    8dc3:	66 0f 68 e1          	punpckhbw xmm4,xmm1
    8dc7:	0f 11 6b 88          	movups XMMWORD PTR [rbx-0x78],xmm5
    8dcb:	0f 11 43 98          	movups XMMWORD PTR [rbx-0x68],xmm0
    8dcf:	66 0f 6f c3          	movdqa xmm0,xmm3
    8dd3:	66 0f 68 de          	punpckhbw xmm3,xmm6
    8dd7:	66 0f 60 c6          	punpcklbw xmm0,xmm6
    8ddb:	0f 11 63 a8          	movups XMMWORD PTR [rbx-0x58],xmm4
    8ddf:	0f 11 43 b8          	movups XMMWORD PTR [rbx-0x48],xmm0
    8de3:	66 41 0f 6f c0       	movdqa xmm0,xmm8
    8de8:	66 44 0f 68 c2       	punpckhbw xmm8,xmm2
    8ded:	66 0f 60 c2          	punpcklbw xmm0,xmm2
    8df1:	0f 11 5b c8          	movups XMMWORD PTR [rbx-0x38],xmm3
    8df5:	0f 11 43 d8          	movups XMMWORD PTR [rbx-0x28],xmm0
    8df9:	44 0f 11 43 e8       	movups XMMWORD PTR [rbx-0x18],xmm8
    8dfe:	48 8b 85 80 00 00 00 	mov    rax,QWORD PTR [rbp+0x80]
    8e05:	48 89 43 f8          	mov    QWORD PTR [rbx-0x8],rax
    8e09:	49 83 ec 01          	sub    r12,0x1
    8e0d:	74 43                	je     8e52 <pqcrystals_kyber_fips202_ref_shake256_squeezeblocks+0x5a2>
    8e0f:	48 89 ef             	mov    rdi,rbp
    8e12:	e8 89 d1 ff ff       	call   5fa0 <KeccakF1600_StatePermute>
    8e17:	48 89 d8             	mov    rax,rbx
    8e1a:	4c 29 e8             	sub    rax,r13
    8e1d:	48 83 c0 07          	add    rax,0x7
    8e21:	48 83 f8 7e          	cmp    rax,0x7e
    8e25:	0f 87 bd fa ff ff    	ja     88e8 <pqcrystals_kyber_fips202_ref_shake256_squeezeblocks+0x38>
    8e2b:	31 c0                	xor    eax,eax
    8e2d:	0f 1f 00             	nop    DWORD PTR [rax]
    8e30:	48 8b 54 05 00       	mov    rdx,QWORD PTR [rbp+rax*1+0x0]
    8e35:	48 89 14 03          	mov    QWORD PTR [rbx+rax*1],rdx
    8e39:	48 83 c0 08          	add    rax,0x8
    8e3d:	48 3d 88 00 00 00    	cmp    rax,0x88
    8e43:	75 eb                	jne    8e30 <pqcrystals_kyber_fips202_ref_shake256_squeezeblocks+0x580>
    8e45:	48 81 c3 88 00 00 00 	add    rbx,0x88
    8e4c:	49 83 ec 01          	sub    r12,0x1
    8e50:	75 bd                	jne    8e0f <pqcrystals_kyber_fips202_ref_shake256_squeezeblocks+0x55f>
    8e52:	48 83 c4 08          	add    rsp,0x8
    8e56:	5b                   	pop    rbx
    8e57:	5d                   	pop    rbp
    8e58:	41 5c                	pop    r12
    8e5a:	41 5d                	pop    r13
    8e5c:	c3                   	ret    
    8e5d:	c3                   	ret    
    8e5e:	66 90                	xchg   ax,ax

0000000000008e60 <pqcrystals_kyber_fips202_ref_shake128>:
    8e60:	f3 0f 1e fa          	endbr64 
    8e64:	41 57                	push   r15
    8e66:	41 b8 1f 00 00 00    	mov    r8d,0x1f
    8e6c:	41 56                	push   r14
    8e6e:	41 55                	push   r13
    8e70:	41 54                	push   r12
    8e72:	55                   	push   rbp
    8e73:	53                   	push   rbx
    8e74:	48 89 f3             	mov    rbx,rsi
    8e77:	48 81 ec 28 01 00 00 	sub    rsp,0x128
    8e7e:	48 89 7c 24 28       	mov    QWORD PTR [rsp+0x28],rdi
    8e83:	48 8d 7c 24 40       	lea    rdi,[rsp+0x40]
    8e88:	48 89 74 24 38       	mov    QWORD PTR [rsp+0x38],rsi
    8e8d:	be a8 00 00 00       	mov    esi,0xa8
    8e92:	64 48 8b 04 25 28 00 	mov    rax,QWORD PTR fs:0x28
    8e99:	00 00 
    8e9b:	48 89 84 24 18 01 00 	mov    QWORD PTR [rsp+0x118],rax
    8ea2:	00 
    8ea3:	31 c0                	xor    eax,eax
    8ea5:	48 89 7c 24 18       	mov    QWORD PTR [rsp+0x18],rdi
    8eaa:	e8 e1 e2 ff ff       	call   7190 <keccak_absorb_once.constprop.2>
    8eaf:	48 89 d8             	mov    rax,rbx
    8eb2:	48 ba 31 0c c3 30 0c 	movabs rdx,0xc30c30c30c30c31
    8eb9:	c3 30 0c 
    8ebc:	c7 84 24 08 01 00 00 	mov    DWORD PTR [rsp+0x108],0xa8
    8ec3:	a8 00 00 00 
    8ec7:	48 c1 e8 03          	shr    rax,0x3
    8ecb:	48 f7 e2             	mul    rdx
    8ece:	48 89 54 24 30       	mov    QWORD PTR [rsp+0x30],rdx
    8ed3:	48 81 fb a7 00 00 00 	cmp    rbx,0xa7
    8eda:	0f 86 a9 07 00 00    	jbe    9689 <pqcrystals_kyber_fips202_ref_shake128+0x829>
    8ee0:	48 89 54 24 20       	mov    QWORD PTR [rsp+0x20],rdx
    8ee5:	4c 8b 74 24 28       	mov    r14,QWORD PTR [rsp+0x28]
    8eea:	66 44 0f 6f 1d 4d 21 	movdqa xmm11,XMMWORD PTR [rip+0x214d]        # b040 <_IO_stdin_used+0x40>
    8ef1:	00 00 
    8ef3:	0f 1f 44 00 00       	nop    DWORD PTR [rax+rax*1+0x0]
    8ef8:	48 8b 7c 24 18       	mov    rdi,QWORD PTR [rsp+0x18]
    8efd:	e8 9e d0 ff ff       	call   5fa0 <KeccakF1600_StatePermute>
    8f02:	66 0f 6f 4c 24 40    	movdqa xmm1,XMMWORD PTR [rsp+0x40]
    8f08:	66 44 0f 6f 64 24 50 	movdqa xmm12,XMMWORD PTR [rsp+0x50]
    8f0f:	66 44 0f 6f 54 24 60 	movdqa xmm10,XMMWORD PTR [rsp+0x60]
    8f16:	48 8b 9c 24 c8 00 00 	mov    rbx,QWORD PTR [rsp+0xc8]
    8f1d:	00 
    8f1e:	66 0f 6f c1          	movdqa xmm0,xmm1
    8f22:	48 8b b4 24 c0 00 00 	mov    rsi,QWORD PTR [rsp+0xc0]
    8f29:	00 
    8f2a:	66 0f 6f 9c 24 80 00 	movdqa xmm3,XMMWORD PTR [rsp+0x80]
    8f31:	00 00 
    8f33:	41 0f c6 c4 88       	shufps xmm0,xmm12,0x88
    8f38:	66 0f 6f d0          	movdqa xmm2,xmm0
    8f3c:	48 89 d8             	mov    rax,rbx
    8f3f:	49 89 da             	mov    r10,rbx
    8f42:	66 45 0f 6f f2       	movdqa xmm14,xmm10
    8f47:	66 0f 6f e8          	movdqa xmm5,xmm0
    8f4b:	66 0f 6f e3          	movdqa xmm4,xmm3
    8f4f:	49 89 f7             	mov    r15,rsi
    8f52:	48 c1 e8 10          	shr    rax,0x10
    8f56:	49 c1 ef 30          	shr    r15,0x30
    8f5a:	49 89 f5             	mov    r13,rsi
    8f5d:	49 89 f4             	mov    r12,rsi
    8f60:	44 0f c6 74 24 70 88 	shufps xmm14,XMMWORD PTR [rsp+0x70],0x88
    8f67:	66 41 0f 61 d6       	punpcklwd xmm2,xmm14
    8f6c:	66 44 0f 6f 8c 24 a0 	movdqa xmm9,XMMWORD PTR [rsp+0xa0]
    8f73:	00 00 00 
    8f76:	66 41 0f 69 ee       	punpckhwd xmm5,xmm14
    8f7b:	66 0f 6f f2          	movdqa xmm6,xmm2
    8f7f:	66 0f 61 d5          	punpcklwd xmm2,xmm5
    8f83:	66 45 0f 6f ee       	movdqa xmm13,xmm14
    8f88:	48 89 f5             	mov    rbp,rsi
    8f8b:	66 0f 69 f5          	punpckhwd xmm6,xmm5
    8f8f:	66 41 0f 6f f9       	movdqa xmm7,xmm9
    8f94:	45 0f b6 ff          	movzx  r15d,r15b
    8f98:	49 89 f3             	mov    r11,rsi
    8f9b:	0f c6 a4 24 90 00 00 	shufps xmm4,XMMWORD PTR [rsp+0x90],0x88
    8fa2:	00 88 
    8fa4:	66 0f 6f ec          	movdqa xmm5,xmm4
    8fa8:	66 0f 61 d6          	punpcklwd xmm2,xmm6
    8fac:	0f c6 bc 24 b0 00 00 	shufps xmm7,XMMWORD PTR [rsp+0xb0],0x88
    8fb3:	00 88 
    8fb5:	66 0f 6f f4          	movdqa xmm6,xmm4
    8fb9:	66 0f 61 ef          	punpcklwd xmm5,xmm7
    8fbd:	66 44 0f 6f ff       	movdqa xmm15,xmm7
    8fc2:	49 89 d9             	mov    r9,rbx
    8fc5:	66 0f 69 f7          	punpckhwd xmm6,xmm7
    8fc9:	66 44 0f 6f c5       	movdqa xmm8,xmm5
    8fce:	49 c1 ed 28          	shr    r13,0x28
    8fd2:	49 89 d8             	mov    r8,rbx
    8fd5:	66 44 0f 69 c6       	punpckhwd xmm8,xmm6
    8fda:	66 0f 61 ee          	punpcklwd xmm5,xmm6
    8fde:	45 0f b6 ed          	movzx  r13d,r13b
    8fe2:	48 89 df             	mov    rdi,rbx
    8fe5:	66 41 0f 61 e8       	punpcklwd xmm5,xmm8
    8fea:	66 41 0f 6f f3       	movdqa xmm6,xmm11
    8fef:	49 c1 ec 20          	shr    r12,0x20
    8ff3:	66 45 0f 6f c3       	movdqa xmm8,xmm11
    8ff8:	66 0f db f5          	pand   xmm6,xmm5
    8ffc:	66 44 0f db c2       	pand   xmm8,xmm2
    9001:	45 0f b6 e4          	movzx  r12d,r12b
    9005:	48 8b 8c 24 d0 00 00 	mov    rcx,QWORD PTR [rsp+0xd0]
    900c:	00 
    900d:	66 44 0f 67 c6       	packuswb xmm8,xmm6
    9012:	66 0f 71 d2 08       	psrlw  xmm2,0x8
    9017:	66 0f 6f f0          	movdqa xmm6,xmm0
    901b:	48 8b 94 24 d8 00 00 	mov    rdx,QWORD PTR [rsp+0xd8]
    9022:	00 
    9023:	66 0f 71 d5 08       	psrlw  xmm5,0x8
    9028:	66 41 0f 72 d5 10    	psrld  xmm13,0x10
    902e:	66 41 0f db d3       	pand   xmm2,xmm11
    9033:	48 c1 ed 18          	shr    rbp,0x18
    9037:	66 41 0f db eb       	pand   xmm5,xmm11
    903c:	66 0f 72 d6 10       	psrld  xmm6,0x10
    9041:	40 0f b6 ed          	movzx  ebp,bpl
    9045:	49 c1 eb 10          	shr    r11,0x10
    9049:	66 0f 67 d5          	packuswb xmm2,xmm5
    904d:	66 0f 6f ee          	movdqa xmm5,xmm6
    9051:	66 41 0f 61 f5       	punpcklwd xmm6,xmm13
    9056:	49 c1 ea 30          	shr    r10,0x30
    905a:	66 41 0f 69 ed       	punpckhwd xmm5,xmm13
    905f:	66 44 0f 6f ee       	movdqa xmm13,xmm6
    9064:	45 0f b6 d2          	movzx  r10d,r10b
    9068:	49 c1 e9 28          	shr    r9,0x28
    906c:	66 44 0f 69 ed       	punpckhwd xmm13,xmm5
    9071:	66 0f 61 f5          	punpcklwd xmm6,xmm5
    9075:	66 0f 6f ec          	movdqa xmm5,xmm4
    9079:	45 0f b6 c9          	movzx  r9d,r9b
    907d:	66 41 0f 72 d7 10    	psrld  xmm15,0x10
    9083:	66 0f 72 d5 10       	psrld  xmm5,0x10
    9088:	66 41 0f 61 f5       	punpcklwd xmm6,xmm13
    908d:	49 c1 e8 20          	shr    r8,0x20
    9091:	66 44 0f 6f ed       	movdqa xmm13,xmm5
    9096:	66 41 0f 61 ef       	punpcklwd xmm5,xmm15
    909b:	66 41 0f db f3       	pand   xmm6,xmm11
    90a0:	45 0f b6 c0          	movzx  r8d,r8b
    90a4:	66 45 0f 69 ef       	punpckhwd xmm13,xmm15
    90a9:	66 44 0f 6f fd       	movdqa xmm15,xmm5
    90ae:	48 c1 ef 18          	shr    rdi,0x18
    90b2:	66 45 0f 69 fd       	punpckhwd xmm15,xmm13
    90b7:	66 41 0f 61 ed       	punpcklwd xmm5,xmm13
    90bc:	66 44 0f 6f ee       	movdqa xmm13,xmm6
    90c1:	40 0f b6 ff          	movzx  edi,dil
    90c5:	66 41 0f 72 d6 18    	psrld  xmm14,0x18
    90cb:	66 0f 72 d0 18       	psrld  xmm0,0x18
    90d0:	66 41 0f 61 ef       	punpcklwd xmm5,xmm15
    90d5:	66 44 0f 6f bc 24 b0 	movdqa xmm15,XMMWORD PTR [rsp+0xb0]
    90dc:	00 00 00 
    90df:	66 0f 72 d7 18       	psrld  xmm7,0x18
    90e4:	66 0f 72 d4 18       	psrld  xmm4,0x18
    90e9:	66 41 0f db eb       	pand   xmm5,xmm11
    90ee:	66 44 0f 67 ed       	packuswb xmm13,xmm5
    90f3:	66 41 0f 73 d7 30    	psrlq  xmm15,0x30
    90f9:	66 0f 6f e8          	movdqa xmm5,xmm0
    90fd:	66 41 0f 61 c6       	punpcklwd xmm0,xmm14
    9102:	66 41 0f 69 ee       	punpckhwd xmm5,xmm14
    9107:	66 44 0f 6f b4 24 b0 	movdqa xmm14,XMMWORD PTR [rsp+0xb0]
    910e:	00 00 00 
    9111:	66 0f 6f f0          	movdqa xmm6,xmm0
    9115:	66 0f 61 c5          	punpcklwd xmm0,xmm5
    9119:	66 0f 69 f5          	punpckhwd xmm6,xmm5
    911d:	66 41 0f 73 d6 28    	psrlq  xmm14,0x28
    9123:	66 0f 6f ec          	movdqa xmm5,xmm4
    9127:	66 0f 61 e7          	punpcklwd xmm4,xmm7
    912b:	66 0f 69 ef          	punpckhwd xmm5,xmm7
    912f:	66 0f 61 c6          	punpcklwd xmm0,xmm6
    9133:	66 0f 6f bc 24 b0 00 	movdqa xmm7,XMMWORD PTR [rsp+0xb0]
    913a:	00 00 
    913c:	66 0f 6f f4          	movdqa xmm6,xmm4
    9140:	66 0f 61 e5          	punpcklwd xmm4,xmm5
    9144:	66 41 0f db c3       	pand   xmm0,xmm11
    9149:	66 0f 69 f5          	punpckhwd xmm6,xmm5
    914d:	66 0f 6f 6c 24 70    	movdqa xmm5,XMMWORD PTR [rsp+0x70]
    9153:	66 0f 73 d7 20       	psrlq  xmm7,0x20
    9158:	66 0f 61 e6          	punpcklwd xmm4,xmm6
    915c:	66 0f 6f f1          	movdqa xmm6,xmm1
    9160:	66 0f 73 d6 20       	psrlq  xmm6,0x20
    9165:	66 0f 73 d5 20       	psrlq  xmm5,0x20
    916a:	66 41 0f db e3       	pand   xmm4,xmm11
    916f:	66 0f 67 c4          	packuswb xmm0,xmm4
    9173:	66 41 0f 6f e4       	movdqa xmm4,xmm12
    9178:	66 0f 73 d4 20       	psrlq  xmm4,0x20
    917d:	0f c6 f4 88          	shufps xmm6,xmm4,0x88
    9181:	66 41 0f 6f e2       	movdqa xmm4,xmm10
    9186:	66 0f 73 d4 20       	psrlq  xmm4,0x20
    918b:	0f c6 e5 88          	shufps xmm4,xmm5,0x88
    918f:	66 0f 6f ee          	movdqa xmm5,xmm6
    9193:	66 0f 61 f4          	punpcklwd xmm6,xmm4
    9197:	66 0f 69 ec          	punpckhwd xmm5,xmm4
    919b:	66 0f 6f e6          	movdqa xmm4,xmm6
    919f:	66 0f 69 e5          	punpckhwd xmm4,xmm5
    91a3:	66 0f 61 f5          	punpcklwd xmm6,xmm5
    91a7:	66 0f 6f ac 24 90 00 	movdqa xmm5,XMMWORD PTR [rsp+0x90]
    91ae:	00 00 
    91b0:	66 0f 61 f4          	punpcklwd xmm6,xmm4
    91b4:	66 0f 6f e3          	movdqa xmm4,xmm3
    91b8:	66 0f 73 d5 20       	psrlq  xmm5,0x20
    91bd:	66 0f 73 d4 20       	psrlq  xmm4,0x20
    91c2:	66 41 0f db f3       	pand   xmm6,xmm11
    91c7:	0f c6 e5 88          	shufps xmm4,xmm5,0x88
    91cb:	66 41 0f 6f e9       	movdqa xmm5,xmm9
    91d0:	66 0f 73 d5 20       	psrlq  xmm5,0x20
    91d5:	0f c6 ef 88          	shufps xmm5,xmm7,0x88
    91d9:	66 0f 6f fc          	movdqa xmm7,xmm4
    91dd:	66 0f 61 e5          	punpcklwd xmm4,xmm5
    91e1:	66 0f 69 fd          	punpckhwd xmm7,xmm5
    91e5:	66 0f 6f ec          	movdqa xmm5,xmm4
    91e9:	66 0f 69 ef          	punpckhwd xmm5,xmm7
    91ed:	66 0f 61 e7          	punpcklwd xmm4,xmm7
    91f1:	66 0f 6f 7c 24 70    	movdqa xmm7,XMMWORD PTR [rsp+0x70]
    91f7:	66 0f 61 e5          	punpcklwd xmm4,xmm5
    91fb:	66 0f 6f e9          	movdqa xmm5,xmm1
    91ff:	66 0f 73 d5 28       	psrlq  xmm5,0x28
    9204:	66 0f 73 d7 28       	psrlq  xmm7,0x28
    9209:	66 41 0f db e3       	pand   xmm4,xmm11
    920e:	66 0f 67 f4          	packuswb xmm6,xmm4
    9212:	66 41 0f 6f e4       	movdqa xmm4,xmm12
    9217:	66 0f 73 d4 28       	psrlq  xmm4,0x28
    921c:	0f c6 ec 88          	shufps xmm5,xmm4,0x88
    9220:	66 41 0f 6f e2       	movdqa xmm4,xmm10
    9225:	66 0f 73 d4 28       	psrlq  xmm4,0x28
    922a:	0f c6 e7 88          	shufps xmm4,xmm7,0x88
    922e:	66 0f 6f fd          	movdqa xmm7,xmm5
    9232:	66 0f 61 ec          	punpcklwd xmm5,xmm4
    9236:	66 0f 69 fc          	punpckhwd xmm7,xmm4
    923a:	66 0f 6f e5          	movdqa xmm4,xmm5
    923e:	66 0f 69 e7          	punpckhwd xmm4,xmm7
    9242:	66 0f 61 ef          	punpcklwd xmm5,xmm7
    9246:	66 0f 6f bc 24 90 00 	movdqa xmm7,XMMWORD PTR [rsp+0x90]
    924d:	00 00 
    924f:	66 0f 61 ec          	punpcklwd xmm5,xmm4
    9253:	66 0f 6f e3          	movdqa xmm4,xmm3
    9257:	66 0f 73 d7 28       	psrlq  xmm7,0x28
    925c:	66 0f 73 d4 28       	psrlq  xmm4,0x28
    9261:	66 41 0f db eb       	pand   xmm5,xmm11
    9266:	0f c6 e7 88          	shufps xmm4,xmm7,0x88
    926a:	66 41 0f 6f f9       	movdqa xmm7,xmm9
    926f:	66 0f 73 d7 28       	psrlq  xmm7,0x28
    9274:	41 0f c6 fe 88       	shufps xmm7,xmm14,0x88
    9279:	66 44 0f 6f f4       	movdqa xmm14,xmm4
    927e:	66 0f 61 e7          	punpcklwd xmm4,xmm7
    9282:	66 44 0f 69 f7       	punpckhwd xmm14,xmm7
    9287:	66 0f 6f fc          	movdqa xmm7,xmm4
    928b:	66 41 0f 69 fe       	punpckhwd xmm7,xmm14
    9290:	66 41 0f 61 e6       	punpcklwd xmm4,xmm14
    9295:	66 44 0f 6f 74 24 70 	movdqa xmm14,XMMWORD PTR [rsp+0x70]
    929c:	66 0f 61 e7          	punpcklwd xmm4,xmm7
    92a0:	66 41 0f 6f fc       	movdqa xmm7,xmm12
    92a5:	66 0f 73 d7 30       	psrlq  xmm7,0x30
    92aa:	66 41 0f db e3       	pand   xmm4,xmm11
    92af:	66 41 0f 73 d6 30    	psrlq  xmm14,0x30
    92b5:	66 41 0f 73 d4 38    	psrlq  xmm12,0x38
    92bb:	66 0f 67 ec          	packuswb xmm5,xmm4
    92bf:	66 0f 6f e1          	movdqa xmm4,xmm1
    92c3:	66 0f 73 d1 38       	psrlq  xmm1,0x38
    92c8:	66 0f 73 d4 30       	psrlq  xmm4,0x30
    92cd:	41 0f c6 cc 88       	shufps xmm1,xmm12,0x88
    92d2:	0f c6 e7 88          	shufps xmm4,xmm7,0x88
    92d6:	66 41 0f 6f fa       	movdqa xmm7,xmm10
    92db:	66 41 0f 73 d2 38    	psrlq  xmm10,0x38
    92e1:	66 0f 73 d7 30       	psrlq  xmm7,0x30
    92e6:	41 0f c6 fe 88       	shufps xmm7,xmm14,0x88
    92eb:	66 44 0f 6f f4       	movdqa xmm14,xmm4
    92f0:	66 0f 61 e7          	punpcklwd xmm4,xmm7
    92f4:	66 44 0f 69 f7       	punpckhwd xmm14,xmm7
    92f9:	66 0f 6f fc          	movdqa xmm7,xmm4
    92fd:	66 41 0f 69 fe       	punpckhwd xmm7,xmm14
    9302:	66 41 0f 61 e6       	punpcklwd xmm4,xmm14
    9307:	66 44 0f 6f b4 24 90 	movdqa xmm14,XMMWORD PTR [rsp+0x90]
    930e:	00 00 00 
    9311:	66 0f 61 e7          	punpcklwd xmm4,xmm7
    9315:	66 0f 6f fb          	movdqa xmm7,xmm3
    9319:	66 41 0f 73 d6 30    	psrlq  xmm14,0x30
    931f:	66 0f 73 d7 30       	psrlq  xmm7,0x30
    9324:	66 41 0f db e3       	pand   xmm4,xmm11
    9329:	41 0f c6 fe 88       	shufps xmm7,xmm14,0x88
    932e:	66 45 0f 6f f1       	movdqa xmm14,xmm9
    9333:	66 0f 73 d3 38       	psrlq  xmm3,0x38
    9338:	66 41 0f 73 d6 30    	psrlq  xmm14,0x30
    933e:	66 41 0f 73 d1 38    	psrlq  xmm9,0x38
    9344:	45 0f c6 f7 88       	shufps xmm14,xmm15,0x88
    9349:	66 44 0f 6f ff       	movdqa xmm15,xmm7
    934e:	66 41 0f 61 fe       	punpcklwd xmm7,xmm14
    9353:	66 45 0f 69 fe       	punpckhwd xmm15,xmm14
    9358:	66 44 0f 6f f7       	movdqa xmm14,xmm7
    935d:	66 45 0f 69 f7       	punpckhwd xmm14,xmm15
    9362:	66 41 0f 61 ff       	punpcklwd xmm7,xmm15
    9367:	66 41 0f 61 fe       	punpcklwd xmm7,xmm14
    936c:	66 41 0f db fb       	pand   xmm7,xmm11
    9371:	66 0f 67 e7          	packuswb xmm4,xmm7
    9375:	66 0f 6f 7c 24 70    	movdqa xmm7,XMMWORD PTR [rsp+0x70]
    937b:	66 0f 73 d7 38       	psrlq  xmm7,0x38
    9380:	44 0f c6 d7 88       	shufps xmm10,xmm7,0x88
    9385:	66 0f 6f f9          	movdqa xmm7,xmm1
    9389:	66 41 0f 61 ca       	punpcklwd xmm1,xmm10
    938e:	66 41 0f 69 fa       	punpckhwd xmm7,xmm10
    9393:	66 44 0f 6f d1       	movdqa xmm10,xmm1
    9398:	66 44 0f 69 d7       	punpckhwd xmm10,xmm7
    939d:	66 0f 61 cf          	punpcklwd xmm1,xmm7
    93a1:	66 0f 6f bc 24 90 00 	movdqa xmm7,XMMWORD PTR [rsp+0x90]
    93a8:	00 00 
    93aa:	66 41 0f 61 ca       	punpcklwd xmm1,xmm10
    93af:	66 0f 73 d7 38       	psrlq  xmm7,0x38
    93b4:	66 41 0f db cb       	pand   xmm1,xmm11
    93b9:	0f c6 df 88          	shufps xmm3,xmm7,0x88
    93bd:	66 0f 6f bc 24 b0 00 	movdqa xmm7,XMMWORD PTR [rsp+0xb0]
    93c4:	00 00 
    93c6:	66 0f 73 d7 38       	psrlq  xmm7,0x38
    93cb:	44 0f c6 cf 88       	shufps xmm9,xmm7,0x88
    93d0:	66 0f 6f fb          	movdqa xmm7,xmm3
    93d4:	66 41 0f 61 d9       	punpcklwd xmm3,xmm9
    93d9:	66 41 0f 69 f9       	punpckhwd xmm7,xmm9
    93de:	66 44 0f 6f cb       	movdqa xmm9,xmm3
    93e3:	66 44 0f 69 cf       	punpckhwd xmm9,xmm7
    93e8:	66 0f 61 df          	punpcklwd xmm3,xmm7
    93ec:	66 41 0f 6f fd       	movdqa xmm7,xmm13
    93f1:	66 41 0f 61 d9       	punpcklwd xmm3,xmm9
    93f6:	66 0f 60 fc          	punpcklbw xmm7,xmm4
    93fa:	66 44 0f 6f c8       	movdqa xmm9,xmm0
    93ff:	66 41 0f db db       	pand   xmm3,xmm11
    9404:	66 44 0f 68 ec       	punpckhbw xmm13,xmm4
    9409:	66 0f 67 cb          	packuswb xmm1,xmm3
    940d:	66 41 0f 6f d8       	movdqa xmm3,xmm8
    9412:	66 44 0f 68 c6       	punpckhbw xmm8,xmm6
    9417:	66 0f 60 de          	punpcklbw xmm3,xmm6
    941b:	66 0f 6f f2          	movdqa xmm6,xmm2
    941f:	66 0f 68 d5          	punpckhbw xmm2,xmm5
    9423:	66 0f 60 f5          	punpcklbw xmm6,xmm5
    9427:	66 0f 6f eb          	movdqa xmm5,xmm3
    942b:	66 0f 68 c1          	punpckhbw xmm0,xmm1
    942f:	66 44 0f 60 c9       	punpcklbw xmm9,xmm1
    9434:	66 0f 60 ef          	punpcklbw xmm5,xmm7
    9438:	66 0f 68 df          	punpckhbw xmm3,xmm7
    943c:	66 0f 6f ce          	movdqa xmm1,xmm6
    9440:	66 0f 6f fe          	movdqa xmm7,xmm6
    9444:	66 0f 6f f2          	movdqa xmm6,xmm2
    9448:	66 0f 60 f0          	punpcklbw xmm6,xmm0
    944c:	66 0f 68 d0          	punpckhbw xmm2,xmm0
    9450:	66 41 0f 60 f9       	punpcklbw xmm7,xmm9
    9455:	66 0f 6f c5          	movdqa xmm0,xmm5
    9459:	66 0f 6f e3          	movdqa xmm4,xmm3
    945d:	66 41 0f 68 c9       	punpckhbw xmm1,xmm9
    9462:	66 0f 60 c7          	punpcklbw xmm0,xmm7
    9466:	66 41 0f 6f d8       	movdqa xmm3,xmm8
    946b:	66 45 0f 68 c5       	punpckhbw xmm8,xmm13
    9470:	41 0f 11 06          	movups XMMWORD PTR [r14],xmm0
    9474:	66 0f 6f c4          	movdqa xmm0,xmm4
    9478:	66 0f 68 ef          	punpckhbw xmm5,xmm7
    947c:	66 0f 68 e1          	punpckhbw xmm4,xmm1
    9480:	66 41 0f 60 dd       	punpcklbw xmm3,xmm13
    9485:	66 0f 60 c1          	punpcklbw xmm0,xmm1
    9489:	41 0f 11 6e 10       	movups XMMWORD PTR [r14+0x10],xmm5
    948e:	41 0f 11 46 20       	movups XMMWORD PTR [r14+0x20],xmm0
    9493:	66 0f 6f c3          	movdqa xmm0,xmm3
    9497:	66 0f 68 de          	punpckhbw xmm3,xmm6
    949b:	66 0f 60 c6          	punpcklbw xmm0,xmm6
    949f:	41 0f 11 66 30       	movups XMMWORD PTR [r14+0x30],xmm4
    94a4:	41 0f 11 46 40       	movups XMMWORD PTR [r14+0x40],xmm0
    94a9:	66 41 0f 6f c0       	movdqa xmm0,xmm8
    94ae:	66 44 0f 68 c2       	punpckhbw xmm8,xmm2
    94b3:	66 0f 60 c2          	punpcklbw xmm0,xmm2
    94b7:	41 0f 11 5e 50       	movups XMMWORD PTR [r14+0x50],xmm3
    94bc:	41 0f 11 46 60       	movups XMMWORD PTR [r14+0x60],xmm0
    94c1:	45 0f 11 46 70       	movups XMMWORD PTR [r14+0x70],xmm8
    94c6:	48 89 04 24          	mov    QWORD PTR [rsp],rax
    94ca:	48 89 f0             	mov    rax,rsi
    94cd:	48 c1 e8 38          	shr    rax,0x38
    94d1:	48 c1 e0 08          	shl    rax,0x8
    94d5:	4c 09 f8             	or     rax,r15
    94d8:	48 c1 e0 08          	shl    rax,0x8
    94dc:	4c 09 e8             	or     rax,r13
    94df:	49 89 cd             	mov    r13,rcx
    94e2:	48 c1 e0 08          	shl    rax,0x8
    94e6:	4c 09 e0             	or     rax,r12
    94e9:	49 89 cc             	mov    r12,rcx
    94ec:	48 c1 e0 08          	shl    rax,0x8
    94f0:	48 09 e8             	or     rax,rbp
    94f3:	41 0f b6 eb          	movzx  ebp,r11b
    94f7:	49 89 c3             	mov    r11,rax
    94fa:	48 89 f0             	mov    rax,rsi
    94fd:	40 0f b6 f6          	movzx  esi,sil
    9501:	49 c1 e3 08          	shl    r11,0x8
    9505:	0f b6 c4             	movzx  eax,ah
    9508:	49 09 eb             	or     r11,rbp
    950b:	48 89 cd             	mov    rbp,rcx
    950e:	49 c1 e3 08          	shl    r11,0x8
    9512:	49 09 c3             	or     r11,rax
    9515:	48 89 d8             	mov    rax,rbx
    9518:	48 c1 e8 38          	shr    rax,0x38
    951c:	49 c1 e3 08          	shl    r11,0x8
    9520:	48 c1 e0 08          	shl    rax,0x8
    9524:	4c 09 d0             	or     rax,r10
    9527:	49 89 d2             	mov    r10,rdx
    952a:	48 c1 e0 08          	shl    rax,0x8
    952e:	4c 09 c8             	or     rax,r9
    9531:	49 89 d1             	mov    r9,rdx
    9534:	48 c1 e0 08          	shl    rax,0x8
    9538:	4c 09 c0             	or     rax,r8
    953b:	49 89 d0             	mov    r8,rdx
    953e:	48 c1 e0 08          	shl    rax,0x8
    9542:	49 c1 ed 30          	shr    r13,0x30
    9546:	49 09 f3             	or     r11,rsi
    9549:	48 89 d6             	mov    rsi,rdx
    954c:	49 c1 ec 28          	shr    r12,0x28
    9550:	48 09 f8             	or     rax,rdi
    9553:	0f b6 3c 24          	movzx  edi,BYTE PTR [rsp]
    9557:	45 0f b6 ed          	movzx  r13d,r13b
    955b:	48 c1 e0 08          	shl    rax,0x8
    955f:	45 0f b6 e4          	movzx  r12d,r12b
    9563:	48 c1 ed 20          	shr    rbp,0x20
    9567:	4c 89 1c 24          	mov    QWORD PTR [rsp],r11
    956b:	48 09 f8             	or     rax,rdi
    956e:	0f b6 ff             	movzx  edi,bh
    9571:	0f b6 db             	movzx  ebx,bl
    9574:	40 0f b6 ed          	movzx  ebp,bpl
    9578:	48 c1 e0 08          	shl    rax,0x8
    957c:	49 89 cb             	mov    r11,rcx
    957f:	48 c1 ee 10          	shr    rsi,0x10
    9583:	49 c1 eb 10          	shr    r11,0x10
    9587:	48 09 f8             	or     rax,rdi
    958a:	48 89 d7             	mov    rdi,rdx
    958d:	49 c1 e8 20          	shr    r8,0x20
    9591:	48 c1 e0 08          	shl    rax,0x8
    9595:	48 c1 ef 18          	shr    rdi,0x18
    9599:	45 0f b6 c0          	movzx  r8d,r8b
    959d:	40 0f b6 f6          	movzx  esi,sil
    95a1:	49 c1 e9 28          	shr    r9,0x28
    95a5:	48 09 d8             	or     rax,rbx
    95a8:	48 89 cb             	mov    rbx,rcx
    95ab:	49 c1 ea 30          	shr    r10,0x30
    95af:	48 c1 eb 18          	shr    rbx,0x18
    95b3:	45 0f b6 d2          	movzx  r10d,r10b
    95b7:	45 0f b6 c9          	movzx  r9d,r9b
    95bb:	40 0f b6 ff          	movzx  edi,dil
    95bf:	48 89 44 24 08       	mov    QWORD PTR [rsp+0x8],rax
    95c4:	48 89 c8             	mov    rax,rcx
    95c7:	0f b6 db             	movzx  ebx,bl
    95ca:	66 0f 6f 14 24       	movdqa xmm2,XMMWORD PTR [rsp]
    95cf:	48 c1 e8 38          	shr    rax,0x38
    95d3:	48 c1 e0 08          	shl    rax,0x8
    95d7:	41 0f 11 96 80 00 00 	movups XMMWORD PTR [r14+0x80],xmm2
    95de:	00 
    95df:	4c 09 e8             	or     rax,r13
    95e2:	48 c1 e0 08          	shl    rax,0x8
    95e6:	4c 09 e0             	or     rax,r12
    95e9:	48 c1 e0 08          	shl    rax,0x8
    95ed:	48 09 e8             	or     rax,rbp
    95f0:	48 c1 e0 08          	shl    rax,0x8
    95f4:	48 09 d8             	or     rax,rbx
    95f7:	41 0f b6 db          	movzx  ebx,r11b
    95fb:	48 c1 e0 08          	shl    rax,0x8
    95ff:	49 89 c3             	mov    r11,rax
    9602:	0f b6 c5             	movzx  eax,ch
    9605:	0f b6 c9             	movzx  ecx,cl
    9608:	49 09 db             	or     r11,rbx
    960b:	49 c1 e3 08          	shl    r11,0x8
    960f:	49 09 c3             	or     r11,rax
    9612:	48 89 d0             	mov    rax,rdx
    9615:	49 c1 e3 08          	shl    r11,0x8
    9619:	48 c1 e8 38          	shr    rax,0x38
    961d:	49 81 c6 a8 00 00 00 	add    r14,0xa8
    9624:	48 c1 e0 08          	shl    rax,0x8
    9628:	49 09 cb             	or     r11,rcx
    962b:	4c 09 d0             	or     rax,r10
    962e:	4c 89 1c 24          	mov    QWORD PTR [rsp],r11
    9632:	48 c1 e0 08          	shl    rax,0x8
    9636:	4c 09 c8             	or     rax,r9
    9639:	48 c1 e0 08          	shl    rax,0x8
    963d:	4c 09 c0             	or     rax,r8
    9640:	48 c1 e0 08          	shl    rax,0x8
    9644:	48 09 f8             	or     rax,rdi
    9647:	48 c1 e0 08          	shl    rax,0x8
    964b:	48 09 f0             	or     rax,rsi
    964e:	0f b6 f6             	movzx  esi,dh
    9651:	0f b6 d2             	movzx  edx,dl
    9654:	48 c1 e0 08          	shl    rax,0x8
    9658:	48 09 f0             	or     rax,rsi
    965b:	48 c1 e0 08          	shl    rax,0x8
    965f:	48 09 d0             	or     rax,rdx
    9662:	48 89 44 24 08       	mov    QWORD PTR [rsp+0x8],rax
    9667:	48 8b 84 24 e0 00 00 	mov    rax,QWORD PTR [rsp+0xe0]
    966e:	00 
    966f:	66 0f 6f 14 24       	movdqa xmm2,XMMWORD PTR [rsp]
    9674:	49 89 46 f8          	mov    QWORD PTR [r14-0x8],rax
    9678:	41 0f 11 56 e8       	movups XMMWORD PTR [r14-0x18],xmm2
    967d:	48 83 6c 24 20 01    	sub    QWORD PTR [rsp+0x20],0x1
    9683:	0f 85 6f f8 ff ff    	jne    8ef8 <pqcrystals_kyber_fips202_ref_shake128+0x98>
    9689:	48 8b 7c 24 38       	mov    rdi,QWORD PTR [rsp+0x38]
    968e:	48 8b 5c 24 30       	mov    rbx,QWORD PTR [rsp+0x30]
    9693:	48 b9 31 0c c3 30 0c 	movabs rcx,0xc30c30c30c30c31
    969a:	c3 30 0c 
    969d:	41 b8 a8 00 00 00    	mov    r8d,0xa8
    96a3:	4c 8b 64 24 18       	mov    r12,QWORD PTR [rsp+0x18]
    96a8:	48 89 fa             	mov    rdx,rdi
    96ab:	48 c1 ea 03          	shr    rdx,0x3
    96af:	48 89 d0             	mov    rax,rdx
    96b2:	48 f7 e1             	mul    rcx
    96b5:	48 8d 04 92          	lea    rax,[rdx+rdx*4]
    96b9:	48 8d 04 82          	lea    rax,[rdx+rax*4]
    96bd:	48 8d 14 9b          	lea    rdx,[rbx+rbx*4]
    96c1:	48 8d 14 93          	lea    rdx,[rbx+rdx*4]
    96c5:	48 c1 e0 03          	shl    rax,0x3
    96c9:	48 8b 5c 24 28       	mov    rbx,QWORD PTR [rsp+0x28]
    96ce:	48 29 c7             	sub    rdi,rax
    96d1:	48 8d 1c d3          	lea    rbx,[rbx+rdx*8]
    96d5:	48 89 fd             	mov    rbp,rdi
    96d8:	0f 84 a4 00 00 00    	je     9782 <pqcrystals_kyber_fips202_ref_shake128+0x922>
    96de:	41 81 f8 a8 00 00 00 	cmp    r8d,0xa8
    96e5:	74 7b                	je     9762 <pqcrystals_kyber_fips202_ref_shake128+0x902>
    96e7:	66 0f 1f 84 00 00 00 	nop    WORD PTR [rax+rax*1+0x0]
    96ee:	00 00 
    96f0:	44 89 c0             	mov    eax,r8d
    96f3:	48 8d 7c 05 00       	lea    rdi,[rbp+rax*1+0x0]
    96f8:	48 39 f8             	cmp    rax,rdi
    96fb:	0f 83 a6 00 00 00    	jae    97a7 <pqcrystals_kyber_fips202_ref_shake128+0x947>
    9701:	48 89 da             	mov    rdx,rbx
    9704:	44 89 c0             	mov    eax,r8d
    9707:	45 89 c1             	mov    r9d,r8d
    970a:	eb 12                	jmp    971e <pqcrystals_kyber_fips202_ref_shake128+0x8be>
    970c:	0f 1f 40 00          	nop    DWORD PTR [rax+0x0]
    9710:	48 89 d1             	mov    rcx,rdx
    9713:	48 29 d9             	sub    rcx,rbx
    9716:	4c 01 c9             	add    rcx,r9
    9719:	48 39 cf             	cmp    rdi,rcx
    971c:	76 54                	jbe    9772 <pqcrystals_kyber_fips202_ref_shake128+0x912>
    971e:	89 c6                	mov    esi,eax
    9720:	89 c1                	mov    ecx,eax
    9722:	48 83 c2 01          	add    rdx,0x1
    9726:	83 c0 01             	add    eax,0x1
    9729:	c1 ee 03             	shr    esi,0x3
    972c:	83 e1 07             	and    ecx,0x7
    972f:	48 8b 74 f4 40       	mov    rsi,QWORD PTR [rsp+rsi*8+0x40]
    9734:	c1 e1 03             	shl    ecx,0x3
    9737:	48 d3 ee             	shr    rsi,cl
    973a:	40 88 72 ff          	mov    BYTE PTR [rdx-0x1],sil
    973e:	3d a8 00 00 00       	cmp    eax,0xa8
    9743:	75 cb                	jne    9710 <pqcrystals_kyber_fips202_ref_shake128+0x8b0>
    9745:	44 29 c0             	sub    eax,r8d
    9748:	41 b8 a8 00 00 00    	mov    r8d,0xa8
    974e:	48 29 c5             	sub    rbp,rax
    9751:	48 85 ed             	test   rbp,rbp
    9754:	74 2c                	je     9782 <pqcrystals_kyber_fips202_ref_shake128+0x922>
    9756:	48 89 d3             	mov    rbx,rdx
    9759:	41 81 f8 a8 00 00 00 	cmp    r8d,0xa8
    9760:	75 8e                	jne    96f0 <pqcrystals_kyber_fips202_ref_shake128+0x890>
    9762:	4c 89 e7             	mov    rdi,r12
    9765:	e8 36 c8 ff ff       	call   5fa0 <KeccakF1600_StatePermute>
    976a:	48 89 ef             	mov    rdi,rbp
    976d:	45 31 c0             	xor    r8d,r8d
    9770:	eb 8f                	jmp    9701 <pqcrystals_kyber_fips202_ref_shake128+0x8a1>
    9772:	89 c1                	mov    ecx,eax
    9774:	44 29 c1             	sub    ecx,r8d
    9777:	41 89 c0             	mov    r8d,eax
    977a:	48 29 cd             	sub    rbp,rcx
    977d:	48 85 ed             	test   rbp,rbp
    9780:	75 d4                	jne    9756 <pqcrystals_kyber_fips202_ref_shake128+0x8f6>
    9782:	48 8b 84 24 18 01 00 	mov    rax,QWORD PTR [rsp+0x118]
    9789:	00 
    978a:	64 48 2b 04 25 28 00 	sub    rax,QWORD PTR fs:0x28
    9791:	00 00 
    9793:	75 17                	jne    97ac <pqcrystals_kyber_fips202_ref_shake128+0x94c>
    9795:	48 81 c4 28 01 00 00 	add    rsp,0x128
    979c:	5b                   	pop    rbx
    979d:	5d                   	pop    rbp
    979e:	41 5c                	pop    r12
    97a0:	41 5d                	pop    r13
    97a2:	41 5e                	pop    r14
    97a4:	41 5f                	pop    r15
    97a6:	c3                   	ret    
    97a7:	48 89 da             	mov    rdx,rbx
    97aa:	eb aa                	jmp    9756 <pqcrystals_kyber_fips202_ref_shake128+0x8f6>
    97ac:	e8 4f 79 ff ff       	call   1100 <__stack_chk_fail@plt>
    97b1:	66 66 2e 0f 1f 84 00 	data16 cs nop WORD PTR [rax+rax*1+0x0]
    97b8:	00 00 00 00 
    97bc:	0f 1f 40 00          	nop    DWORD PTR [rax+0x0]

00000000000097c0 <pqcrystals_kyber_fips202_ref_shake256>:
    97c0:	f3 0f 1e fa          	endbr64 
    97c4:	41 57                	push   r15
    97c6:	41 b8 1f 00 00 00    	mov    r8d,0x1f
    97cc:	49 89 ff             	mov    r15,rdi
    97cf:	41 56                	push   r14
    97d1:	41 55                	push   r13
    97d3:	49 89 f5             	mov    r13,rsi
    97d6:	be 88 00 00 00       	mov    esi,0x88
    97db:	41 54                	push   r12
    97dd:	55                   	push   rbp
    97de:	53                   	push   rbx
    97df:	48 81 ec e8 00 00 00 	sub    rsp,0xe8
    97e6:	64 48 8b 04 25 28 00 	mov    rax,QWORD PTR fs:0x28
    97ed:	00 00 
    97ef:	48 89 84 24 d8 00 00 	mov    QWORD PTR [rsp+0xd8],rax
    97f6:	00 
    97f7:	31 c0                	xor    eax,eax
    97f9:	48 89 e5             	mov    rbp,rsp
    97fc:	48 89 ef             	mov    rdi,rbp
    97ff:	e8 4c d0 ff ff       	call   6850 <keccak_absorb_once.constprop.1>
    9804:	4c 89 e8             	mov    rax,r13
    9807:	48 ba f1 f0 f0 f0 f0 	movabs rdx,0xf0f0f0f0f0f0f0f1
    980e:	f0 f0 f0 
    9811:	c7 84 24 c8 00 00 00 	mov    DWORD PTR [rsp+0xc8],0x88
    9818:	88 00 00 00 
    981c:	48 f7 e2             	mul    rdx
    981f:	48 c1 ea 07          	shr    rdx,0x7
    9823:	49 89 d6             	mov    r14,rdx
    9826:	49 81 fd 87 00 00 00 	cmp    r13,0x87
    982d:	0f 86 50 05 00 00    	jbe    9d83 <pqcrystals_kyber_fips202_ref_shake256+0x5c3>
    9833:	66 44 0f 6f 1d 04 18 	movdqa xmm11,XMMWORD PTR [rip+0x1804]        # b040 <_IO_stdin_used+0x40>
    983a:	00 00 
    983c:	49 89 d4             	mov    r12,rdx
    983f:	4c 89 fb             	mov    rbx,r15
    9842:	66 0f 1f 44 00 00    	nop    WORD PTR [rax+rax*1+0x0]
    9848:	48 89 ef             	mov    rdi,rbp
    984b:	48 81 c3 88 00 00 00 	add    rbx,0x88
    9852:	e8 49 c7 ff ff       	call   5fa0 <KeccakF1600_StatePermute>
    9857:	66 0f 6f 0c 24       	movdqa xmm1,XMMWORD PTR [rsp]
    985c:	66 44 0f 6f 64 24 10 	movdqa xmm12,XMMWORD PTR [rsp+0x10]
    9863:	66 44 0f 6f 54 24 20 	movdqa xmm10,XMMWORD PTR [rsp+0x20]
    986a:	66 0f 6f 5c 24 40    	movdqa xmm3,XMMWORD PTR [rsp+0x40]
    9870:	66 0f 6f c1          	movdqa xmm0,xmm1
    9874:	66 44 0f 6f 4c 24 60 	movdqa xmm9,XMMWORD PTR [rsp+0x60]
    987b:	48 8b 84 24 80 00 00 	mov    rax,QWORD PTR [rsp+0x80]
    9882:	00 
    9883:	41 0f c6 c4 88       	shufps xmm0,xmm12,0x88
    9888:	66 0f 6f d0          	movdqa xmm2,xmm0
    988c:	66 45 0f 6f f2       	movdqa xmm14,xmm10
    9891:	66 0f 6f e8          	movdqa xmm5,xmm0
    9895:	44 0f c6 74 24 30 88 	shufps xmm14,XMMWORD PTR [rsp+0x30],0x88
    989c:	66 41 0f 61 d6       	punpcklwd xmm2,xmm14
    98a1:	66 41 0f 69 ee       	punpckhwd xmm5,xmm14
    98a6:	66 0f 6f e3          	movdqa xmm4,xmm3
    98aa:	66 0f 6f f2          	movdqa xmm6,xmm2
    98ae:	0f c6 64 24 50 88    	shufps xmm4,XMMWORD PTR [rsp+0x50],0x88
    98b4:	66 0f 61 d5          	punpcklwd xmm2,xmm5
    98b8:	66 41 0f 6f f9       	movdqa xmm7,xmm9
    98bd:	66 0f 69 f5          	punpckhwd xmm6,xmm5
    98c1:	66 0f 6f ec          	movdqa xmm5,xmm4
    98c5:	0f c6 7c 24 70 88    	shufps xmm7,XMMWORD PTR [rsp+0x70],0x88
    98cb:	48 89 43 f8          	mov    QWORD PTR [rbx-0x8],rax
    98cf:	66 0f 61 d6          	punpcklwd xmm2,xmm6
    98d3:	66 0f 61 ef          	punpcklwd xmm5,xmm7
    98d7:	66 0f 6f f4          	movdqa xmm6,xmm4
    98db:	66 0f 69 f7          	punpckhwd xmm6,xmm7
    98df:	66 44 0f 6f c5       	movdqa xmm8,xmm5
    98e4:	66 45 0f 6f ee       	movdqa xmm13,xmm14
    98e9:	66 44 0f 69 c6       	punpckhwd xmm8,xmm6
    98ee:	66 0f 61 ee          	punpcklwd xmm5,xmm6
    98f2:	66 41 0f 6f f3       	movdqa xmm6,xmm11
    98f7:	66 41 0f 61 e8       	punpcklwd xmm5,xmm8
    98fc:	66 45 0f 6f c3       	movdqa xmm8,xmm11
    9901:	66 44 0f 6f ff       	movdqa xmm15,xmm7
    9906:	66 0f db f5          	pand   xmm6,xmm5
    990a:	66 0f 71 d5 08       	psrlw  xmm5,0x8
    990f:	66 44 0f db c2       	pand   xmm8,xmm2
    9914:	66 44 0f 67 c6       	packuswb xmm8,xmm6
    9919:	66 0f 71 d2 08       	psrlw  xmm2,0x8
    991e:	66 0f 6f f0          	movdqa xmm6,xmm0
    9922:	66 41 0f 72 d5 10    	psrld  xmm13,0x10
    9928:	66 41 0f db eb       	pand   xmm5,xmm11
    992d:	66 41 0f db d3       	pand   xmm2,xmm11
    9932:	66 0f 72 d6 10       	psrld  xmm6,0x10
    9937:	66 41 0f 72 d7 10    	psrld  xmm15,0x10
    993d:	66 0f 67 d5          	packuswb xmm2,xmm5
    9941:	66 41 0f 72 d6 18    	psrld  xmm14,0x18
    9947:	66 0f 72 d0 18       	psrld  xmm0,0x18
    994c:	66 0f 6f ee          	movdqa xmm5,xmm6
    9950:	66 41 0f 61 f5       	punpcklwd xmm6,xmm13
    9955:	66 0f 72 d7 18       	psrld  xmm7,0x18
    995a:	66 41 0f 69 ed       	punpckhwd xmm5,xmm13
    995f:	66 44 0f 6f ee       	movdqa xmm13,xmm6
    9964:	66 0f 61 f5          	punpcklwd xmm6,xmm5
    9968:	66 44 0f 69 ed       	punpckhwd xmm13,xmm5
    996d:	66 0f 6f ec          	movdqa xmm5,xmm4
    9971:	66 0f 72 d5 10       	psrld  xmm5,0x10
    9976:	66 0f 72 d4 18       	psrld  xmm4,0x18
    997b:	66 41 0f 61 f5       	punpcklwd xmm6,xmm13
    9980:	66 44 0f 6f ed       	movdqa xmm13,xmm5
    9985:	66 41 0f 61 ef       	punpcklwd xmm5,xmm15
    998a:	66 41 0f db f3       	pand   xmm6,xmm11
    998f:	66 45 0f 69 ef       	punpckhwd xmm13,xmm15
    9994:	66 44 0f 6f fd       	movdqa xmm15,xmm5
    9999:	66 45 0f 69 fd       	punpckhwd xmm15,xmm13
    999e:	66 41 0f 61 ed       	punpcklwd xmm5,xmm13
    99a3:	66 44 0f 6f ee       	movdqa xmm13,xmm6
    99a8:	66 41 0f 61 ef       	punpcklwd xmm5,xmm15
    99ad:	66 44 0f 6f 7c 24 70 	movdqa xmm15,XMMWORD PTR [rsp+0x70]
    99b4:	66 41 0f db eb       	pand   xmm5,xmm11
    99b9:	66 44 0f 67 ed       	packuswb xmm13,xmm5
    99be:	66 41 0f 73 d7 30    	psrlq  xmm15,0x30
    99c4:	66 0f 6f e8          	movdqa xmm5,xmm0
    99c8:	66 41 0f 61 c6       	punpcklwd xmm0,xmm14
    99cd:	66 41 0f 69 ee       	punpckhwd xmm5,xmm14
    99d2:	66 44 0f 6f 74 24 70 	movdqa xmm14,XMMWORD PTR [rsp+0x70]
    99d9:	66 0f 6f f0          	movdqa xmm6,xmm0
    99dd:	66 0f 61 c5          	punpcklwd xmm0,xmm5
    99e1:	66 0f 69 f5          	punpckhwd xmm6,xmm5
    99e5:	66 41 0f 73 d6 28    	psrlq  xmm14,0x28
    99eb:	66 0f 6f ec          	movdqa xmm5,xmm4
    99ef:	66 0f 61 e7          	punpcklwd xmm4,xmm7
    99f3:	66 0f 69 ef          	punpckhwd xmm5,xmm7
    99f7:	66 0f 61 c6          	punpcklwd xmm0,xmm6
    99fb:	66 0f 6f 7c 24 70    	movdqa xmm7,XMMWORD PTR [rsp+0x70]
    9a01:	66 0f 6f f4          	movdqa xmm6,xmm4
    9a05:	66 0f 61 e5          	punpcklwd xmm4,xmm5
    9a09:	66 41 0f db c3       	pand   xmm0,xmm11
    9a0e:	66 0f 69 f5          	punpckhwd xmm6,xmm5
    9a12:	66 0f 6f 6c 24 30    	movdqa xmm5,XMMWORD PTR [rsp+0x30]
    9a18:	66 0f 73 d7 20       	psrlq  xmm7,0x20
    9a1d:	66 0f 61 e6          	punpcklwd xmm4,xmm6
    9a21:	66 0f 6f f1          	movdqa xmm6,xmm1
    9a25:	66 0f 73 d6 20       	psrlq  xmm6,0x20
    9a2a:	66 0f 73 d5 20       	psrlq  xmm5,0x20
    9a2f:	66 41 0f db e3       	pand   xmm4,xmm11
    9a34:	66 0f 67 c4          	packuswb xmm0,xmm4
    9a38:	66 41 0f 6f e4       	movdqa xmm4,xmm12
    9a3d:	66 0f 73 d4 20       	psrlq  xmm4,0x20
    9a42:	0f c6 f4 88          	shufps xmm6,xmm4,0x88
    9a46:	66 41 0f 6f e2       	movdqa xmm4,xmm10
    9a4b:	66 0f 73 d4 20       	psrlq  xmm4,0x20
    9a50:	0f c6 e5 88          	shufps xmm4,xmm5,0x88
    9a54:	66 0f 6f ee          	movdqa xmm5,xmm6
    9a58:	66 0f 61 f4          	punpcklwd xmm6,xmm4
    9a5c:	66 0f 69 ec          	punpckhwd xmm5,xmm4
    9a60:	66 0f 6f e6          	movdqa xmm4,xmm6
    9a64:	66 0f 69 e5          	punpckhwd xmm4,xmm5
    9a68:	66 0f 61 f5          	punpcklwd xmm6,xmm5
    9a6c:	66 0f 6f 6c 24 50    	movdqa xmm5,XMMWORD PTR [rsp+0x50]
    9a72:	66 0f 61 f4          	punpcklwd xmm6,xmm4
    9a76:	66 0f 6f e3          	movdqa xmm4,xmm3
    9a7a:	66 0f 73 d5 20       	psrlq  xmm5,0x20
    9a7f:	66 0f 73 d4 20       	psrlq  xmm4,0x20
    9a84:	66 41 0f db f3       	pand   xmm6,xmm11
    9a89:	0f c6 e5 88          	shufps xmm4,xmm5,0x88
    9a8d:	66 41 0f 6f e9       	movdqa xmm5,xmm9
    9a92:	66 0f 73 d5 20       	psrlq  xmm5,0x20
    9a97:	0f c6 ef 88          	shufps xmm5,xmm7,0x88
    9a9b:	66 0f 6f fc          	movdqa xmm7,xmm4
    9a9f:	66 0f 61 e5          	punpcklwd xmm4,xmm5
    9aa3:	66 0f 69 fd          	punpckhwd xmm7,xmm5
    9aa7:	66 0f 6f ec          	movdqa xmm5,xmm4
    9aab:	66 0f 69 ef          	punpckhwd xmm5,xmm7
    9aaf:	66 0f 61 e7          	punpcklwd xmm4,xmm7
    9ab3:	66 0f 6f 7c 24 30    	movdqa xmm7,XMMWORD PTR [rsp+0x30]
    9ab9:	66 0f 61 e5          	punpcklwd xmm4,xmm5
    9abd:	66 0f 6f e9          	movdqa xmm5,xmm1
    9ac1:	66 0f 73 d5 28       	psrlq  xmm5,0x28
    9ac6:	66 0f 73 d7 28       	psrlq  xmm7,0x28
    9acb:	66 41 0f db e3       	pand   xmm4,xmm11
    9ad0:	66 0f 67 f4          	packuswb xmm6,xmm4
    9ad4:	66 41 0f 6f e4       	movdqa xmm4,xmm12
    9ad9:	66 0f 73 d4 28       	psrlq  xmm4,0x28
    9ade:	0f c6 ec 88          	shufps xmm5,xmm4,0x88
    9ae2:	66 41 0f 6f e2       	movdqa xmm4,xmm10
    9ae7:	66 0f 73 d4 28       	psrlq  xmm4,0x28
    9aec:	0f c6 e7 88          	shufps xmm4,xmm7,0x88
    9af0:	66 0f 6f fd          	movdqa xmm7,xmm5
    9af4:	66 0f 61 ec          	punpcklwd xmm5,xmm4
    9af8:	66 0f 69 fc          	punpckhwd xmm7,xmm4
    9afc:	66 0f 6f e5          	movdqa xmm4,xmm5
    9b00:	66 0f 69 e7          	punpckhwd xmm4,xmm7
    9b04:	66 0f 61 ef          	punpcklwd xmm5,xmm7
    9b08:	66 0f 6f 7c 24 50    	movdqa xmm7,XMMWORD PTR [rsp+0x50]
    9b0e:	66 0f 61 ec          	punpcklwd xmm5,xmm4
    9b12:	66 0f 6f e3          	movdqa xmm4,xmm3
    9b16:	66 0f 73 d7 28       	psrlq  xmm7,0x28
    9b1b:	66 0f 73 d4 28       	psrlq  xmm4,0x28
    9b20:	66 41 0f db eb       	pand   xmm5,xmm11
    9b25:	0f c6 e7 88          	shufps xmm4,xmm7,0x88
    9b29:	66 41 0f 6f f9       	movdqa xmm7,xmm9
    9b2e:	66 0f 73 d7 28       	psrlq  xmm7,0x28
    9b33:	41 0f c6 fe 88       	shufps xmm7,xmm14,0x88
    9b38:	66 44 0f 6f f4       	movdqa xmm14,xmm4
    9b3d:	66 0f 61 e7          	punpcklwd xmm4,xmm7
    9b41:	66 44 0f 69 f7       	punpckhwd xmm14,xmm7
    9b46:	66 0f 6f fc          	movdqa xmm7,xmm4
    9b4a:	66 41 0f 69 fe       	punpckhwd xmm7,xmm14
    9b4f:	66 41 0f 61 e6       	punpcklwd xmm4,xmm14
    9b54:	66 44 0f 6f 74 24 30 	movdqa xmm14,XMMWORD PTR [rsp+0x30]
    9b5b:	66 0f 61 e7          	punpcklwd xmm4,xmm7
    9b5f:	66 41 0f 6f fc       	movdqa xmm7,xmm12
    9b64:	66 0f 73 d7 30       	psrlq  xmm7,0x30
    9b69:	66 41 0f db e3       	pand   xmm4,xmm11
    9b6e:	66 41 0f 73 d6 30    	psrlq  xmm14,0x30
    9b74:	66 41 0f 73 d4 38    	psrlq  xmm12,0x38
    9b7a:	66 0f 67 ec          	packuswb xmm5,xmm4
    9b7e:	66 0f 6f e1          	movdqa xmm4,xmm1
    9b82:	66 0f 73 d1 38       	psrlq  xmm1,0x38
    9b87:	66 0f 73 d4 30       	psrlq  xmm4,0x30
    9b8c:	41 0f c6 cc 88       	shufps xmm1,xmm12,0x88
    9b91:	0f c6 e7 88          	shufps xmm4,xmm7,0x88
    9b95:	66 41 0f 6f fa       	movdqa xmm7,xmm10
    9b9a:	66 41 0f 73 d2 38    	psrlq  xmm10,0x38
    9ba0:	66 0f 73 d7 30       	psrlq  xmm7,0x30
    9ba5:	41 0f c6 fe 88       	shufps xmm7,xmm14,0x88
    9baa:	66 44 0f 6f f4       	movdqa xmm14,xmm4
    9baf:	66 0f 61 e7          	punpcklwd xmm4,xmm7
    9bb3:	66 44 0f 69 f7       	punpckhwd xmm14,xmm7
    9bb8:	66 0f 6f fc          	movdqa xmm7,xmm4
    9bbc:	66 41 0f 69 fe       	punpckhwd xmm7,xmm14
    9bc1:	66 41 0f 61 e6       	punpcklwd xmm4,xmm14
    9bc6:	66 44 0f 6f 74 24 50 	movdqa xmm14,XMMWORD PTR [rsp+0x50]
    9bcd:	66 0f 61 e7          	punpcklwd xmm4,xmm7
    9bd1:	66 0f 6f fb          	movdqa xmm7,xmm3
    9bd5:	66 41 0f 73 d6 30    	psrlq  xmm14,0x30
    9bdb:	66 0f 73 d7 30       	psrlq  xmm7,0x30
    9be0:	66 41 0f db e3       	pand   xmm4,xmm11
    9be5:	41 0f c6 fe 88       	shufps xmm7,xmm14,0x88
    9bea:	66 45 0f 6f f1       	movdqa xmm14,xmm9
    9bef:	66 0f 73 d3 38       	psrlq  xmm3,0x38
    9bf4:	66 41 0f 73 d6 30    	psrlq  xmm14,0x30
    9bfa:	66 41 0f 73 d1 38    	psrlq  xmm9,0x38
    9c00:	45 0f c6 f7 88       	shufps xmm14,xmm15,0x88
    9c05:	66 44 0f 6f ff       	movdqa xmm15,xmm7
    9c0a:	66 41 0f 61 fe       	punpcklwd xmm7,xmm14
    9c0f:	66 45 0f 69 fe       	punpckhwd xmm15,xmm14
    9c14:	66 44 0f 6f f7       	movdqa xmm14,xmm7
    9c19:	66 45 0f 69 f7       	punpckhwd xmm14,xmm15
    9c1e:	66 41 0f 61 ff       	punpcklwd xmm7,xmm15
    9c23:	66 41 0f 61 fe       	punpcklwd xmm7,xmm14
    9c28:	66 41 0f db fb       	pand   xmm7,xmm11
    9c2d:	66 0f 67 e7          	packuswb xmm4,xmm7
    9c31:	66 0f 6f 7c 24 30    	movdqa xmm7,XMMWORD PTR [rsp+0x30]
    9c37:	66 0f 73 d7 38       	psrlq  xmm7,0x38
    9c3c:	44 0f c6 d7 88       	shufps xmm10,xmm7,0x88
    9c41:	66 0f 6f f9          	movdqa xmm7,xmm1
    9c45:	66 41 0f 61 ca       	punpcklwd xmm1,xmm10
    9c4a:	66 41 0f 69 fa       	punpckhwd xmm7,xmm10
    9c4f:	66 44 0f 6f d1       	movdqa xmm10,xmm1
    9c54:	66 44 0f 69 d7       	punpckhwd xmm10,xmm7
    9c59:	66 0f 61 cf          	punpcklwd xmm1,xmm7
    9c5d:	66 0f 6f 7c 24 50    	movdqa xmm7,XMMWORD PTR [rsp+0x50]
    9c63:	66 41 0f 61 ca       	punpcklwd xmm1,xmm10
    9c68:	66 0f 73 d7 38       	psrlq  xmm7,0x38
    9c6d:	66 41 0f db cb       	pand   xmm1,xmm11
    9c72:	0f c6 df 88          	shufps xmm3,xmm7,0x88
    9c76:	66 0f 6f 7c 24 70    	movdqa xmm7,XMMWORD PTR [rsp+0x70]
    9c7c:	66 0f 73 d7 38       	psrlq  xmm7,0x38
    9c81:	44 0f c6 cf 88       	shufps xmm9,xmm7,0x88
    9c86:	66 0f 6f fb          	movdqa xmm7,xmm3
    9c8a:	66 41 0f 61 d9       	punpcklwd xmm3,xmm9
    9c8f:	66 41 0f 69 f9       	punpckhwd xmm7,xmm9
    9c94:	66 44 0f 6f cb       	movdqa xmm9,xmm3
    9c99:	66 44 0f 69 cf       	punpckhwd xmm9,xmm7
    9c9e:	66 0f 61 df          	punpcklwd xmm3,xmm7
    9ca2:	66 41 0f 6f fd       	movdqa xmm7,xmm13
    9ca7:	66 41 0f 61 d9       	punpcklwd xmm3,xmm9
    9cac:	66 0f 60 fc          	punpcklbw xmm7,xmm4
    9cb0:	66 44 0f 6f c8       	movdqa xmm9,xmm0
    9cb5:	66 41 0f db db       	pand   xmm3,xmm11
    9cba:	66 44 0f 68 ec       	punpckhbw xmm13,xmm4
    9cbf:	66 0f 67 cb          	packuswb xmm1,xmm3
    9cc3:	66 41 0f 6f d8       	movdqa xmm3,xmm8
    9cc8:	66 44 0f 68 c6       	punpckhbw xmm8,xmm6
    9ccd:	66 0f 60 de          	punpcklbw xmm3,xmm6
    9cd1:	66 0f 6f f2          	movdqa xmm6,xmm2
    9cd5:	66 0f 68 d5          	punpckhbw xmm2,xmm5
    9cd9:	66 0f 60 f5          	punpcklbw xmm6,xmm5
    9cdd:	66 0f 6f eb          	movdqa xmm5,xmm3
    9ce1:	66 0f 68 c1          	punpckhbw xmm0,xmm1
    9ce5:	66 44 0f 60 c9       	punpcklbw xmm9,xmm1
    9cea:	66 0f 60 ef          	punpcklbw xmm5,xmm7
    9cee:	66 0f 68 df          	punpckhbw xmm3,xmm7
    9cf2:	66 0f 6f ce          	movdqa xmm1,xmm6
    9cf6:	66 0f 6f fe          	movdqa xmm7,xmm6
    9cfa:	66 0f 6f f2          	movdqa xmm6,xmm2
    9cfe:	66 0f 60 f0          	punpcklbw xmm6,xmm0
    9d02:	66 0f 68 d0          	punpckhbw xmm2,xmm0
    9d06:	66 41 0f 60 f9       	punpcklbw xmm7,xmm9
    9d0b:	66 0f 6f c5          	movdqa xmm0,xmm5
    9d0f:	66 0f 6f e3          	movdqa xmm4,xmm3
    9d13:	66 41 0f 68 c9       	punpckhbw xmm1,xmm9
    9d18:	66 0f 60 c7          	punpcklbw xmm0,xmm7
    9d1c:	66 41 0f 6f d8       	movdqa xmm3,xmm8
    9d21:	66 45 0f 68 c5       	punpckhbw xmm8,xmm13
    9d26:	0f 11 83 78 ff ff ff 	movups XMMWORD PTR [rbx-0x88],xmm0
    9d2d:	66 0f 6f c4          	movdqa xmm0,xmm4
    9d31:	66 41 0f 60 dd       	punpcklbw xmm3,xmm13
    9d36:	66 0f 68 ef          	punpckhbw xmm5,xmm7
    9d3a:	66 0f 60 c1          	punpcklbw xmm0,xmm1
    9d3e:	66 0f 68 e1          	punpckhbw xmm4,xmm1
    9d42:	0f 11 6b 88          	movups XMMWORD PTR [rbx-0x78],xmm5
    9d46:	0f 11 43 98          	movups XMMWORD PTR [rbx-0x68],xmm0
    9d4a:	66 0f 6f c3          	movdqa xmm0,xmm3
    9d4e:	66 0f 68 de          	punpckhbw xmm3,xmm6
    9d52:	66 0f 60 c6          	punpcklbw xmm0,xmm6
    9d56:	0f 11 63 a8          	movups XMMWORD PTR [rbx-0x58],xmm4
    9d5a:	0f 11 43 b8          	movups XMMWORD PTR [rbx-0x48],xmm0
    9d5e:	66 41 0f 6f c0       	movdqa xmm0,xmm8
    9d63:	66 44 0f 68 c2       	punpckhbw xmm8,xmm2
    9d68:	66 0f 60 c2          	punpcklbw xmm0,xmm2
    9d6c:	0f 11 5b c8          	movups XMMWORD PTR [rbx-0x38],xmm3
    9d70:	0f 11 43 d8          	movups XMMWORD PTR [rbx-0x28],xmm0
    9d74:	44 0f 11 43 e8       	movups XMMWORD PTR [rbx-0x18],xmm8
    9d79:	49 83 ec 01          	sub    r12,0x1
    9d7d:	0f 85 c5 fa ff ff    	jne    9848 <pqcrystals_kyber_fips202_ref_shake256+0x88>
    9d83:	4c 89 e8             	mov    rax,r13
    9d86:	41 b9 88 00 00 00    	mov    r9d,0x88
    9d8c:	48 ba f1 f0 f0 f0 f0 	movabs rdx,0xf0f0f0f0f0f0f0f1
    9d93:	f0 f0 f0 
    9d96:	48 f7 e2             	mul    rdx
    9d99:	48 c1 ea 07          	shr    rdx,0x7
    9d9d:	48 89 d0             	mov    rax,rdx
    9da0:	48 c1 e0 04          	shl    rax,0x4
    9da4:	48 01 d0             	add    rax,rdx
    9da7:	4c 89 f2             	mov    rdx,r14
    9daa:	48 c1 e2 04          	shl    rdx,0x4
    9dae:	48 c1 e0 03          	shl    rax,0x3
    9db2:	4c 01 f2             	add    rdx,r14
    9db5:	49 29 c5             	sub    r13,rax
    9db8:	49 8d 1c d7          	lea    rbx,[r15+rdx*8]
    9dbc:	4d 89 ec             	mov    r12,r13
    9dbf:	0f 84 9c 00 00 00    	je     9e61 <pqcrystals_kyber_fips202_ref_shake256+0x6a1>
    9dc5:	41 81 f9 88 00 00 00 	cmp    r9d,0x88
    9dcc:	74 73                	je     9e41 <pqcrystals_kyber_fips202_ref_shake256+0x681>
    9dce:	66 90                	xchg   ax,ax
    9dd0:	44 89 c8             	mov    eax,r9d
    9dd3:	49 8d 3c 04          	lea    rdi,[r12+rax*1]
    9dd7:	48 39 f8             	cmp    rax,rdi
    9dda:	0f 83 a6 00 00 00    	jae    9e86 <pqcrystals_kyber_fips202_ref_shake256+0x6c6>
    9de0:	48 89 da             	mov    rdx,rbx
    9de3:	44 89 c8             	mov    eax,r9d
    9de6:	45 89 c8             	mov    r8d,r9d
    9de9:	eb 13                	jmp    9dfe <pqcrystals_kyber_fips202_ref_shake256+0x63e>
    9deb:	0f 1f 44 00 00       	nop    DWORD PTR [rax+rax*1+0x0]
    9df0:	48 89 d1             	mov    rcx,rdx
    9df3:	48 29 d9             	sub    rcx,rbx
    9df6:	4c 01 c1             	add    rcx,r8
    9df9:	48 39 cf             	cmp    rdi,rcx
    9dfc:	76 53                	jbe    9e51 <pqcrystals_kyber_fips202_ref_shake256+0x691>
    9dfe:	89 c6                	mov    esi,eax
    9e00:	89 c1                	mov    ecx,eax
    9e02:	48 83 c2 01          	add    rdx,0x1
    9e06:	83 c0 01             	add    eax,0x1
    9e09:	c1 ee 03             	shr    esi,0x3
    9e0c:	83 e1 07             	and    ecx,0x7
    9e0f:	48 8b 34 f4          	mov    rsi,QWORD PTR [rsp+rsi*8]
    9e13:	c1 e1 03             	shl    ecx,0x3
    9e16:	48 d3 ee             	shr    rsi,cl
    9e19:	40 88 72 ff          	mov    BYTE PTR [rdx-0x1],sil
    9e1d:	3d 88 00 00 00       	cmp    eax,0x88
    9e22:	75 cc                	jne    9df0 <pqcrystals_kyber_fips202_ref_shake256+0x630>
    9e24:	44 29 c8             	sub    eax,r9d
    9e27:	41 b9 88 00 00 00    	mov    r9d,0x88
    9e2d:	49 29 c4             	sub    r12,rax
    9e30:	4d 85 e4             	test   r12,r12
    9e33:	74 2c                	je     9e61 <pqcrystals_kyber_fips202_ref_shake256+0x6a1>
    9e35:	48 89 d3             	mov    rbx,rdx
    9e38:	41 81 f9 88 00 00 00 	cmp    r9d,0x88
    9e3f:	75 8f                	jne    9dd0 <pqcrystals_kyber_fips202_ref_shake256+0x610>
    9e41:	48 89 ef             	mov    rdi,rbp
    9e44:	e8 57 c1 ff ff       	call   5fa0 <KeccakF1600_StatePermute>
    9e49:	4c 89 e7             	mov    rdi,r12
    9e4c:	45 31 c9             	xor    r9d,r9d
    9e4f:	eb 8f                	jmp    9de0 <pqcrystals_kyber_fips202_ref_shake256+0x620>
    9e51:	89 c1                	mov    ecx,eax
    9e53:	44 29 c9             	sub    ecx,r9d
    9e56:	41 89 c1             	mov    r9d,eax
    9e59:	49 29 cc             	sub    r12,rcx
    9e5c:	4d 85 e4             	test   r12,r12
    9e5f:	75 d4                	jne    9e35 <pqcrystals_kyber_fips202_ref_shake256+0x675>
    9e61:	48 8b 84 24 d8 00 00 	mov    rax,QWORD PTR [rsp+0xd8]
    9e68:	00 
    9e69:	64 48 2b 04 25 28 00 	sub    rax,QWORD PTR fs:0x28
    9e70:	00 00 
    9e72:	75 17                	jne    9e8b <pqcrystals_kyber_fips202_ref_shake256+0x6cb>
    9e74:	48 81 c4 e8 00 00 00 	add    rsp,0xe8
    9e7b:	5b                   	pop    rbx
    9e7c:	5d                   	pop    rbp
    9e7d:	41 5c                	pop    r12
    9e7f:	41 5d                	pop    r13
    9e81:	41 5e                	pop    r14
    9e83:	41 5f                	pop    r15
    9e85:	c3                   	ret    
    9e86:	48 89 da             	mov    rdx,rbx
    9e89:	eb aa                	jmp    9e35 <pqcrystals_kyber_fips202_ref_shake256+0x675>
    9e8b:	e8 70 72 ff ff       	call   1100 <__stack_chk_fail@plt>

0000000000009e90 <pqcrystals_kyber_fips202_ref_sha3_256>:
    9e90:	f3 0f 1e fa          	endbr64 
    9e94:	41 57                	push   r15
    9e96:	48 89 d1             	mov    rcx,rdx
    9e99:	41 b8 06 00 00 00    	mov    r8d,0x6
    9e9f:	48 89 f2             	mov    rdx,rsi
    9ea2:	41 56                	push   r14
    9ea4:	be 88 00 00 00       	mov    esi,0x88
    9ea9:	41 55                	push   r13
    9eab:	41 54                	push   r12
    9ead:	55                   	push   rbp
    9eae:	48 89 fd             	mov    rbp,rdi
    9eb1:	53                   	push   rbx
    9eb2:	48 81 ec e8 00 00 00 	sub    rsp,0xe8
    9eb9:	64 48 8b 04 25 28 00 	mov    rax,QWORD PTR fs:0x28
    9ec0:	00 00 
    9ec2:	48 89 84 24 d8 00 00 	mov    QWORD PTR [rsp+0xd8],rax
    9ec9:	00 
    9eca:	31 c0                	xor    eax,eax
    9ecc:	4c 8d 64 24 10       	lea    r12,[rsp+0x10]
    9ed1:	4c 89 e7             	mov    rdi,r12
    9ed4:	e8 77 c9 ff ff       	call   6850 <keccak_absorb_once.constprop.1>
    9ed9:	4c 89 e7             	mov    rdi,r12
    9edc:	e8 bf c0 ff ff       	call   5fa0 <KeccakF1600_StatePermute>
    9ee1:	48 8b 5c 24 18       	mov    rbx,QWORD PTR [rsp+0x18]
    9ee6:	48 8b 74 24 10       	mov    rsi,QWORD PTR [rsp+0x10]
    9eeb:	48 8b 4c 24 20       	mov    rcx,QWORD PTR [rsp+0x20]
    9ef0:	48 8b 54 24 28       	mov    rdx,QWORD PTR [rsp+0x28]
    9ef5:	48 89 d8             	mov    rax,rbx
    9ef8:	49 89 f7             	mov    r15,rsi
    9efb:	49 89 f6             	mov    r14,rsi
    9efe:	49 89 f5             	mov    r13,rsi
    9f01:	48 c1 e8 10          	shr    rax,0x10
    9f05:	49 c1 ef 30          	shr    r15,0x30
    9f09:	49 89 f4             	mov    r12,rsi
    9f0c:	49 89 f3             	mov    r11,rsi
    9f0f:	48 89 04 24          	mov    QWORD PTR [rsp],rax
    9f13:	48 89 f0             	mov    rax,rsi
    9f16:	45 0f b6 ff          	movzx  r15d,r15b
    9f1a:	49 c1 ee 28          	shr    r14,0x28
    9f1e:	48 c1 e8 38          	shr    rax,0x38
    9f22:	45 0f b6 f6          	movzx  r14d,r14b
    9f26:	49 c1 ed 20          	shr    r13,0x20
    9f2a:	49 89 da             	mov    r10,rbx
    9f2d:	48 c1 e0 08          	shl    rax,0x8
    9f31:	45 0f b6 ed          	movzx  r13d,r13b
    9f35:	49 c1 ec 18          	shr    r12,0x18
    9f39:	49 89 d9             	mov    r9,rbx
    9f3c:	4c 09 f8             	or     rax,r15
    9f3f:	45 0f b6 e4          	movzx  r12d,r12b
    9f43:	49 c1 eb 10          	shr    r11,0x10
    9f47:	48 89 df             	mov    rdi,rbx
    9f4a:	48 c1 e0 08          	shl    rax,0x8
    9f4e:	49 c1 ea 30          	shr    r10,0x30
    9f52:	49 89 d8             	mov    r8,rbx
    9f55:	49 c1 e9 28          	shr    r9,0x28
    9f59:	4c 09 f0             	or     rax,r14
    9f5c:	45 0f b6 d2          	movzx  r10d,r10b
    9f60:	48 c1 ef 18          	shr    rdi,0x18
    9f64:	48 c1 e0 08          	shl    rax,0x8
    9f68:	45 0f b6 c9          	movzx  r9d,r9b
    9f6c:	49 c1 e8 20          	shr    r8,0x20
    9f70:	40 0f b6 ff          	movzx  edi,dil
    9f74:	4c 09 e8             	or     rax,r13
    9f77:	45 0f b6 c0          	movzx  r8d,r8b
    9f7b:	49 89 ce             	mov    r14,rcx
    9f7e:	49 89 cd             	mov    r13,rcx
    9f81:	48 c1 e0 08          	shl    rax,0x8
    9f85:	4c 09 e0             	or     rax,r12
    9f88:	45 0f b6 e3          	movzx  r12d,r11b
    9f8c:	49 89 c3             	mov    r11,rax
    9f8f:	48 89 f0             	mov    rax,rsi
    9f92:	40 0f b6 f6          	movzx  esi,sil
    9f96:	49 c1 e3 08          	shl    r11,0x8
    9f9a:	0f b6 c4             	movzx  eax,ah
    9f9d:	4d 09 e3             	or     r11,r12
    9fa0:	49 89 cc             	mov    r12,rcx
    9fa3:	49 c1 e3 08          	shl    r11,0x8
    9fa7:	49 09 c3             	or     r11,rax
    9faa:	48 89 d8             	mov    rax,rbx
    9fad:	48 c1 e8 38          	shr    rax,0x38
    9fb1:	49 c1 e3 08          	shl    r11,0x8
    9fb5:	48 c1 e0 08          	shl    rax,0x8
    9fb9:	4c 09 d0             	or     rax,r10
    9fbc:	49 89 d2             	mov    r10,rdx
    9fbf:	48 c1 e0 08          	shl    rax,0x8
    9fc3:	4c 09 c8             	or     rax,r9
    9fc6:	49 09 f3             	or     r11,rsi
    9fc9:	48 89 ce             	mov    rsi,rcx
    9fcc:	49 c1 ee 30          	shr    r14,0x30
    9fd0:	48 c1 e0 08          	shl    rax,0x8
    9fd4:	48 c1 ee 38          	shr    rsi,0x38
    9fd8:	45 0f b6 f6          	movzx  r14d,r14b
    9fdc:	49 89 d1             	mov    r9,rdx
    9fdf:	48 c1 e6 08          	shl    rsi,0x8
    9fe3:	4c 09 c0             	or     rax,r8
    9fe6:	49 c1 ed 28          	shr    r13,0x28
    9fea:	49 89 d0             	mov    r8,rdx
    9fed:	48 c1 e0 08          	shl    rax,0x8
    9ff1:	4c 09 f6             	or     rsi,r14
    9ff4:	45 0f b6 ed          	movzx  r13d,r13b
    9ff8:	49 c1 ec 20          	shr    r12,0x20
    9ffc:	48 c1 e6 08          	shl    rsi,0x8
    a000:	48 09 f8             	or     rax,rdi
    a003:	0f b6 3c 24          	movzx  edi,BYTE PTR [rsp]
    a007:	45 0f b6 e4          	movzx  r12d,r12b
    a00b:	48 c1 e0 08          	shl    rax,0x8
    a00f:	4c 09 ee             	or     rsi,r13
    a012:	4c 89 1c 24          	mov    QWORD PTR [rsp],r11
    a016:	49 89 d3             	mov    r11,rdx
    a019:	48 c1 e6 08          	shl    rsi,0x8
    a01d:	48 09 f8             	or     rax,rdi
    a020:	0f b6 ff             	movzx  edi,bh
    a023:	0f b6 db             	movzx  ebx,bl
    a026:	48 c1 e0 08          	shl    rax,0x8
    a02a:	4c 09 e6             	or     rsi,r12
    a02d:	49 c1 e8 18          	shr    r8,0x18
    a031:	48 c1 e6 08          	shl    rsi,0x8
    a035:	48 09 f8             	or     rax,rdi
    a038:	48 89 d7             	mov    rdi,rdx
    a03b:	49 c1 e9 20          	shr    r9,0x20
    a03f:	48 c1 e0 08          	shl    rax,0x8
    a043:	48 c1 ef 10          	shr    rdi,0x10
    a047:	45 0f b6 c9          	movzx  r9d,r9b
    a04b:	45 0f b6 c0          	movzx  r8d,r8b
    a04f:	49 c1 ea 28          	shr    r10,0x28
    a053:	48 09 d8             	or     rax,rbx
    a056:	48 89 cb             	mov    rbx,rcx
    a059:	49 c1 eb 30          	shr    r11,0x30
    a05d:	48 c1 eb 18          	shr    rbx,0x18
    a061:	45 0f b6 db          	movzx  r11d,r11b
    a065:	45 0f b6 d2          	movzx  r10d,r10b
    a069:	40 0f b6 ff          	movzx  edi,dil
    a06d:	48 89 44 24 08       	mov    QWORD PTR [rsp+0x8],rax
    a072:	0f b6 db             	movzx  ebx,bl
    a075:	48 89 c8             	mov    rax,rcx
    a078:	66 0f 6f 04 24       	movdqa xmm0,XMMWORD PTR [rsp]
    a07d:	48 c1 e8 10          	shr    rax,0x10
    a081:	48 09 de             	or     rsi,rbx
    a084:	0f b6 c0             	movzx  eax,al
    a087:	48 c1 e6 08          	shl    rsi,0x8
    a08b:	0f 11 45 00          	movups XMMWORD PTR [rbp+0x0],xmm0
    a08f:	48 09 c6             	or     rsi,rax
    a092:	0f b6 c5             	movzx  eax,ch
    a095:	0f b6 c9             	movzx  ecx,cl
    a098:	48 c1 e6 08          	shl    rsi,0x8
    a09c:	48 09 c6             	or     rsi,rax
    a09f:	48 89 d0             	mov    rax,rdx
    a0a2:	48 c1 e8 38          	shr    rax,0x38
    a0a6:	48 c1 e6 08          	shl    rsi,0x8
    a0aa:	48 c1 e0 08          	shl    rax,0x8
    a0ae:	48 09 ce             	or     rsi,rcx
    a0b1:	4c 09 d8             	or     rax,r11
    a0b4:	48 89 34 24          	mov    QWORD PTR [rsp],rsi
    a0b8:	48 c1 e0 08          	shl    rax,0x8
    a0bc:	4c 09 d0             	or     rax,r10
    a0bf:	48 c1 e0 08          	shl    rax,0x8
    a0c3:	4c 09 c8             	or     rax,r9
    a0c6:	48 c1 e0 08          	shl    rax,0x8
    a0ca:	4c 09 c0             	or     rax,r8
    a0cd:	48 c1 e0 08          	shl    rax,0x8
    a0d1:	48 09 f8             	or     rax,rdi
    a0d4:	0f b6 fe             	movzx  edi,dh
    a0d7:	0f b6 d2             	movzx  edx,dl
    a0da:	48 c1 e0 08          	shl    rax,0x8
    a0de:	48 09 f8             	or     rax,rdi
    a0e1:	48 c1 e0 08          	shl    rax,0x8
    a0e5:	48 09 d0             	or     rax,rdx
    a0e8:	48 89 44 24 08       	mov    QWORD PTR [rsp+0x8],rax
    a0ed:	66 0f 6f 0c 24       	movdqa xmm1,XMMWORD PTR [rsp]
    a0f2:	0f 11 4d 10          	movups XMMWORD PTR [rbp+0x10],xmm1
    a0f6:	48 8b 84 24 d8 00 00 	mov    rax,QWORD PTR [rsp+0xd8]
    a0fd:	00 
    a0fe:	64 48 2b 04 25 28 00 	sub    rax,QWORD PTR fs:0x28
    a105:	00 00 
    a107:	75 12                	jne    a11b <pqcrystals_kyber_fips202_ref_sha3_256+0x28b>
    a109:	48 81 c4 e8 00 00 00 	add    rsp,0xe8
    a110:	5b                   	pop    rbx
    a111:	5d                   	pop    rbp
    a112:	41 5c                	pop    r12
    a114:	41 5d                	pop    r13
    a116:	41 5e                	pop    r14
    a118:	41 5f                	pop    r15
    a11a:	c3                   	ret    
    a11b:	e8 e0 6f ff ff       	call   1100 <__stack_chk_fail@plt>

000000000000a120 <pqcrystals_kyber_fips202_ref_sha3_512>:
    a120:	f3 0f 1e fa          	endbr64 
    a124:	41 57                	push   r15
    a126:	b9 19 00 00 00       	mov    ecx,0x19
    a12b:	41 56                	push   r14
    a12d:	41 55                	push   r13
    a12f:	49 89 d5             	mov    r13,rdx
    a132:	41 54                	push   r12
    a134:	55                   	push   rbp
    a135:	48 89 fd             	mov    rbp,rdi
    a138:	53                   	push   rbx
    a139:	48 89 f3             	mov    rbx,rsi
    a13c:	48 81 ec 08 01 00 00 	sub    rsp,0x108
    a143:	64 48 8b 04 25 28 00 	mov    rax,QWORD PTR fs:0x28
    a14a:	00 00 
    a14c:	48 89 84 24 f8 00 00 	mov    QWORD PTR [rsp+0xf8],rax
    a153:	00 
    a154:	31 c0                	xor    eax,eax
    a156:	4c 8d 64 24 30       	lea    r12,[rsp+0x30]
    a15b:	4c 89 e7             	mov    rdi,r12
    a15e:	f3 48 ab             	rep stos QWORD PTR es:[rdi],rax
    a161:	48 83 fa 47          	cmp    rdx,0x47
    a165:	0f 86 90 00 00 00    	jbe    a1fb <pqcrystals_kyber_fips202_ref_sha3_512+0xdb>
    a16b:	4c 8d 74 24 78       	lea    r14,[rsp+0x78]
    a170:	48 89 d8             	mov    rax,rbx
    a173:	4c 89 e6             	mov    rsi,r12
    a176:	66 2e 0f 1f 84 00 00 	cs nop WORD PTR [rax+rax*1+0x0]
    a17d:	00 00 00 
    a180:	0f b6 50 01          	movzx  edx,BYTE PTR [rax+0x1]
    a184:	0f b6 48 02          	movzx  ecx,BYTE PTR [rax+0x2]
    a188:	48 83 c0 08          	add    rax,0x8
    a18c:	48 c1 e1 10          	shl    rcx,0x10
    a190:	48 c1 e2 08          	shl    rdx,0x8
    a194:	48 09 ca             	or     rdx,rcx
    a197:	0f b6 48 f8          	movzx  ecx,BYTE PTR [rax-0x8]
    a19b:	48 09 ca             	or     rdx,rcx
    a19e:	0f b6 48 fb          	movzx  ecx,BYTE PTR [rax-0x5]
    a1a2:	48 c1 e1 18          	shl    rcx,0x18
    a1a6:	48 09 ca             	or     rdx,rcx
    a1a9:	0f b6 48 fc          	movzx  ecx,BYTE PTR [rax-0x4]
    a1ad:	48 c1 e1 20          	shl    rcx,0x20
    a1b1:	48 09 d1             	or     rcx,rdx
    a1b4:	0f b6 50 fd          	movzx  edx,BYTE PTR [rax-0x3]
    a1b8:	48 c1 e2 28          	shl    rdx,0x28
    a1bc:	48 09 ca             	or     rdx,rcx
    a1bf:	0f b6 48 fe          	movzx  ecx,BYTE PTR [rax-0x2]
    a1c3:	48 c1 e1 30          	shl    rcx,0x30
    a1c7:	48 09 d1             	or     rcx,rdx
    a1ca:	0f b6 50 ff          	movzx  edx,BYTE PTR [rax-0x1]
    a1ce:	48 c1 e2 38          	shl    rdx,0x38
    a1d2:	48 09 ca             	or     rdx,rcx
    a1d5:	48 31 16             	xor    QWORD PTR [rsi],rdx
    a1d8:	48 83 c6 08          	add    rsi,0x8
    a1dc:	49 39 f6             	cmp    r14,rsi
    a1df:	75 9f                	jne    a180 <pqcrystals_kyber_fips202_ref_sha3_512+0x60>
    a1e1:	49 83 ed 48          	sub    r13,0x48
    a1e5:	4c 89 e7             	mov    rdi,r12
    a1e8:	48 83 c3 48          	add    rbx,0x48
    a1ec:	e8 af bd ff ff       	call   5fa0 <KeccakF1600_StatePermute>
    a1f1:	49 83 fd 47          	cmp    r13,0x47
    a1f5:	0f 87 75 ff ff ff    	ja     a170 <pqcrystals_kyber_fips202_ref_sha3_512+0x50>
    a1fb:	4d 85 ed             	test   r13,r13
    a1fe:	0f 84 f2 04 00 00    	je     a6f6 <pqcrystals_kyber_fips202_ref_sha3_512+0x5d6>
    a204:	31 c9                	xor    ecx,ecx
    a206:	31 c0                	xor    eax,eax
    a208:	0f 1f 84 00 00 00 00 	nop    DWORD PTR [rax+rax*1+0x0]
    a20f:	00 
    a210:	0f b6 34 0b          	movzx  esi,BYTE PTR [rbx+rcx*1]
    a214:	89 c1                	mov    ecx,eax
    a216:	89 c2                	mov    edx,eax
    a218:	83 e1 07             	and    ecx,0x7
    a21b:	c1 ea 03             	shr    edx,0x3
    a21e:	c1 e1 03             	shl    ecx,0x3
    a221:	48 d3 e6             	shl    rsi,cl
    a224:	8d 48 01             	lea    ecx,[rax+0x1]
    a227:	49 31 34 d4          	xor    QWORD PTR [r12+rdx*8],rsi
    a22b:	48 89 c8             	mov    rax,rcx
    a22e:	49 39 cd             	cmp    r13,rcx
    a231:	77 dd                	ja     a210 <pqcrystals_kyber_fips202_ref_sha3_512+0xf0>
    a233:	89 ca                	mov    edx,ecx
    a235:	83 e0 07             	and    eax,0x7
    a238:	8d 0c c5 00 00 00 00 	lea    ecx,[rax*8+0x0]
    a23f:	c1 ea 03             	shr    edx,0x3
    a242:	b8 06 00 00 00       	mov    eax,0x6
    a247:	49 8d 14 d4          	lea    rdx,[r12+rdx*8]
    a24b:	48 d3 e0             	shl    rax,cl
    a24e:	48 31 02             	xor    QWORD PTR [rdx],rax
    a251:	4c 89 e7             	mov    rdi,r12
    a254:	48 0f ba 7c 24 70 3f 	btc    QWORD PTR [rsp+0x70],0x3f
    a25b:	e8 40 bd ff ff       	call   5fa0 <KeccakF1600_StatePermute>
    a260:	4c 8b 54 24 30       	mov    r10,QWORD PTR [rsp+0x30]
    a265:	4c 8b 4c 24 38       	mov    r9,QWORD PTR [rsp+0x38]
    a26a:	4c 8b 44 24 40       	mov    r8,QWORD PTR [rsp+0x40]
    a26f:	48 8b 5c 24 48       	mov    rbx,QWORD PTR [rsp+0x48]
    a274:	4c 89 d0             	mov    rax,r10
    a277:	4d 89 d4             	mov    r12,r10
    a27a:	4d 89 d7             	mov    r15,r10
    a27d:	4c 89 d2             	mov    rdx,r10
    a280:	48 c1 e8 20          	shr    rax,0x20
    a284:	49 c1 ec 30          	shr    r12,0x30
    a288:	4d 89 d3             	mov    r11,r10
    a28b:	4d 89 cd             	mov    r13,r9
    a28e:	48 89 04 24          	mov    QWORD PTR [rsp],rax
    a292:	4c 89 c8             	mov    rax,r9
    a295:	49 c1 ef 28          	shr    r15,0x28
    a299:	45 0f b6 e4          	movzx  r12d,r12b
    a29d:	48 c1 e8 28          	shr    rax,0x28
    a2a1:	4c 89 7c 24 18       	mov    QWORD PTR [rsp+0x18],r15
    a2a6:	48 c1 ea 18          	shr    rdx,0x18
    a2aa:	4d 89 cf             	mov    r15,r9
    a2ad:	48 89 44 24 20       	mov    QWORD PTR [rsp+0x20],rax
    a2b2:	4c 89 c8             	mov    rax,r9
    a2b5:	49 c1 eb 10          	shr    r11,0x10
    a2b9:	4d 89 ce             	mov    r14,r9
    a2bc:	48 c1 e8 30          	shr    rax,0x30
    a2c0:	49 c1 ef 20          	shr    r15,0x20
    a2c4:	48 8b 7c 24 50       	mov    rdi,QWORD PTR [rsp+0x50]
    a2c9:	48 8b 74 24 58       	mov    rsi,QWORD PTR [rsp+0x58]
    a2ce:	48 89 44 24 28       	mov    QWORD PTR [rsp+0x28],rax
    a2d3:	49 c1 ed 10          	shr    r13,0x10
    a2d7:	4c 89 d0             	mov    rax,r10
    a2da:	49 c1 ee 18          	shr    r14,0x18
    a2de:	48 c1 e8 38          	shr    rax,0x38
    a2e2:	48 8b 4c 24 60       	mov    rcx,QWORD PTR [rsp+0x60]
    a2e7:	48 c1 e0 08          	shl    rax,0x8
    a2eb:	4c 09 e0             	or     rax,r12
    a2ee:	44 0f b6 64 24 18    	movzx  r12d,BYTE PTR [rsp+0x18]
    a2f4:	48 c1 e0 08          	shl    rax,0x8
    a2f8:	4c 09 e0             	or     rax,r12
    a2fb:	44 0f b6 24 24       	movzx  r12d,BYTE PTR [rsp]
    a300:	48 c1 e0 08          	shl    rax,0x8
    a304:	4c 09 e0             	or     rax,r12
    a307:	44 0f b6 e2          	movzx  r12d,dl
    a30b:	4c 89 ca             	mov    rdx,r9
    a30e:	48 c1 e0 08          	shl    rax,0x8
    a312:	48 c1 ea 38          	shr    rdx,0x38
    a316:	4c 09 e0             	or     rax,r12
    a319:	45 0f b6 e3          	movzx  r12d,r11b
    a31d:	48 c1 e0 08          	shl    rax,0x8
    a321:	49 89 c3             	mov    r11,rax
    a324:	4c 89 d0             	mov    rax,r10
    a327:	45 0f b6 d2          	movzx  r10d,r10b
    a32b:	4d 09 e3             	or     r11,r12
    a32e:	0f b6 c4             	movzx  eax,ah
    a331:	44 0f b6 64 24 28    	movzx  r12d,BYTE PTR [rsp+0x28]
    a337:	49 c1 e3 08          	shl    r11,0x8
    a33b:	49 09 c3             	or     r11,rax
    a33e:	48 89 d0             	mov    rax,rdx
    a341:	4c 89 ca             	mov    rdx,r9
    a344:	45 0f b6 c9          	movzx  r9d,r9b
    a348:	48 c1 e0 08          	shl    rax,0x8
    a34c:	49 c1 e3 08          	shl    r11,0x8
    a350:	0f b6 d6             	movzx  edx,dh
    a353:	4c 09 e0             	or     rax,r12
    a356:	44 0f b6 64 24 20    	movzx  r12d,BYTE PTR [rsp+0x20]
    a35c:	48 c1 e0 08          	shl    rax,0x8
    a360:	4c 09 e0             	or     rax,r12
    a363:	45 0f b6 e7          	movzx  r12d,r15b
    a367:	49 89 df             	mov    r15,rbx
    a36a:	48 c1 e0 08          	shl    rax,0x8
    a36e:	4d 09 d3             	or     r11,r10
    a371:	49 89 da             	mov    r10,rbx
    a374:	49 c1 ef 18          	shr    r15,0x18
    a378:	4c 09 e0             	or     rax,r12
    a37b:	45 0f b6 e6          	movzx  r12d,r14b
    a37f:	4c 89 1c 24          	mov    QWORD PTR [rsp],r11
    a383:	4d 89 c3             	mov    r11,r8
    a386:	48 c1 e0 08          	shl    rax,0x8
    a38a:	49 c1 eb 10          	shr    r11,0x10
    a38e:	49 89 de             	mov    r14,rbx
    a391:	49 c1 ea 20          	shr    r10,0x20
    a395:	4c 09 e0             	or     rax,r12
    a398:	45 0f b6 e5          	movzx  r12d,r13b
    a39c:	4d 89 c5             	mov    r13,r8
    a39f:	48 c1 e0 08          	shl    rax,0x8
    a3a3:	49 c1 ed 30          	shr    r13,0x30
    a3a7:	4c 89 54 24 18       	mov    QWORD PTR [rsp+0x18],r10
    a3ac:	49 89 da             	mov    r10,rbx
    a3af:	49 c1 ee 10          	shr    r14,0x10
    a3b3:	4c 09 e0             	or     rax,r12
    a3b6:	45 0f b6 ed          	movzx  r13d,r13b
    a3ba:	4d 89 c4             	mov    r12,r8
    a3bd:	48 c1 e0 08          	shl    rax,0x8
    a3c1:	49 c1 ec 18          	shr    r12,0x18
    a3c5:	48 09 d0             	or     rax,rdx
    a3c8:	4c 89 c2             	mov    rdx,r8
    a3cb:	45 0f b6 e4          	movzx  r12d,r12b
    a3cf:	49 c1 ea 30          	shr    r10,0x30
    a3d3:	48 c1 e0 08          	shl    rax,0x8
    a3d7:	48 c1 ea 20          	shr    rdx,0x20
    a3db:	45 0f b6 d2          	movzx  r10d,r10b
    a3df:	4c 09 c8             	or     rax,r9
    a3e2:	49 89 d9             	mov    r9,rbx
    a3e5:	48 89 44 24 08       	mov    QWORD PTR [rsp+0x8],rax
    a3ea:	4c 89 c0             	mov    rax,r8
    a3ed:	66 0f 6f 04 24       	movdqa xmm0,XMMWORD PTR [rsp]
    a3f2:	49 c1 e9 28          	shr    r9,0x28
    a3f6:	48 c1 e8 28          	shr    rax,0x28
    a3fa:	45 0f b6 c9          	movzx  r9d,r9b
    a3fe:	48 89 04 24          	mov    QWORD PTR [rsp],rax
    a402:	4c 89 c0             	mov    rax,r8
    a405:	48 c1 e8 38          	shr    rax,0x38
    a409:	0f 11 45 00          	movups XMMWORD PTR [rbp+0x0],xmm0
    a40d:	48 c1 e0 08          	shl    rax,0x8
    a411:	4c 09 e8             	or     rax,r13
    a414:	44 0f b6 2c 24       	movzx  r13d,BYTE PTR [rsp]
    a419:	48 c1 e0 08          	shl    rax,0x8
    a41d:	4c 09 e8             	or     rax,r13
    a420:	44 0f b6 ea          	movzx  r13d,dl
    a424:	0f b6 d7             	movzx  edx,bh
    a427:	48 c1 e0 08          	shl    rax,0x8
    a42b:	4c 09 e8             	or     rax,r13
    a42e:	49 89 f5             	mov    r13,rsi
    a431:	48 c1 e0 08          	shl    rax,0x8
    a435:	4c 09 e0             	or     rax,r12
    a438:	45 0f b6 e3          	movzx  r12d,r11b
    a43c:	48 c1 e0 08          	shl    rax,0x8
    a440:	49 89 c3             	mov    r11,rax
    a443:	4c 89 c0             	mov    rax,r8
    a446:	45 0f b6 c0          	movzx  r8d,r8b
    a44a:	4d 09 e3             	or     r11,r12
    a44d:	0f b6 c4             	movzx  eax,ah
    a450:	49 89 fc             	mov    r12,rdi
    a453:	49 c1 e3 08          	shl    r11,0x8
    a457:	49 c1 ec 28          	shr    r12,0x28
    a45b:	49 09 c3             	or     r11,rax
    a45e:	48 89 d8             	mov    rax,rbx
    a461:	0f b6 db             	movzx  ebx,bl
    a464:	49 c1 ed 30          	shr    r13,0x30
    a468:	48 c1 e8 38          	shr    rax,0x38
    a46c:	49 c1 e3 08          	shl    r11,0x8
    a470:	45 0f b6 e4          	movzx  r12d,r12b
    a474:	48 c1 e0 08          	shl    rax,0x8
    a478:	4d 09 c3             	or     r11,r8
    a47b:	49 89 f0             	mov    r8,rsi
    a47e:	4c 09 d0             	or     rax,r10
    a481:	4c 89 1c 24          	mov    QWORD PTR [rsp],r11
    a485:	49 89 f2             	mov    r10,rsi
    a488:	49 89 f3             	mov    r11,rsi
    a48b:	48 c1 e0 08          	shl    rax,0x8
    a48f:	49 c1 e8 10          	shr    r8,0x10
    a493:	49 c1 ea 20          	shr    r10,0x20
    a497:	4c 09 c8             	or     rax,r9
    a49a:	49 c1 eb 28          	shr    r11,0x28
    a49e:	45 0f b6 c0          	movzx  r8d,r8b
    a4a2:	44 0f b6 4c 24 18    	movzx  r9d,BYTE PTR [rsp+0x18]
    a4a8:	48 c1 e0 08          	shl    rax,0x8
    a4ac:	45 0f b6 db          	movzx  r11d,r11b
    a4b0:	45 0f b6 d2          	movzx  r10d,r10b
    a4b4:	4c 09 c8             	or     rax,r9
    a4b7:	45 0f b6 cf          	movzx  r9d,r15b
    a4bb:	49 89 ff             	mov    r15,rdi
    a4be:	48 c1 e0 08          	shl    rax,0x8
    a4c2:	49 c1 ef 18          	shr    r15,0x18
    a4c6:	4c 09 c8             	or     rax,r9
    a4c9:	45 0f b6 ce          	movzx  r9d,r14b
    a4cd:	49 89 fe             	mov    r14,rdi
    a4d0:	48 c1 e0 08          	shl    rax,0x8
    a4d4:	49 c1 ee 10          	shr    r14,0x10
    a4d8:	4c 09 c8             	or     rax,r9
    a4db:	49 89 f1             	mov    r9,rsi
    a4de:	48 c1 e0 08          	shl    rax,0x8
    a4e2:	49 c1 e9 18          	shr    r9,0x18
    a4e6:	48 09 d0             	or     rax,rdx
    a4e9:	48 89 fa             	mov    rdx,rdi
    a4ec:	45 0f b6 c9          	movzx  r9d,r9b
    a4f0:	48 c1 e0 08          	shl    rax,0x8
    a4f4:	48 c1 ea 20          	shr    rdx,0x20
    a4f8:	48 09 d8             	or     rax,rbx
    a4fb:	48 89 fb             	mov    rbx,rdi
    a4fe:	48 89 44 24 08       	mov    QWORD PTR [rsp+0x8],rax
    a503:	48 89 f8             	mov    rax,rdi
    a506:	48 c1 eb 30          	shr    rbx,0x30
    a50a:	66 0f 6f 0c 24       	movdqa xmm1,XMMWORD PTR [rsp]
    a50f:	48 c1 e8 38          	shr    rax,0x38
    a513:	0f b6 db             	movzx  ebx,bl
    a516:	48 c1 e0 08          	shl    rax,0x8
    a51a:	0f 11 4d 10          	movups XMMWORD PTR [rbp+0x10],xmm1
    a51e:	48 09 d8             	or     rax,rbx
    a521:	48 c1 e0 08          	shl    rax,0x8
    a525:	4c 09 e0             	or     rax,r12
    a528:	45 0f b6 e5          	movzx  r12d,r13b
    a52c:	49 89 cd             	mov    r13,rcx
    a52f:	48 89 c3             	mov    rbx,rax
    a532:	0f b6 c2             	movzx  eax,dl
    a535:	48 89 f2             	mov    rdx,rsi
    a538:	49 c1 ed 28          	shr    r13,0x28
    a53c:	48 c1 e3 08          	shl    rbx,0x8
    a540:	0f b6 d6             	movzx  edx,dh
    a543:	45 0f b6 ed          	movzx  r13d,r13b
    a547:	48 09 c3             	or     rbx,rax
    a54a:	41 0f b6 c7          	movzx  eax,r15b
    a54e:	48 c1 e3 08          	shl    rbx,0x8
    a552:	48 09 c3             	or     rbx,rax
    a555:	41 0f b6 c6          	movzx  eax,r14b
    a559:	49 89 ce             	mov    r14,rcx
    a55c:	48 c1 e3 08          	shl    rbx,0x8
    a560:	49 c1 ee 30          	shr    r14,0x30
    a564:	48 09 c3             	or     rbx,rax
    a567:	48 89 f8             	mov    rax,rdi
    a56a:	40 0f b6 ff          	movzx  edi,dil
    a56e:	45 0f b6 f6          	movzx  r14d,r14b
    a572:	0f b6 c4             	movzx  eax,ah
    a575:	48 c1 e3 08          	shl    rbx,0x8
    a579:	48 09 c3             	or     rbx,rax
    a57c:	48 89 f0             	mov    rax,rsi
    a57f:	40 0f b6 f6          	movzx  esi,sil
    a583:	48 c1 e8 38          	shr    rax,0x38
    a587:	48 c1 e3 08          	shl    rbx,0x8
    a58b:	48 c1 e0 08          	shl    rax,0x8
    a58f:	48 09 fb             	or     rbx,rdi
    a592:	4c 09 e0             	or     rax,r12
    a595:	48 89 1c 24          	mov    QWORD PTR [rsp],rbx
    a599:	49 89 cc             	mov    r12,rcx
    a59c:	48 89 cb             	mov    rbx,rcx
    a59f:	48 c1 e0 08          	shl    rax,0x8
    a5a3:	48 c1 eb 18          	shr    rbx,0x18
    a5a7:	4c 09 d8             	or     rax,r11
    a5aa:	49 c1 ec 20          	shr    r12,0x20
    a5ae:	0f b6 db             	movzx  ebx,bl
    a5b1:	48 c1 e0 08          	shl    rax,0x8
    a5b5:	45 0f b6 e4          	movzx  r12d,r12b
    a5b9:	4c 09 d0             	or     rax,r10
    a5bc:	48 c1 e0 08          	shl    rax,0x8
    a5c0:	4c 09 c8             	or     rax,r9
    a5c3:	48 c1 e0 08          	shl    rax,0x8
    a5c7:	4c 09 c0             	or     rax,r8
    a5ca:	48 c1 e0 08          	shl    rax,0x8
    a5ce:	48 09 d0             	or     rax,rdx
    a5d1:	48 c1 e0 08          	shl    rax,0x8
    a5d5:	48 09 f0             	or     rax,rsi
    a5d8:	48 89 ce             	mov    rsi,rcx
    a5db:	48 89 44 24 08       	mov    QWORD PTR [rsp+0x8],rax
    a5e0:	66 0f 6f 14 24       	movdqa xmm2,XMMWORD PTR [rsp]
    a5e5:	48 89 c8             	mov    rax,rcx
    a5e8:	48 8b 7c 24 68       	mov    rdi,QWORD PTR [rsp+0x68]
    a5ed:	48 c1 e8 10          	shr    rax,0x10
    a5f1:	48 8b 54 24 68       	mov    rdx,QWORD PTR [rsp+0x68]
    a5f6:	0f b6 c0             	movzx  eax,al
    a5f9:	0f 11 55 20          	movups XMMWORD PTR [rbp+0x20],xmm2
    a5fd:	48 c1 ef 10          	shr    rdi,0x10
    a601:	48 c1 ee 38          	shr    rsi,0x38
    a605:	48 c1 e6 08          	shl    rsi,0x8
    a609:	48 c1 ea 18          	shr    rdx,0x18
    a60d:	40 0f b6 ff          	movzx  edi,dil
    a611:	4c 09 f6             	or     rsi,r14
    a614:	49 89 d0             	mov    r8,rdx
    a617:	48 8b 54 24 68       	mov    rdx,QWORD PTR [rsp+0x68]
    a61c:	48 c1 e6 08          	shl    rsi,0x8
    a620:	45 0f b6 c0          	movzx  r8d,r8b
    a624:	4c 09 ee             	or     rsi,r13
    a627:	48 c1 ea 20          	shr    rdx,0x20
    a62b:	48 c1 e6 08          	shl    rsi,0x8
    a62f:	49 89 d1             	mov    r9,rdx
    a632:	48 8b 54 24 68       	mov    rdx,QWORD PTR [rsp+0x68]
    a637:	4c 09 e6             	or     rsi,r12
    a63a:	45 0f b6 c9          	movzx  r9d,r9b
    a63e:	48 c1 e6 08          	shl    rsi,0x8
    a642:	48 c1 ea 28          	shr    rdx,0x28
    a646:	48 09 de             	or     rsi,rbx
    a649:	49 89 d2             	mov    r10,rdx
    a64c:	48 8b 54 24 68       	mov    rdx,QWORD PTR [rsp+0x68]
    a651:	48 8b 5c 24 68       	mov    rbx,QWORD PTR [rsp+0x68]
    a656:	48 c1 e6 08          	shl    rsi,0x8
    a65a:	45 0f b6 d2          	movzx  r10d,r10b
    a65e:	48 09 c6             	or     rsi,rax
    a661:	0f b6 c5             	movzx  eax,ch
    a664:	48 c1 ea 30          	shr    rdx,0x30
    a668:	0f b6 c9             	movzx  ecx,cl
    a66b:	48 c1 e6 08          	shl    rsi,0x8
    a66f:	44 0f b6 da          	movzx  r11d,dl
    a673:	0f b6 54 24 68       	movzx  edx,BYTE PTR [rsp+0x68]
    a678:	48 09 c6             	or     rsi,rax
    a67b:	48 8b 44 24 68       	mov    rax,QWORD PTR [rsp+0x68]
    a680:	48 c1 e6 08          	shl    rsi,0x8
    a684:	48 c1 e8 38          	shr    rax,0x38
    a688:	48 c1 e0 08          	shl    rax,0x8
    a68c:	4c 09 d8             	or     rax,r11
    a68f:	48 c1 e0 08          	shl    rax,0x8
    a693:	4c 09 d0             	or     rax,r10
    a696:	48 c1 e0 08          	shl    rax,0x8
    a69a:	4c 09 c8             	or     rax,r9
    a69d:	48 c1 e0 08          	shl    rax,0x8
    a6a1:	4c 09 c0             	or     rax,r8
    a6a4:	48 c1 e0 08          	shl    rax,0x8
    a6a8:	48 09 f8             	or     rax,rdi
    a6ab:	0f b6 ff             	movzx  edi,bh
    a6ae:	48 c1 e0 08          	shl    rax,0x8
    a6b2:	48 09 f8             	or     rax,rdi
    a6b5:	48 c1 e0 08          	shl    rax,0x8
    a6b9:	48 09 ce             	or     rsi,rcx
    a6bc:	48 09 d0             	or     rax,rdx
    a6bf:	48 89 34 24          	mov    QWORD PTR [rsp],rsi
    a6c3:	48 89 44 24 08       	mov    QWORD PTR [rsp+0x8],rax
    a6c8:	66 0f 6f 1c 24       	movdqa xmm3,XMMWORD PTR [rsp]
    a6cd:	0f 11 5d 30          	movups XMMWORD PTR [rbp+0x30],xmm3
    a6d1:	48 8b 84 24 f8 00 00 	mov    rax,QWORD PTR [rsp+0xf8]
    a6d8:	00 
    a6d9:	64 48 2b 04 25 28 00 	sub    rax,QWORD PTR fs:0x28
    a6e0:	00 00 
    a6e2:	75 1f                	jne    a703 <pqcrystals_kyber_fips202_ref_sha3_512+0x5e3>
    a6e4:	48 81 c4 08 01 00 00 	add    rsp,0x108
    a6eb:	5b                   	pop    rbx
    a6ec:	5d                   	pop    rbp
    a6ed:	41 5c                	pop    r12
    a6ef:	41 5d                	pop    r13
    a6f1:	41 5e                	pop    r14
    a6f3:	41 5f                	pop    r15
    a6f5:	c3                   	ret    
    a6f6:	b8 06 00 00 00       	mov    eax,0x6
    a6fb:	4c 89 e2             	mov    rdx,r12
    a6fe:	e9 4b fb ff ff       	jmp    a24e <pqcrystals_kyber_fips202_ref_sha3_512+0x12e>
    a703:	e8 f8 69 ff ff       	call   1100 <__stack_chk_fail@plt>
    a708:	0f 1f 84 00 00 00 00 	nop    DWORD PTR [rax+rax*1+0x0]
    a70f:	00 

000000000000a710 <pqcrystals_kyber512_ref_kyber_shake128_absorb>:
    a710:	f3 0f 1e fa          	endbr64 
    a714:	48 83 ec 38          	sub    rsp,0x38
    a718:	f3 0f 6f 06          	movdqu xmm0,XMMWORD PTR [rsi]
    a71c:	f3 0f 6f 4e 10       	movdqu xmm1,XMMWORD PTR [rsi+0x10]
    a721:	64 48 8b 04 25 28 00 	mov    rax,QWORD PTR fs:0x28
    a728:	00 00 
    a72a:	48 89 44 24 28       	mov    QWORD PTR [rsp+0x28],rax
    a72f:	31 c0                	xor    eax,eax
    a731:	49 89 e0             	mov    r8,rsp
    a734:	4c 89 c6             	mov    rsi,r8
    a737:	0f 29 04 24          	movaps XMMWORD PTR [rsp],xmm0
    a73b:	0f 29 4c 24 10       	movaps XMMWORD PTR [rsp+0x10],xmm1
    a740:	88 d0                	mov    al,dl
    a742:	ba 22 00 00 00       	mov    edx,0x22
    a747:	88 cc                	mov    ah,cl
    a749:	66 89 44 24 20       	mov    WORD PTR [rsp+0x20],ax
    a74e:	e8 ad d7 ff ff       	call   7f00 <pqcrystals_kyber_fips202_ref_shake128_absorb_once>
    a753:	48 8b 44 24 28       	mov    rax,QWORD PTR [rsp+0x28]
    a758:	64 48 2b 04 25 28 00 	sub    rax,QWORD PTR fs:0x28
    a75f:	00 00 
    a761:	75 05                	jne    a768 <pqcrystals_kyber512_ref_kyber_shake128_absorb+0x58>
    a763:	48 83 c4 38          	add    rsp,0x38
    a767:	c3                   	ret    
    a768:	e8 93 69 ff ff       	call   1100 <__stack_chk_fail@plt>
    a76d:	0f 1f 00             	nop    DWORD PTR [rax]

000000000000a770 <pqcrystals_kyber512_ref_kyber_shake256_prf>:
    a770:	f3 0f 1e fa          	endbr64 
    a774:	48 83 ec 38          	sub    rsp,0x38
    a778:	f3 0f 6f 02          	movdqu xmm0,XMMWORD PTR [rdx]
    a77c:	f3 0f 6f 4a 10       	movdqu xmm1,XMMWORD PTR [rdx+0x10]
    a781:	64 48 8b 04 25 28 00 	mov    rax,QWORD PTR fs:0x28
    a788:	00 00 
    a78a:	48 89 44 24 28       	mov    QWORD PTR [rsp+0x28],rax
    a78f:	31 c0                	xor    eax,eax
    a791:	49 89 e0             	mov    r8,rsp
    a794:	88 4c 24 20          	mov    BYTE PTR [rsp+0x20],cl
    a798:	b9 21 00 00 00       	mov    ecx,0x21
    a79d:	4c 89 c2             	mov    rdx,r8
    a7a0:	0f 29 04 24          	movaps XMMWORD PTR [rsp],xmm0
    a7a4:	0f 29 4c 24 10       	movaps XMMWORD PTR [rsp+0x10],xmm1
    a7a9:	e8 12 f0 ff ff       	call   97c0 <pqcrystals_kyber_fips202_ref_shake256>
    a7ae:	48 8b 44 24 28       	mov    rax,QWORD PTR [rsp+0x28]
    a7b3:	64 48 2b 04 25 28 00 	sub    rax,QWORD PTR fs:0x28
    a7ba:	00 00 
    a7bc:	75 05                	jne    a7c3 <pqcrystals_kyber512_ref_kyber_shake256_prf+0x53>
    a7be:	48 83 c4 38          	add    rsp,0x38
    a7c2:	c3                   	ret    
    a7c3:	e8 38 69 ff ff       	call   1100 <__stack_chk_fail@plt>
    a7c8:	0f 1f 84 00 00 00 00 	nop    DWORD PTR [rax+rax*1+0x0]
    a7cf:	00 

000000000000a7d0 <randombytes>:
    a7d0:	f3 0f 1e fa          	endbr64 
    a7d4:	55                   	push   rbp
    a7d5:	48 89 fd             	mov    rbp,rdi
    a7d8:	53                   	push   rbx
    a7d9:	48 89 f3             	mov    rbx,rsi
    a7dc:	48 83 ec 08          	sub    rsp,0x8
    a7e0:	48 85 f6             	test   rsi,rsi
    a7e3:	75 13                	jne    a7f8 <randombytes+0x28>
    a7e5:	eb 41                	jmp    a828 <randombytes+0x58>
    a7e7:	66 0f 1f 84 00 00 00 	nop    WORD PTR [rax+rax*1+0x0]
    a7ee:	00 00 
    a7f0:	48 01 c5             	add    rbp,rax
    a7f3:	48 29 c3             	sub    rbx,rax
    a7f6:	74 30                	je     a828 <randombytes+0x58>
    a7f8:	31 c9                	xor    ecx,ecx
    a7fa:	31 c0                	xor    eax,eax
    a7fc:	48 89 da             	mov    rdx,rbx
    a7ff:	48 89 ee             	mov    rsi,rbp
    a802:	bf 3e 01 00 00       	mov    edi,0x13e
    a807:	e8 04 69 ff ff       	call   1110 <syscall@plt>
    a80c:	48 83 f8 ff          	cmp    rax,0xffffffffffffffff
    a810:	75 de                	jne    a7f0 <randombytes+0x20>
    a812:	e8 c9 68 ff ff       	call   10e0 <__errno_location@plt>
    a817:	83 38 04             	cmp    DWORD PTR [rax],0x4
    a81a:	74 dc                	je     a7f8 <randombytes+0x28>
    a81c:	e8 af 68 ff ff       	call   10d0 <abort@plt>
    a821:	0f 1f 80 00 00 00 00 	nop    DWORD PTR [rax+0x0]
    a828:	48 83 c4 08          	add    rsp,0x8
    a82c:	5b                   	pop    rbx
    a82d:	5d                   	pop    rbp
    a82e:	c3                   	ret    
    a82f:	90                   	nop

000000000000a830 <cpucycles_overhead>:
    a830:	f3 0f 1e fa          	endbr64 
    a834:	b9 a0 86 01 00       	mov    ecx,0x186a0
    a839:	49 c7 c0 ff ff ff ff 	mov    r8,0xffffffffffffffff
    a840:	0f 31                	rdtsc  
    a842:	48 c1 e2 20          	shl    rdx,0x20
    a846:	48 09 d0             	or     rax,rdx
    a849:	48 89 c6             	mov    rsi,rax
    a84c:	0f 31                	rdtsc  
    a84e:	48 c1 e2 20          	shl    rdx,0x20
    a852:	48 09 d0             	or     rax,rdx
    a855:	48 29 f0             	sub    rax,rsi
    a858:	49 39 c0             	cmp    r8,rax
    a85b:	4c 0f 47 c0          	cmova  r8,rax
    a85f:	83 e9 01             	sub    ecx,0x1
    a862:	75 dc                	jne    a840 <cpucycles_overhead+0x10>
    a864:	4c 89 c0             	mov    rax,r8
    a867:	c3                   	ret    
    a868:	0f 1f 84 00 00 00 00 	nop    DWORD PTR [rax+rax*1+0x0]
    a86f:	00 

000000000000a870 <print_results>:
    a870:	f3 0f 1e fa          	endbr64 
    a874:	55                   	push   rbp
    a875:	48 89 e5             	mov    rbp,rsp
    a878:	41 57                	push   r15
    a87a:	41 56                	push   r14
    a87c:	41 55                	push   r13
    a87e:	41 54                	push   r12
    a880:	53                   	push   rbx
    a881:	48 83 ec 18          	sub    rsp,0x18
    a885:	64 48 8b 04 25 28 00 	mov    rax,QWORD PTR fs:0x28
    a88c:	00 00 
    a88e:	48 89 45 c8          	mov    QWORD PTR [rbp-0x38],rax
    a892:	31 c0                	xor    eax,eax
    a894:	48 83 fa 01          	cmp    rdx,0x1
    a898:	0f 86 c2 03 00 00    	jbe    ac60 <print_results+0x3f0>
    a89e:	48 8b 0d 6b 37 00 00 	mov    rcx,QWORD PTR [rip+0x376b]        # e010 <overhead.0>
    a8a5:	49 89 ff             	mov    r15,rdi
    a8a8:	48 89 f3             	mov    rbx,rsi
    a8ab:	49 89 d6             	mov    r14,rdx
    a8ae:	48 83 f9 ff          	cmp    rcx,0xffffffffffffffff
    a8b2:	0f 84 30 03 00 00    	je     abe8 <print_results+0x378>
    a8b8:	4d 8d 66 ff          	lea    r12,[r14-0x1]
    a8bc:	4c 89 e0             	mov    rax,r12
    a8bf:	4e 8d 2c e5 00 00 00 	lea    r13,[r12*8+0x0]
    a8c6:	00 
    a8c7:	48 c1 e0 04          	shl    rax,0x4
    a8cb:	48 85 c0             	test   rax,rax
    a8ce:	0f 9e c0             	setle  al
    a8d1:	4d 85 ed             	test   r13,r13
    a8d4:	0f 9e c2             	setle  dl
    a8d7:	08 d0                	or     al,dl
    a8d9:	0f 84 21 03 00 00    	je     ac00 <print_results+0x390>
    a8df:	49 8d 46 fe          	lea    rax,[r14-0x2]
    a8e3:	48 83 f8 01          	cmp    rax,0x1
    a8e7:	0f 86 13 03 00 00    	jbe    ac00 <print_results+0x390>
    a8ed:	4c 89 e2             	mov    rdx,r12
    a8f0:	66 48 0f 6e d1       	movq   xmm2,rcx
    a8f5:	31 c0                	xor    eax,eax
    a8f7:	48 d1 ea             	shr    rdx,1
    a8fa:	66 0f 6c d2          	punpcklqdq xmm2,xmm2
    a8fe:	48 c1 e2 04          	shl    rdx,0x4
    a902:	66 0f 1f 44 00 00    	nop    WORD PTR [rax+rax*1+0x0]
    a908:	f3 0f 6f 0c 43       	movdqu xmm1,XMMWORD PTR [rbx+rax*2]
    a90d:	f3 0f 6f 6c 43 10    	movdqu xmm5,XMMWORD PTR [rbx+rax*2+0x10]
    a913:	66 0f 6f c1          	movdqa xmm0,xmm1
    a917:	66 0f 6c cd          	punpcklqdq xmm1,xmm5
    a91b:	66 0f 6d c5          	punpckhqdq xmm0,xmm5
    a91f:	66 0f fb c2          	psubq  xmm0,xmm2
    a923:	66 0f fb c1          	psubq  xmm0,xmm1
    a927:	0f 11 04 03          	movups XMMWORD PTR [rbx+rax*1],xmm0
    a92b:	48 83 c0 10          	add    rax,0x10
    a92f:	48 39 c2             	cmp    rdx,rax
    a932:	75 d4                	jne    a908 <print_results+0x98>
    a934:	4c 89 e6             	mov    rsi,r12
    a937:	48 83 e6 fe          	and    rsi,0xfffffffffffffffe
    a93b:	41 f6 c4 01          	test   r12b,0x1
    a93f:	74 17                	je     a958 <print_results+0xe8>
    a941:	48 89 f2             	mov    rdx,rsi
    a944:	48 c1 e2 04          	shl    rdx,0x4
    a948:	48 8b 44 13 08       	mov    rax,QWORD PTR [rbx+rdx*1+0x8]
    a94d:	48 2b 04 13          	sub    rax,QWORD PTR [rbx+rdx*1]
    a951:	48 29 c8             	sub    rax,rcx
    a954:	48 89 04 f3          	mov    QWORD PTR [rbx+rsi*8],rax
    a958:	48 8d 3d 28 0a 00 00 	lea    rdi,[rip+0xa28]        # b387 <KeccakF_RoundConstants+0xe7>
    a95f:	e8 8c 67 ff ff       	call   10f0 <puts@plt>
    a964:	4c 89 ff             	mov    rdi,r15
    a967:	e8 84 67 ff ff       	call   10f0 <puts@plt>
    a96c:	48 8b 43 08          	mov    rax,QWORD PTR [rbx+0x8]
    a970:	48 2b 03             	sub    rax,QWORD PTR [rbx]
    a973:	48 89 e1             	mov    rcx,rsp
    a976:	48 89 03             	mov    QWORD PTR [rbx],rax
    a979:	4c 89 e2             	mov    rdx,r12
    a97c:	48 89 d8             	mov    rax,rbx
    a97f:	66 0f ef c0          	pxor   xmm0,xmm0
    a983:	48 d1 ea             	shr    rdx,1
    a986:	48 c1 e2 04          	shl    rdx,0x4
    a98a:	48 01 da             	add    rdx,rbx
    a98d:	0f 1f 00             	nop    DWORD PTR [rax]
    a990:	f3 0f 6f 18          	movdqu xmm3,XMMWORD PTR [rax]
    a994:	48 83 c0 10          	add    rax,0x10
    a998:	66 0f d4 c3          	paddq  xmm0,xmm3
    a99c:	48 39 c2             	cmp    rdx,rax
    a99f:	75 ef                	jne    a990 <print_results+0x120>
    a9a1:	66 0f 6f c8          	movdqa xmm1,xmm0
    a9a5:	4c 89 e2             	mov    rdx,r12
    a9a8:	66 0f 73 d9 08       	psrldq xmm1,0x8
    a9ad:	48 83 e2 fe          	and    rdx,0xfffffffffffffffe
    a9b1:	66 0f d4 c1          	paddq  xmm0,xmm1
    a9b5:	66 48 0f 7e c0       	movq   rax,xmm0
    a9ba:	41 f6 c4 01          	test   r12b,0x1
    a9be:	0f 84 bc 01 00 00    	je     ab80 <print_results+0x310>
    a9c4:	49 83 c5 0f          	add    r13,0xf
    a9c8:	48 03 04 d3          	add    rax,QWORD PTR [rbx+rdx*8]
    a9cc:	48 89 e6             	mov    rsi,rsp
    a9cf:	31 d2                	xor    edx,edx
    a9d1:	4c 89 ef             	mov    rdi,r13
    a9d4:	48 81 e7 00 f0 ff ff 	and    rdi,0xfffffffffffff000
    a9db:	49 f7 f4             	div    r12
    a9de:	48 29 fe             	sub    rsi,rdi
    a9e1:	4c 89 ea             	mov    rdx,r13
    a9e4:	48 83 e2 f0          	and    rdx,0xfffffffffffffff0
    a9e8:	48 39 f4             	cmp    rsp,rsi
    a9eb:	74 15                	je     aa02 <print_results+0x192>
    a9ed:	48 81 ec 00 10 00 00 	sub    rsp,0x1000
    a9f4:	48 83 8c 24 f8 0f 00 	or     QWORD PTR [rsp+0xff8],0x0
    a9fb:	00 00 
    a9fd:	48 39 f4             	cmp    rsp,rsi
    aa00:	75 eb                	jne    a9ed <print_results+0x17d>
    aa02:	81 e2 ff 0f 00 00    	and    edx,0xfff
    aa08:	48 29 d4             	sub    rsp,rdx
    aa0b:	48 85 d2             	test   rdx,rdx
    aa0e:	74 06                	je     aa16 <print_results+0x1a6>
    aa10:	48 83 4c 14 f8 00    	or     QWORD PTR [rsp+rdx*1-0x8],0x0
    aa16:	48 89 e6             	mov    rsi,rsp
    aa19:	49 83 fe 02          	cmp    r14,0x2
    aa1d:	0f 84 4d 01 00 00    	je     ab70 <print_results+0x300>
    aa23:	4c 89 e7             	mov    rdi,r12
    aa26:	66 48 0f 6e c8       	movq   xmm1,rax
    aa2b:	31 d2                	xor    edx,edx
    aa2d:	48 d1 ef             	shr    rdi,1
    aa30:	66 0f 6c c9          	punpcklqdq xmm1,xmm1
    aa34:	48 c1 e7 04          	shl    rdi,0x4
    aa38:	0f 1f 84 00 00 00 00 	nop    DWORD PTR [rax+rax*1+0x0]
    aa3f:	00 
    aa40:	f3 0f 6f 04 13       	movdqu xmm0,XMMWORD PTR [rbx+rdx*1]
    aa45:	66 0f fb c1          	psubq  xmm0,xmm1
    aa49:	0f 11 04 16          	movups XMMWORD PTR [rsi+rdx*1],xmm0
    aa4d:	48 83 c2 10          	add    rdx,0x10
    aa51:	48 39 d7             	cmp    rdi,rdx
    aa54:	75 ea                	jne    aa40 <print_results+0x1d0>
    aa56:	4c 89 e7             	mov    rdi,r12
    aa59:	48 83 e7 fe          	and    rdi,0xfffffffffffffffe
    aa5d:	41 f6 c4 01          	test   r12b,0x1
    aa61:	74 0b                	je     aa6e <print_results+0x1fe>
    aa63:	48 8b 14 fb          	mov    rdx,QWORD PTR [rbx+rdi*8]
    aa67:	48 29 c2             	sub    rdx,rax
    aa6a:	48 89 14 fe          	mov    QWORD PTR [rsi+rdi*8],rdx
    aa6e:	4c 89 e8             	mov    rax,r13
    aa71:	48 89 e2             	mov    rdx,rsp
    aa74:	49 81 e5 00 f0 ff ff 	and    r13,0xfffffffffffff000
    aa7b:	4c 29 ea             	sub    rdx,r13
    aa7e:	48 83 e0 f0          	and    rax,0xfffffffffffffff0
    aa82:	48 39 d4             	cmp    rsp,rdx
    aa85:	74 15                	je     aa9c <print_results+0x22c>
    aa87:	48 81 ec 00 10 00 00 	sub    rsp,0x1000
    aa8e:	48 83 8c 24 f8 0f 00 	or     QWORD PTR [rsp+0xff8],0x0
    aa95:	00 00 
    aa97:	48 39 d4             	cmp    rsp,rdx
    aa9a:	75 eb                	jne    aa87 <print_results+0x217>
    aa9c:	25 ff 0f 00 00       	and    eax,0xfff
    aaa1:	48 29 c4             	sub    rsp,rax
    aaa4:	48 85 c0             	test   rax,rax
    aaa7:	0f 85 13 01 00 00    	jne    abc0 <print_results+0x350>
    aaad:	48 89 e7             	mov    rdi,rsp
    aab0:	31 c0                	xor    eax,eax
    aab2:	66 0f 1f 44 00 00    	nop    WORD PTR [rax+rax*1+0x0]
    aab8:	48 8b 14 c6          	mov    rdx,QWORD PTR [rsi+rax*8]
    aabc:	48 0f af d2          	imul   rdx,rdx
    aac0:	48 89 14 c7          	mov    QWORD PTR [rdi+rax*8],rdx
    aac4:	48 83 c0 01          	add    rax,0x1
    aac8:	49 39 c4             	cmp    r12,rax
    aacb:	75 eb                	jne    aab8 <print_results+0x248>
    aacd:	49 83 fe 02          	cmp    r14,0x2
    aad1:	0f 84 b1 01 00 00    	je     ac88 <print_results+0x418>
    aad7:	4c 89 e2             	mov    rdx,r12
    aada:	48 89 f8             	mov    rax,rdi
    aadd:	66 0f ef c0          	pxor   xmm0,xmm0
    aae1:	48 d1 ea             	shr    rdx,1
    aae4:	48 c1 e2 04          	shl    rdx,0x4
    aae8:	48 01 fa             	add    rdx,rdi
    aaeb:	0f 1f 44 00 00       	nop    DWORD PTR [rax+rax*1+0x0]
    aaf0:	f3 0f 6f 20          	movdqu xmm4,XMMWORD PTR [rax]
    aaf4:	48 83 c0 10          	add    rax,0x10
    aaf8:	66 0f d4 c4          	paddq  xmm0,xmm4
    aafc:	48 39 c2             	cmp    rdx,rax
    aaff:	75 ef                	jne    aaf0 <print_results+0x280>
    ab01:	66 0f 6f c8          	movdqa xmm1,xmm0
    ab05:	4c 89 e2             	mov    rdx,r12
    ab08:	66 0f 73 d9 08       	psrldq xmm1,0x8
    ab0d:	48 83 e2 fe          	and    rdx,0xfffffffffffffffe
    ab11:	66 0f d4 c1          	paddq  xmm0,xmm1
    ab15:	66 48 0f 7e c0       	movq   rax,xmm0
    ab1a:	41 f6 c4 01          	test   r12b,0x1
    ab1e:	74 04                	je     ab24 <print_results+0x2b4>
    ab20:	48 03 04 d7          	add    rax,QWORD PTR [rdi+rdx*8]
    ab24:	31 d2                	xor    edx,edx
    ab26:	bf 01 00 00 00       	mov    edi,0x1
    ab2b:	48 8d 35 72 08 00 00 	lea    rsi,[rip+0x872]        # b3a4 <KeccakF_RoundConstants+0x104>
    ab32:	48 89 cc             	mov    rsp,rcx
    ab35:	49 f7 f4             	div    r12
    ab38:	48 89 c2             	mov    rdx,rax
    ab3b:	31 c0                	xor    eax,eax
    ab3d:	e8 de 65 ff ff       	call   1120 <__printf_chk@plt>
    ab42:	bf 0a 00 00 00       	mov    edi,0xa
    ab47:	e8 74 65 ff ff       	call   10c0 <putchar@plt>
    ab4c:	48 8b 45 c8          	mov    rax,QWORD PTR [rbp-0x38]
    ab50:	64 48 2b 04 25 28 00 	sub    rax,QWORD PTR fs:0x28
    ab57:	00 00 
    ab59:	0f 85 3d 01 00 00    	jne    ac9c <print_results+0x42c>
    ab5f:	48 8d 65 d8          	lea    rsp,[rbp-0x28]
    ab63:	5b                   	pop    rbx
    ab64:	41 5c                	pop    r12
    ab66:	41 5d                	pop    r13
    ab68:	41 5e                	pop    r14
    ab6a:	41 5f                	pop    r15
    ab6c:	5d                   	pop    rbp
    ab6d:	c3                   	ret    
    ab6e:	66 90                	xchg   ax,ax
    ab70:	31 ff                	xor    edi,edi
    ab72:	e9 ec fe ff ff       	jmp    aa63 <print_results+0x1f3>
    ab77:	66 0f 1f 84 00 00 00 	nop    WORD PTR [rax+rax*1+0x0]
    ab7e:	00 00 
    ab80:	49 83 c5 0f          	add    r13,0xf
    ab84:	31 d2                	xor    edx,edx
    ab86:	48 89 e6             	mov    rsi,rsp
    ab89:	4c 89 ef             	mov    rdi,r13
    ab8c:	49 f7 f4             	div    r12
    ab8f:	48 81 e7 00 f0 ff ff 	and    rdi,0xfffffffffffff000
    ab96:	4c 89 ea             	mov    rdx,r13
    ab99:	48 83 e2 f0          	and    rdx,0xfffffffffffffff0
    ab9d:	48 29 fe             	sub    rsi,rdi
    aba0:	48 39 f4             	cmp    rsp,rsi
    aba3:	74 26                	je     abcb <print_results+0x35b>
    aba5:	48 81 ec 00 10 00 00 	sub    rsp,0x1000
    abac:	48 83 8c 24 f8 0f 00 	or     QWORD PTR [rsp+0xff8],0x0
    abb3:	00 00 
    abb5:	eb e9                	jmp    aba0 <print_results+0x330>
    abb7:	66 0f 1f 84 00 00 00 	nop    WORD PTR [rax+rax*1+0x0]
    abbe:	00 00 
    abc0:	48 83 4c 04 f8 00    	or     QWORD PTR [rsp+rax*1-0x8],0x0
    abc6:	e9 e2 fe ff ff       	jmp    aaad <print_results+0x23d>
    abcb:	81 e2 ff 0f 00 00    	and    edx,0xfff
    abd1:	48 29 d4             	sub    rsp,rdx
    abd4:	48 85 d2             	test   rdx,rdx
    abd7:	0f 85 b4 00 00 00    	jne    ac91 <print_results+0x421>
    abdd:	48 89 e6             	mov    rsi,rsp
    abe0:	e9 3e fe ff ff       	jmp    aa23 <print_results+0x1b3>
    abe5:	0f 1f 00             	nop    DWORD PTR [rax]
    abe8:	e8 43 fc ff ff       	call   a830 <cpucycles_overhead>
    abed:	48 89 05 1c 34 00 00 	mov    QWORD PTR [rip+0x341c],rax        # e010 <overhead.0>
    abf4:	48 89 c1             	mov    rcx,rax
    abf7:	e9 bc fc ff ff       	jmp    a8b8 <print_results+0x48>
    abfc:	0f 1f 40 00          	nop    DWORD PTR [rax+0x0]
    ac00:	48 89 de             	mov    rsi,rbx
    ac03:	48 8d 53 08          	lea    rdx,[rbx+0x8]
    ac07:	4a 8d 7c f3 f8       	lea    rdi,[rbx+r14*8-0x8]
    ac0c:	0f 1f 40 00          	nop    DWORD PTR [rax+0x0]
    ac10:	48 8b 02             	mov    rax,QWORD PTR [rdx]
    ac13:	48 83 c6 08          	add    rsi,0x8
    ac17:	48 83 c2 10          	add    rdx,0x10
    ac1b:	48 29 c8             	sub    rax,rcx
    ac1e:	48 2b 42 e8          	sub    rax,QWORD PTR [rdx-0x18]
    ac22:	48 89 46 f8          	mov    QWORD PTR [rsi-0x8],rax
    ac26:	48 39 fe             	cmp    rsi,rdi
    ac29:	75 e5                	jne    ac10 <print_results+0x3a0>
    ac2b:	48 8d 3d 55 07 00 00 	lea    rdi,[rip+0x755]        # b387 <KeccakF_RoundConstants+0xe7>
    ac32:	e8 b9 64 ff ff       	call   10f0 <puts@plt>
    ac37:	4c 89 ff             	mov    rdi,r15
    ac3a:	e8 b1 64 ff ff       	call   10f0 <puts@plt>
    ac3f:	48 8b 43 08          	mov    rax,QWORD PTR [rbx+0x8]
    ac43:	48 2b 03             	sub    rax,QWORD PTR [rbx]
    ac46:	48 89 e1             	mov    rcx,rsp
    ac49:	48 89 03             	mov    QWORD PTR [rbx],rax
    ac4c:	49 83 fe 02          	cmp    r14,0x2
    ac50:	0f 85 23 fd ff ff    	jne    a979 <print_results+0x109>
    ac56:	31 c0                	xor    eax,eax
    ac58:	31 d2                	xor    edx,edx
    ac5a:	e9 65 fd ff ff       	jmp    a9c4 <print_results+0x154>
    ac5f:	90                   	nop
    ac60:	48 8b 0d b9 33 00 00 	mov    rcx,QWORD PTR [rip+0x33b9]        # e020 <stderr@GLIBC_2.2.5>
    ac67:	ba 26 00 00 00       	mov    edx,0x26
    ac6c:	be 01 00 00 00       	mov    esi,0x1
    ac71:	48 8d 3d e8 06 00 00 	lea    rdi,[rip+0x6e8]        # b360 <KeccakF_RoundConstants+0xc0>
    ac78:	e8 b3 64 ff ff       	call   1130 <fwrite@plt>
    ac7d:	e9 ca fe ff ff       	jmp    ab4c <print_results+0x2dc>
    ac82:	66 0f 1f 44 00 00    	nop    WORD PTR [rax+rax*1+0x0]
    ac88:	31 c0                	xor    eax,eax
    ac8a:	31 d2                	xor    edx,edx
    ac8c:	e9 8f fe ff ff       	jmp    ab20 <print_results+0x2b0>
    ac91:	48 83 4c 14 f8 00    	or     QWORD PTR [rsp+rdx*1-0x8],0x0
    ac97:	e9 41 ff ff ff       	jmp    abdd <print_results+0x36d>
    ac9c:	e8 5f 64 ff ff       	call   1100 <__stack_chk_fail@plt>

Disassembly of section .fini:

000000000000aca4 <_fini>:
    aca4:	f3 0f 1e fa          	endbr64 
    aca8:	48 83 ec 08          	sub    rsp,0x8
    acac:	48 83 c4 08          	add    rsp,0x8
    acb0:	c3                   	ret    
